(dp1
S'agents'
p2
(lp3
(igame
Agent
p4
(dp5
S'index'
p6
I0
sba(igame
Agent
p7
(dp8
g6
I0
sba(igame
Agent
p9
(dp10
g6
I0
sba(igame
Agent
p11
(dp12
g6
I0
sba(igame
Agent
p13
(dp14
g6
I0
sba(igame
Agent
p15
(dp16
g6
I0
sbasS'length'
p17
I3000
sS'layout'
p18
(ilayout
Layout
p19
(dp20
S'capsules'
p21
(lp22
(I9
I2
tp23
a(I37
I2
tp24
a(I4
I19
tp25
a(I32
I19
tp26
asS'numGhosts'
p27
I6
sS'food'
p28
(igame
Grid
p29
(dp30
S'CELLS_PER_INT'
p31
I30
sS'width'
p32
I42
sS'data'
p33
(lp34
(lp35
I00
aI00
aI00
aI00
aI00
aI00
aI00
aI00
aI00
aI00
aI00
aI00
aI00
aI00
aI00
aI00
aI00
aI00
aI00
aI00
aI00
aI00
aa(lp36
I00
aI00
aI00
aI00
aI00
aI00
aI01
aI00
aI01
aI00
aI01
aI00
aI00
aI01
aI00
aI01
aI00
aI00
aI00
aI00
aI00
aI00
aa(lp37
I00
aI00
aI00
aI00
aI00
aI00
aI00
aI00
aI00
aI00
aI00
aI00
aI00
aI01
aI00
aI00
aI00
aI00
aI00
aI00
aI00
aI00
aa(lp38
I00
aI00
aI00
aI00
aI00
aI00
aI00
aI00
aI00
aI00
aI01
aI00
aI00
aI00
aI00
aI00
aI00
aI00
aI00
aI00
aI00
aI00
aa(lp39
I00
aI00
aI00
aI00
aI00
aI00
aI01
aI00
aI01
aI00
aI00
aI00
aI00
aI00
aI00
aI00
aI00
aI00
aI00
aI00
aI00
aI00
aa(lp40
I00
aI00
aI00
aI00
aI00
aI00
aI00
aI00
aI00
aI00
aI00
aI00
aI00
aI00
aI00
aI00
aI00
aI00
aI00
aI00
aI01
aI00
aa(lp41
I00
aI01
aI00
aI00
aI00
aI00
aI00
aI00
aI00
aI00
aI00
aI00
aI00
aI00
aI00
aI00
aI00
aI00
aI00
aI00
aI00
aI00
aa(lp42
I00
aI00
aI00
aI00
aI00
aI00
aI00
aI00
aI00
aI00
aI00
aI00
aI00
aI00
aI00
aI00
aI00
aI00
aI00
aI00
aI00
aI00
aa(lp43
I00
aI01
aI00
aI00
aI00
aI01
aI00
aI00
aI00
aI00
aI00
aI01
aI00
aI00
aI00
aI00
aI00
aI00
aI00
aI00
aI00
aI00
aa(lp44
I00
aI00
aI00
aI00
aI00
aI01
aI00
aI00
aI00
aI00
aI00
aI01
aI00
aI00
aI00
aI00
aI00
aI00
aI00
aI00
aI01
aI00
aa(lp45
I00
aI00
aI01
aI00
aI00
aI00
aI01
aI00
aI00
aI00
aI00
aI00
aI00
aI01
aI00
aI00
aI00
aI00
aI00
aI00
aI00
aI00
aa(lp46
I00
aI00
aI00
aI00
aI00
aI00
aI00
aI01
aI00
aI00
aI00
aI00
aI00
aI00
aI00
aI00
aI00
aI00
aI00
aI00
aI00
aI00
aa(lp47
I00
aI01
aI00
aI01
aI00
aI01
aI01
aI00
aI00
aI00
aI00
aI00
aI00
aI00
aI00
aI00
aI01
aI00
aI00
aI00
aI00
aI00
aa(lp48
I00
aI00
aI00
aI00
aI00
aI00
aI00
aI00
aI00
aI00
aI00
aI00
aI00
aI00
aI00
aI00
aI00
aI00
aI01
aI00
aI01
aI00
aa(lp49
I00
aI01
aI01
aI00
aI00
aI00
aI00
aI00
aI00
aI01
aI00
aI00
aI00
aI00
aI00
aI00
aI00
aI00
aI01
aI00
aI00
aI00
aa(lp50
I00
aI00
aI00
aI00
aI01
aI00
aI01
aI00
aI00
aI00
aI00
aI00
aI00
aI00
aI00
aI01
aI00
aI00
aI00
aI00
aI00
aI00
aa(lp51
I00
aI00
aI00
aI00
aI00
aI00
aI00
aI00
aI01
aI00
aI00
aI00
aI00
aI01
aI00
aI00
aI00
aI00
aI00
aI00
aI00
aI00
aa(lp52
I00
aI01
aI00
aI00
aI01
aI00
aI00
aI00
aI00
aI00
aI00
aI00
aI00
aI00
aI00
aI00
aI00
aI00
aI00
aI00
aI00
aI00
aa(lp53
I00
aI00
aI01
aI01
aI00
aI00
aI00
aI00
aI01
aI00
aI00
aI00
aI00
aI00
aI00
aI00
aI00
aI00
aI00
aI00
aI00
aI00
aa(lp54
I00
aI00
aI00
aI00
aI00
aI00
aI00
aI00
aI00
aI00
aI00
aI00
aI00
aI00
aI00
aI00
aI00
aI00
aI00
aI00
aI00
aI00
aa(lp55
I00
aI00
aI00
aI00
aI00
aI00
aI00
aI00
aI00
aI00
aI00
aI00
aI00
aI00
aI00
aI00
aI00
aI00
aI00
aI00
aI00
aI00
aa(lp56
I00
aI00
aI00
aI00
aI00
aI00
aI00
aI00
aI00
aI00
aI00
aI00
aI00
aI00
aI00
aI00
aI00
aI00
aI00
aI00
aI00
aI00
aa(lp57
I00
aI00
aI00
aI00
aI00
aI00
aI00
aI00
aI00
aI00
aI00
aI00
aI00
aI00
aI00
aI00
aI00
aI00
aI00
aI00
aI00
aI00
aa(lp58
I00
aI00
aI00
aI00
aI00
aI00
aI00
aI00
aI00
aI00
aI00
aI00
aI00
aI01
aI00
aI00
aI00
aI00
aI01
aI01
aI00
aI00
aa(lp59
I00
aI00
aI00
aI00
aI00
aI00
aI00
aI00
aI00
aI00
aI00
aI00
aI00
aI00
aI00
aI00
aI00
aI01
aI00
aI00
aI01
aI00
aa(lp60
I00
aI00
aI00
aI00
aI00
aI00
aI00
aI00
aI01
aI00
aI00
aI00
aI00
aI01
aI00
aI00
aI00
aI00
aI00
aI00
aI00
aI00
aa(lp61
I00
aI00
aI00
aI00
aI00
aI00
aI01
aI00
aI00
aI00
aI00
aI00
aI00
aI00
aI00
aI01
aI00
aI01
aI00
aI00
aI00
aI00
aa(lp62
I00
aI00
aI00
aI01
aI00
aI00
aI00
aI00
aI00
aI00
aI00
aI00
aI01
aI00
aI00
aI00
aI00
aI00
aI00
aI01
aI01
aI00
aa(lp63
I00
aI01
aI00
aI01
aI00
aI00
aI00
aI00
aI00
aI00
aI00
aI00
aI00
aI00
aI00
aI00
aI00
aI00
aI00
aI00
aI00
aI00
aa(lp64
I00
aI00
aI00
aI00
aI00
aI01
aI00
aI00
aI00
aI00
aI00
aI00
aI00
aI00
aI00
aI01
aI01
aI00
aI01
aI00
aI01
aI00
aa(lp65
I00
aI00
aI00
aI00
aI00
aI00
aI00
aI00
aI00
aI00
aI00
aI00
aI00
aI00
aI01
aI00
aI00
aI00
aI00
aI00
aI00
aI00
aa(lp66
I00
aI00
aI00
aI00
aI00
aI00
aI00
aI00
aI01
aI00
aI00
aI00
aI00
aI00
aI00
aI01
aI00
aI00
aI00
aI01
aI00
aI00
aa(lp67
I00
aI01
aI00
aI00
aI00
aI00
aI00
aI00
aI00
aI00
aI01
aI00
aI00
aI00
aI00
aI00
aI01
aI00
aI00
aI00
aI00
aI00
aa(lp68
I00
aI00
aI00
aI00
aI00
aI00
aI00
aI00
aI00
aI00
aI01
aI00
aI00
aI00
aI00
aI00
aI01
aI00
aI00
aI00
aI01
aI00
aa(lp69
I00
aI00
aI00
aI00
aI00
aI00
aI00
aI00
aI00
aI00
aI00
aI00
aI00
aI00
aI00
aI00
aI00
aI00
aI00
aI00
aI00
aI00
aa(lp70
I00
aI00
aI00
aI00
aI00
aI00
aI00
aI00
aI00
aI00
aI00
aI00
aI00
aI00
aI00
aI00
aI00
aI00
aI00
aI00
aI01
aI00
aa(lp71
I00
aI01
aI00
aI00
aI00
aI00
aI00
aI00
aI00
aI00
aI00
aI00
aI00
aI00
aI00
aI00
aI00
aI00
aI00
aI00
aI00
aI00
aa(lp72
I00
aI00
aI00
aI00
aI00
aI00
aI00
aI00
aI00
aI00
aI00
aI00
aI00
aI01
aI00
aI01
aI00
aI00
aI00
aI00
aI00
aI00
aa(lp73
I00
aI00
aI00
aI00
aI00
aI00
aI00
aI00
aI00
aI00
aI00
aI01
aI00
aI00
aI00
aI00
aI00
aI00
aI00
aI00
aI00
aI00
aa(lp74
I00
aI00
aI00
aI00
aI00
aI00
aI00
aI00
aI01
aI00
aI00
aI00
aI00
aI00
aI00
aI00
aI00
aI00
aI00
aI00
aI00
aI00
aa(lp75
I00
aI00
aI00
aI00
aI00
aI00
aI01
aI00
aI01
aI00
aI00
aI01
aI00
aI01
aI00
aI01
aI00
aI00
aI00
aI00
aI00
aI00
aa(lp76
I00
aI00
aI00
aI00
aI00
aI00
aI00
aI00
aI00
aI00
aI00
aI00
aI00
aI00
aI00
aI00
aI00
aI00
aI00
aI00
aI00
aI00
aasS'height'
p77
I22
sbsS'agentPositions'
p78
(lp79
(I00
(I1
I3
tp80
tp81
a(I00
(I40
I18
tp82
tp83
a(I00
(I1
I2
tp84
tp85
a(I00
(I40
I19
tp86
tp87
a(I00
(I1
I1
tp88
tp89
a(I00
(I40
I20
tp90
tp91
asg77
I22
sg32
I42
sS'walls'
p92
(igame
Grid
p93
(dp94
g31
I30
sg32
I42
sg33
(lp95
(lp96
I01
aI01
aI01
aI01
aI01
aI01
aI01
aI01
aI01
aI01
aI01
aI01
aI01
aI01
aI01
aI01
aI01
aI01
aI01
aI01
aI01
aI01
aa(lp97
I01
aI00
aI00
aI00
aI01
aI00
aI00
aI01
aI00
aI00
aI00
aI00
aI01
aI00
aI01
aI00
aI00
aI00
aI00
aI00
aI00
aI01
aa(lp98
I01
aI00
aI00
aI00
aI01
aI00
aI00
aI00
aI00
aI01
aI01
aI00
aI01
aI00
aI01
aI01
aI00
aI01
aI00
aI00
aI00
aI01
aa(lp99
I01
aI00
aI01
aI00
aI01
aI00
aI01
aI01
aI01
aI01
aI00
aI00
aI01
aI00
aI01
aI00
aI00
aI01
aI01
aI00
aI01
aI01
aa(lp100
I01
aI00
aI00
aI00
aI00
aI00
aI00
aI01
aI00
aI01
aI00
aI00
aI00
aI00
aI01
aI00
aI00
aI01
aI00
aI00
aI00
aI01
aa(lp101
I01
aI01
aI00
aI01
aI01
aI00
aI00
aI00
aI00
aI01
aI00
aI00
aI01
aI00
aI01
aI01
aI00
aI01
aI00
aI01
aI00
aI01
aa(lp102
I01
aI00
aI00
aI00
aI01
aI00
aI00
aI01
aI00
aI01
aI00
aI00
aI01
aI00
aI01
aI00
aI00
aI01
aI00
aI01
aI00
aI01
aa(lp103
I01
aI01
aI01
aI00
aI01
aI01
aI01
aI01
aI00
aI01
aI00
aI01
aI01
aI00
aI01
aI00
aI01
aI01
aI00
aI01
aI00
aI01
aa(lp104
I01
aI00
aI00
aI00
aI00
aI00
aI00
aI01
aI00
aI00
aI00
aI00
aI01
aI00
aI00
aI00
aI00
aI01
aI00
aI00
aI00
aI01
aa(lp105
I01
aI01
aI00
aI01
aI01
aI00
aI00
aI00
aI00
aI01
aI00
aI00
aI01
aI00
aI01
aI00
aI00
aI01
aI00
aI01
aI00
aI01
aa(lp106
I01
aI00
aI00
aI00
aI01
aI00
aI00
aI00
aI00
aI01
aI01
aI01
aI01
aI00
aI01
aI00
aI01
aI01
aI00
aI01
aI00
aI01
aa(lp107
I01
aI00
aI00
aI00
aI01
aI01
aI01
aI00
aI01
aI01
aI00
aI00
aI00
aI00
aI01
aI00
aI00
aI01
aI00
aI01
aI00
aI01
aa(lp108
I01
aI00
aI01
aI00
aI01
aI00
aI00
aI00
aI00
aI01
aI00
aI00
aI00
aI00
aI00
aI00
aI00
aI01
aI00
aI01
aI00
aI01
aa(lp109
I01
aI00
aI01
aI01
aI01
aI01
aI01
aI01
aI00
aI01
aI01
aI00
aI01
aI01
aI01
aI01
aI00
aI01
aI00
aI01
aI00
aI01
aa(lp110
I01
aI00
aI00
aI00
aI00
aI00
aI00
aI00
aI00
aI00
aI00
aI00
aI00
aI00
aI00
aI00
aI00
aI01
aI00
aI01
aI00
aI01
aa(lp111
I01
aI00
aI00
aI01
aI00
aI01
aI00
aI01
aI01
aI00
aI01
aI00
aI01
aI01
aI01
aI00
aI01
aI01
aI01
aI01
aI00
aI01
aa(lp112
I01
aI01
aI00
aI01
aI01
aI01
aI01
aI01
aI00
aI00
aI00
aI00
aI00
aI00
aI01
aI00
aI00
aI00
aI01
aI00
aI00
aI01
aa(lp113
I01
aI00
aI00
aI00
aI00
aI00
aI00
aI01
aI01
aI00
aI01
aI00
aI01
aI00
aI01
aI00
aI00
aI00
aI00
aI00
aI00
aI01
aa(lp114
I01
aI00
aI00
aI00
aI00
aI00
aI00
aI01
aI00
aI00
aI00
aI00
aI01
aI00
aI01
aI00
aI00
aI00
aI01
aI00
aI00
aI01
aa(lp115
I01
aI00
aI01
aI01
aI00
aI01
aI00
aI01
aI01
aI01
aI00
aI00
aI01
aI00
aI01
aI00
aI01
aI01
aI01
aI01
aI00
aI01
aa(lp116
I01
aI00
aI00
aI00
aI00
aI01
aI00
aI00
aI00
aI00
aI00
aI00
aI01
aI00
aI01
aI00
aI01
aI00
aI00
aI00
aI00
aI01
aa(lp117
I01
aI00
aI00
aI00
aI00
aI01
aI00
aI01
aI00
aI01
aI00
aI00
aI00
aI00
aI00
aI00
aI01
aI00
aI00
aI00
aI00
aI01
aa(lp118
I01
aI00
aI01
aI01
aI01
aI01
aI00
aI01
aI00
aI01
aI00
aI00
aI01
aI01
aI01
aI00
aI01
aI00
aI01
aI01
aI00
aI01
aa(lp119
I01
aI00
aI00
aI01
aI00
aI00
aI00
aI01
aI00
aI01
aI00
aI00
aI00
aI00
aI01
aI00
aI00
aI00
aI00
aI00
aI00
aI01
aa(lp120
I01
aI00
aI00
aI00
aI00
aI00
aI00
aI01
aI00
aI01
aI00
aI01
aI00
aI01
aI01
aI00
aI00
aI00
aI00
aI00
aI00
aI01
aa(lp121
I01
aI00
aI00
aI01
aI00
aI00
aI00
aI01
aI00
aI00
aI00
aI00
aI00
aI00
aI01
aI01
aI01
aI01
aI01
aI00
aI01
aI01
aa(lp122
I01
aI00
aI01
aI01
aI01
aI01
aI00
aI01
aI01
aI01
aI00
aI01
aI00
aI01
aI01
aI00
aI01
aI00
aI01
aI00
aI00
aI01
aa(lp123
I01
aI00
aI01
aI00
aI01
aI00
aI00
aI00
aI00
aI00
aI00
aI00
aI00
aI00
aI00
aI00
aI00
aI00
aI00
aI00
aI00
aI01
aa(lp124
I01
aI00
aI01
aI00
aI01
aI00
aI01
aI01
aI01
aI01
aI00
aI01
aI01
aI00
aI01
aI01
aI01
aI01
aI01
aI01
aI00
aI01
aa(lp125
I01
aI00
aI01
aI00
aI01
aI00
aI00
aI00
aI00
aI00
aI00
aI00
aI01
aI00
aI00
aI00
aI00
aI01
aI00
aI01
aI00
aI01
aa(lp126
I01
aI00
aI01
aI00
aI01
aI00
aI00
aI01
aI00
aI00
aI00
aI00
aI01
aI01
aI00
aI01
aI01
aI01
aI00
aI00
aI00
aI01
aa(lp127
I01
aI00
aI01
aI00
aI01
aI01
aI00
aI01
aI00
aI01
aI01
aI01
aI01
aI00
aI00
aI00
aI00
aI01
aI00
aI00
aI00
aI01
aa(lp128
I01
aI00
aI01
aI00
aI01
aI00
aI00
aI01
aI00
aI01
aI00
aI00
aI01
aI00
aI00
aI00
aI00
aI01
aI01
aI00
aI01
aI01
aa(lp129
I01
aI00
aI00
aI00
aI01
aI00
aI00
aI00
aI00
aI01
aI00
aI00
aI00
aI00
aI01
aI00
aI00
aI00
aI00
aI00
aI00
aI01
aa(lp130
I01
aI00
aI01
aI00
aI01
aI01
aI00
aI01
aI00
aI01
aI01
aI00
aI01
aI00
aI01
aI01
aI01
aI01
aI00
aI01
aI01
aI01
aa(lp131
I01
aI00
aI01
aI00
aI01
aI00
aI00
aI01
aI00
aI01
aI00
aI00
aI01
aI00
aI01
aI00
aI00
aI01
aI00
aI00
aI00
aI01
aa(lp132
I01
aI00
aI01
aI00
aI01
aI00
aI01
aI01
aI00
aI01
aI00
aI00
aI01
aI00
aI00
aI00
aI00
aI01
aI01
aI00
aI01
aI01
aa(lp133
I01
aI00
aI00
aI00
aI01
aI00
aI00
aI01
aI00
aI00
aI00
aI00
aI01
aI00
aI01
aI00
aI00
aI00
aI00
aI00
aI00
aI01
aa(lp134
I01
aI01
aI00
aI01
aI01
aI00
aI00
aI01
aI00
aI01
aI00
aI00
aI01
aI01
aI01
aI01
aI00
aI01
aI00
aI01
aI00
aI01
aa(lp135
I01
aI00
aI00
aI00
aI01
aI00
aI01
aI01
aI00
aI01
aI00
aI01
aI01
aI00
aI00
aI00
aI00
aI01
aI00
aI00
aI00
aI01
aa(lp136
I01
aI00
aI00
aI00
aI00
aI00
aI00
aI01
aI00
aI01
aI00
aI00
aI00
aI00
aI01
aI00
aI00
aI01
aI00
aI00
aI00
aI01
aa(lp137
I01
aI01
aI01
aI01
aI01
aI01
aI01
aI01
aI01
aI01
aI01
aI01
aI01
aI01
aI01
aI01
aI01
aI01
aI01
aI01
aI01
aI01
aasg77
I22
sbsS'layoutText'
p138
(lp139
S'%%%%%%%%%%%%%%%%%%%%%%%%%%%%%%%%%%%%%%%%%%'
p140
aS'%  % .   .   .          .% . .  %.%.%   6%'
p141
aS'%   o%%% %%%%%%%   %  %.   .%% .o %   % 4%'
p142
aS'%  %         ..%% %%  %. %% %.  %   %   2%'
p143
aS'% %%%%%%%%%%%%%%   %    .%. %%%%% %%% %%%%'
p144
aS'%      %  % .  %   %%%%  %% %.% ..%      %'
p145
aS'%.%  %       % .         %. %.%.  %  .% .%'
p146
aS'%%%%%%%% %%% % %%%%%% %%%%% % .  %%% %% %%'
p147
aS'%..       .  % %.     %.%.%   %      .% .%'
p148
aS'%%%% %%%%%%  % % %%%% %    .%%%%% %%%%%% %'
p149
aS'%      %..%             % % %  %      .%.%'
p150
aS'%.%.      %  % % %             %..%      %'
p151
aS'% %%%%%% %%%%%.    % %%%% % %  %%%%%% %%%%'
p152
aS'%. %.      %   %.%.%     .% %  .       ..%'
p153
aS'%% %% %%%  . % %%%%% %%%%%% % %%% %%%%%%%%'
p154
aS'%. %.  %  .%.% .%         . %       %  %.%'
p155
aS'%      %.. %.% %%  %%%%   %  . %  %      %'
p156
aS'%%%% %%% %%%%% .%.    %   %%%%%%%%%%%%%% %'
p157
aS'%1   %   %  .% %% .%  %% %%..         %  %'
p158
aS'%3 %   % o. %%.   .%  %   %%%%%%% %%%o   %'
p159
aS'%5   %.%.%  . . %.          .   .   . %  %'
p160
aS'%%%%%%%%%%%%%%%%%%%%%%%%%%%%%%%%%%%%%%%%%%'
p161
asbsS'actions'
p162
(lp163
(I0
S'East'
p164
tp165
a(I1
S'West'
p166
tp167
a(I2
g164
tp168
a(I3
S'South'
p169
tp170
a(I4
g164
tp171
a(I5
g166
tp172
a(I0
g164
tp173
a(I1
g166
tp174
a(I2
S'North'
p175
tp176
a(I3
g166
tp177
a(I4
g164
tp178
a(I5
g166
tp179
a(I0
g164
tp180
a(I1
g166
tp181
a(I2
g164
tp182
a(I3
g166
tp183
a(I4
g164
tp184
a(I5
g166
tp185
a(I0
g169
tp186
a(I1
g175
tp187
a(I2
g164
tp188
a(I3
g166
tp189
a(I4
g175
tp190
a(I5
g169
tp191
a(I0
g164
tp192
a(I1
g166
tp193
a(I2
g175
tp194
a(I3
g175
tp195
a(I4
g164
tp196
a(I5
g166
tp197
a(I0
g164
tp198
a(I1
g166
tp199
a(I2
g175
tp200
a(I3
g166
tp201
a(I4
g164
tp202
a(I5
g166
tp203
a(I0
g175
tp204
a(I1
g169
tp205
a(I2
g175
tp206
a(I3
g166
tp207
a(I4
g175
tp208
a(I5
g169
tp209
a(I0
g164
tp210
a(I1
g166
tp211
a(I2
g164
tp212
a(I3
g169
tp213
a(I4
g164
tp214
a(I5
g166
tp215
a(I0
g164
tp216
a(I1
g166
tp217
a(I2
g175
tp218
a(I3
g166
tp219
a(I4
g164
tp220
a(I5
g166
tp221
a(I0
g169
tp222
a(I1
g175
tp223
a(I2
g175
tp224
a(I3
g166
tp225
a(I4
g169
tp226
a(I5
g169
tp227
a(I0
g164
tp228
a(I1
g166
tp229
a(I2
g164
tp230
a(I3
g175
tp231
a(I4
g164
tp232
a(I5
g169
tp233
a(I0
g164
tp234
a(I1
g166
tp235
a(I2
g164
tp236
a(I3
g166
tp237
a(I4
g164
tp238
a(I5
g169
tp239
a(I0
g169
tp240
a(I1
g166
tp241
a(I2
g164
tp242
a(I3
g166
tp243
a(I4
g169
tp244
a(I5
g175
tp245
a(I0
g164
tp246
a(I1
g175
tp247
a(I2
g164
tp248
a(I3
g166
tp249
a(I4
g164
tp250
a(I5
g175
tp251
a(I0
g164
tp252
a(I1
g166
tp253
a(I2
g169
tp254
a(I3
g175
tp255
a(I4
g164
tp256
a(I5
g175
tp257
a(I0
g164
tp258
a(I1
g166
tp259
a(I2
g164
tp260
a(I3
g166
tp261
a(I4
g164
tp262
a(I5
g175
tp263
a(I0
g164
tp264
a(I1
g166
tp265
a(I2
g164
tp266
a(I3
g166
tp267
a(I4
g164
tp268
a(I5
g166
tp269
a(I0
g175
tp270
a(I1
g166
tp271
a(I2
g164
tp272
a(I3
g166
tp273
a(I4
g164
tp274
a(I5
g164
tp275
a(I0
g164
tp276
a(I1
g169
tp277
a(I2
g175
tp278
a(I3
g166
tp279
a(I4
g175
tp280
a(I5
g169
tp281
a(I0
g164
tp282
a(I1
g166
tp283
a(I2
g164
tp284
a(I3
g169
tp285
a(I4
g164
tp286
a(I5
g169
tp287
a(I0
g164
tp288
a(I1
g166
tp289
a(I2
g164
tp290
a(I3
g166
tp291
a(I4
g164
tp292
a(I5
g169
tp293
a(I0
g169
tp294
a(I1
g175
tp295
a(I2
S'Stop'
p296
tp297
a(I3
g166
tp298
a(I4
g164
tp299
a(I5
g166
tp300
a(I0
g164
tp301
a(I1
g166
tp302
a(I2
g296
tp303
a(I3
g175
tp304
a(I4
g169
tp305
a(I5
g169
tp306
a(I0
g164
tp307
a(I1
g166
tp308
a(I2
g296
tp309
a(I3
g166
tp310
a(I4
g164
tp311
a(I5
g166
tp312
a(I0
g164
tp313
a(I1
g166
tp314
a(I2
g296
tp315
a(I3
g166
tp316
a(I4
g164
tp317
a(I5
g169
tp318
a(I0
g164
tp319
a(I1
g166
tp320
a(I2
g296
tp321
a(I3
g166
tp322
a(I4
g164
tp323
a(I5
g166
tp324
a(I0
g164
tp325
a(I1
g166
tp326
a(I2
g296
tp327
a(I3
g166
tp328
a(I4
g164
tp329
a(I5
g166
tp330
a(I0
g164
tp331
a(I1
g166
tp332
a(I2
g296
tp333
a(I3
g166
tp334
a(I4
g164
tp335
a(I5
g169
tp336
a(I0
g164
tp337
a(I1
g166
tp338
a(I2
g296
tp339
a(I3
g166
tp340
a(I4
g164
tp341
a(I5
g166
tp342
a(I0
g164
tp343
a(I1
g166
tp344
a(I2
g296
tp345
a(I3
g166
tp346
a(I4
g164
tp347
a(I5
g166
tp348
a(I0
g164
tp349
a(I1
g166
tp350
a(I2
g296
tp351
a(I3
g169
tp352
a(I4
g164
tp353
a(I5
g169
tp354
a(I0
g164
tp355
a(I1
g166
tp356
a(I2
g296
tp357
a(I3
g169
tp358
a(I4
g164
tp359
a(I5
g169
tp360
a(I0
g164
tp361
a(I1
g166
tp362
a(I2
g296
tp363
a(I3
g169
tp364
a(I4
g164
tp365
a(I5
g169
tp366
a(I0
g164
tp367
a(I1
g166
tp368
a(I2
g296
tp369
a(I3
g169
tp370
a(I4
g164
tp371
a(I5
g169
tp372
a(I0
g164
tp373
a(I1
g166
tp374
a(I2
g296
tp375
a(I3
g169
tp376
a(I4
g164
tp377
a(I5
g169
tp378
a(I0
g164
tp379
a(I1
g166
tp380
a(I2
g296
tp381
a(I3
g296
tp382
a(I4
g164
tp383
a(I5
g169
tp384
a(I0
g164
tp385
a(I1
g166
tp386
a(I2
g296
tp387
a(I3
g166
tp388
a(I4
g164
tp389
a(I5
g169
tp390
a(I0
g164
tp391
a(I1
g166
tp392
a(I2
g296
tp393
a(I3
g166
tp394
a(I4
g164
tp395
a(I5
g166
tp396
a(I0
g164
tp397
a(I1
g166
tp398
a(I2
g296
tp399
a(I3
g166
tp400
a(I4
g164
tp401
a(I5
g166
tp402
a(I0
g164
tp403
a(I1
g166
tp404
a(I2
g296
tp405
a(I3
g175
tp406
a(I4
g164
tp407
a(I5
g166
tp408
a(I0
g164
tp409
a(I1
g166
tp410
a(I2
g296
tp411
a(I3
g166
tp412
a(I4
g164
tp413
a(I5
g296
tp414
a(I0
g164
tp415
a(I1
g166
tp416
a(I2
g296
tp417
a(I3
g166
tp418
a(I4
g164
tp419
a(I5
g169
tp420
a(I0
g175
tp421
a(I1
g169
tp422
a(I2
g296
tp423
a(I3
g169
tp424
a(I4
g175
tp425
a(I5
g175
tp426
a(I0
g164
tp427
a(I1
g166
tp428
a(I2
g296
tp429
a(I3
g169
tp430
a(I4
g164
tp431
a(I5
g166
tp432
a(I0
g164
tp433
a(I1
g166
tp434
a(I2
g296
tp435
a(I3
g169
tp436
a(I4
g164
tp437
a(I5
g166
tp438
a(I0
g175
tp439
a(I1
g166
tp440
a(I2
g296
tp441
a(I3
g166
tp442
a(I4
g164
tp443
a(I5
g166
tp444
a(I0
g164
tp445
a(I1
g169
tp446
a(I2
g296
tp447
a(I3
g166
tp448
a(I4
g175
tp449
a(I5
g166
tp450
a(I0
g175
tp451
a(I1
g169
tp452
a(I2
g296
tp453
a(I3
g166
tp454
a(I4
g175
tp455
a(I5
g166
tp456
a(I0
g175
tp457
a(I1
g169
tp458
a(I2
g296
tp459
a(I3
g166
tp460
a(I4
g175
tp461
a(I5
g166
tp462
a(I0
g175
tp463
a(I1
g169
tp464
a(I2
g296
tp465
a(I3
g166
tp466
a(I4
g166
tp467
a(I5
g169
tp468
a(I0
g169
tp469
a(I1
g175
tp470
a(I2
g296
tp471
a(I3
g166
tp472
a(I4
g166
tp473
a(I5
g166
tp474
a(I0
g166
tp475
a(I1
g175
tp476
a(I2
g296
tp477
a(I3
g166
tp478
a(I4
g166
tp479
a(I5
g169
tp480
a(I0
g166
tp481
a(I1
g175
tp482
a(I2
g296
tp483
a(I3
g166
tp484
a(I4
g166
tp485
a(I5
g169
tp486
a(I0
g166
tp487
a(I1
g175
tp488
a(I2
g296
tp489
a(I3
g166
tp490
a(I4
g166
tp491
a(I5
g164
tp492
a(I0
g166
tp493
a(I1
g164
tp494
a(I2
g166
tp495
a(I3
g166
tp496
a(I4
g175
tp497
a(I5
g169
tp498
a(I0
g166
tp499
a(I1
g164
tp500
a(I2
g166
tp501
a(I3
g166
tp502
a(I4
g166
tp503
a(I5
g166
tp504
a(I0
g175
tp505
a(I1
g164
tp506
a(I2
g169
tp507
a(I3
g164
tp508
a(I4
g166
tp509
a(I5
g169
tp510
a(I0
g166
tp511
a(I1
g169
tp512
a(I2
g166
tp513
a(I3
g164
tp514
a(I4
g175
tp515
a(I5
g175
tp516
a(I0
g166
tp517
a(I1
g164
tp518
a(I2
g166
tp519
a(I3
g164
tp520
a(I4
g175
tp521
a(I5
g166
tp522
a(I0
g175
tp523
a(I1
g164
tp524
a(I2
g166
tp525
a(I3
g169
tp526
a(I4
g166
tp527
a(I5
g166
tp528
a(I0
g175
tp529
a(I1
g164
tp530
a(I2
g164
tp531
a(I3
g169
tp532
a(I4
g166
tp533
a(I5
g166
tp534
a(I0
g164
tp535
a(I1
g164
tp536
a(I2
g164
tp537
a(I3
g169
tp538
a(I4
g166
tp539
a(I5
g169
tp540
a(I0
g164
tp541
a(I1
g164
tp542
a(I2
g164
tp543
a(I3
g166
tp544
a(I4
g166
tp545
a(I5
g296
tp546
a(I0
g164
tp547
a(I1
g164
tp548
a(I2
g166
tp549
a(I3
g175
tp550
a(I4
g169
tp551
a(I5
g166
tp552
a(I0
g164
tp553
a(I1
g166
tp554
a(I2
g166
tp555
a(I3
g166
tp556
a(I4
g169
tp557
a(I5
g166
tp558
a(I0
g164
tp559
a(I1
g164
tp560
a(I2
g166
tp561
a(I3
g166
tp562
a(I4
g169
tp563
a(I5
g296
tp564
a(I0
g164
tp565
a(I1
g164
tp566
a(I2
g164
tp567
a(I3
g169
tp568
a(I4
g166
tp569
a(I5
g166
tp570
a(I0
g164
tp571
a(I1
g164
tp572
a(I2
g164
tp573
a(I3
g296
tp574
a(I4
g166
tp575
a(I5
g166
tp576
a(I0
g166
tp577
a(I1
g164
tp578
a(I2
g164
tp579
a(I3
g296
tp580
a(I4
g175
tp581
a(I5
g175
tp582
a(I0
g166
tp583
a(I1
g164
tp584
a(I2
g166
tp585
a(I3
g169
tp586
a(I4
g166
tp587
a(I5
g166
tp588
a(I0
g166
tp589
a(I1
g166
tp590
a(I2
g166
tp591
a(I3
g169
tp592
a(I4
g166
tp593
a(I5
g166
tp594
a(I0
g175
tp595
a(I1
g166
tp596
a(I2
g166
tp597
a(I3
g164
tp598
a(I4
g166
tp599
a(I5
g175
tp600
a(I0
g175
tp601
a(I1
g166
tp602
a(I2
g169
tp603
a(I3
g169
tp604
a(I4
g166
tp605
a(I5
g175
tp606
a(I0
g175
tp607
a(I1
g166
tp608
a(I2
g169
tp609
a(I3
g169
tp610
a(I4
g166
tp611
a(I5
g175
tp612
a(I0
g164
tp613
a(I1
g166
tp614
a(I2
g296
tp615
a(I3
g166
tp616
a(I4
g166
tp617
a(I5
g164
tp618
a(I0
g169
tp619
a(I1
g166
tp620
a(I2
g164
tp621
a(I3
g164
tp622
a(I4
g166
tp623
a(I5
g175
tp624
a(I0
g164
tp625
a(I1
g175
tp626
a(I2
g175
tp627
a(I3
g169
tp628
a(I4
g175
tp629
a(I5
g164
tp630
a(I0
g164
tp631
a(I1
g175
tp632
a(I2
g164
tp633
a(I3
g164
tp634
a(I4
g175
tp635
a(I5
g175
tp636
a(I0
g175
tp637
a(I1
g164
tp638
a(I2
g164
tp639
a(I3
g164
tp640
a(I4
g164
tp641
a(I5
g166
tp642
a(I0
g175
tp643
a(I1
g164
tp644
a(I2
g175
tp645
a(I3
g175
tp646
a(I4
g164
tp647
a(I5
g175
tp648
a(I0
g175
tp649
a(I1
g164
tp650
a(I2
g175
tp651
a(I3
g164
tp652
a(I4
g164
tp653
a(I5
g166
tp654
a(I0
g166
tp655
a(I1
g164
tp656
a(I2
g164
tp657
a(I3
g175
tp658
a(I4
g164
tp659
a(I5
g166
tp660
a(I0
g175
tp661
a(I1
g164
tp662
a(I2
g175
tp663
a(I3
g175
tp664
a(I4
g164
tp665
a(I5
g166
tp666
a(I0
g175
tp667
a(I1
g164
tp668
a(I2
g175
tp669
a(I3
g164
tp670
a(I4
g175
tp671
a(I5
g164
tp672
a(I0
g164
tp673
a(I1
g164
tp674
a(I2
g175
tp675
a(I3
g164
tp676
a(I4
g175
tp677
a(I5
g164
tp678
a(I0
g175
tp679
a(I1
g164
tp680
a(I2
g164
tp681
a(I3
g164
tp682
a(I4
g175
tp683
a(I5
g164
tp684
a(I0
g166
tp685
a(I1
g169
tp686
a(I2
g164
tp687
a(I3
g164
tp688
a(I4
g175
tp689
a(I5
g169
tp690
a(I0
g166
tp691
a(I1
g164
tp692
a(I2
g164
tp693
a(I3
g169
tp694
a(I4
g175
tp695
a(I5
g164
tp696
a(I0
g166
tp697
a(I1
g169
tp698
a(I2
g164
tp699
a(I3
g164
tp700
a(I4
g169
tp701
a(I5
g169
tp702
a(I0
g169
tp703
a(I1
g169
tp704
a(I2
g169
tp705
a(I3
g164
tp706
a(I4
g164
tp707
a(I5
g169
tp708
a(I0
g166
tp709
a(I1
g169
tp710
a(I2
g164
tp711
a(I3
g164
tp712
a(I4
g164
tp713
a(I5
g296
tp714
a(I0
g169
tp715
a(I1
g169
tp716
a(I2
g164
tp717
a(I3
g175
tp718
a(I4
g175
tp719
a(I5
g175
tp720
a(I0
g169
tp721
a(I1
g164
tp722
a(I2
g164
tp723
a(I3
g164
tp724
a(I4
g175
tp725
a(I5
g175
tp726
a(I0
g164
tp727
a(I1
g164
tp728
a(I2
g175
tp729
a(I3
g164
tp730
a(I4
g175
tp731
a(I5
g164
tp732
a(I0
g166
tp733
a(I1
g164
tp734
a(I2
g164
tp735
a(I3
g175
tp736
a(I4
g166
tp737
a(I5
g296
tp738
a(I0
g166
tp739
a(I1
g164
tp740
a(I2
g164
tp741
a(I3
g164
tp742
a(I4
g164
tp743
a(I5
g166
tp744
a(I0
g166
tp745
a(I1
g169
tp746
a(I2
g175
tp747
a(I3
g164
tp748
a(I4
g175
tp749
a(I5
g164
tp750
a(I0
g166
tp751
a(I1
g169
tp752
a(I2
g164
tp753
a(I3
g164
tp754
a(I4
g175
tp755
a(I5
g164
tp756
a(I0
g169
tp757
a(I1
g166
tp758
a(I2
g164
tp759
a(I3
g164
tp760
a(I4
g166
tp761
a(I5
g175
tp762
a(I0
g169
tp763
a(I1
g166
tp764
a(I2
g164
tp765
a(I3
g169
tp766
a(I4
g164
tp767
a(I5
g164
tp768
a(I0
g169
tp769
a(I1
g164
tp770
a(I2
g164
tp771
a(I3
g175
tp772
a(I4
g175
tp773
a(I5
g164
tp774
a(I0
g166
tp775
a(I1
g164
tp776
a(I2
g166
tp777
a(I3
g166
tp778
a(I4
g175
tp779
a(I5
g175
tp780
a(I0
g175
tp781
a(I1
g166
tp782
a(I2
g166
tp783
a(I3
g169
tp784
a(I4
g175
tp785
a(I5
g175
tp786
a(I0
g164
tp787
a(I1
g166
tp788
a(I2
g166
tp789
a(I3
g166
tp790
a(I4
g164
tp791
a(I5
g175
tp792
a(I0
g175
tp793
a(I1
g164
tp794
a(I2
g166
tp795
a(I3
g166
tp796
a(I4
g164
tp797
a(I5
g175
tp798
a(I0
g175
tp799
a(I1
g164
tp800
a(I2
g175
tp801
a(I3
g169
tp802
a(I4
g164
tp803
a(I5
g175
tp804
a(I0
g166
tp805
a(I1
g166
tp806
a(I2
g175
tp807
a(I3
g169
tp808
a(I4
g169
tp809
a(I5
g175
tp810
a(I0
g175
tp811
a(I1
g166
tp812
a(I2
g175
tp813
a(I3
g166
tp814
a(I4
g164
tp815
a(I5
g175
tp816
a(I0
g175
tp817
a(I1
g164
tp818
a(I2
g175
tp819
a(I3
g169
tp820
a(I4
g164
tp821
a(I5
g296
tp822
a(I0
g166
tp823
a(I1
g166
tp824
a(I2
g175
tp825
a(I3
g169
tp826
a(I4
g164
tp827
a(I5
g164
tp828
a(I0
g169
tp829
a(I1
g166
tp830
a(I2
g175
tp831
a(I3
g169
tp832
a(I4
g175
tp833
a(I5
g164
tp834
a(I0
g166
tp835
a(I1
g166
tp836
a(I2
g164
tp837
a(I3
g166
tp838
a(I4
g169
tp839
a(I5
g164
tp840
a(I0
g166
tp841
a(I1
g166
tp842
a(I2
g164
tp843
a(I3
g166
tp844
a(I4
g169
tp845
a(I5
g164
tp846
a(I0
g175
tp847
a(I1
g169
tp848
a(I2
g164
tp849
a(I3
g166
tp850
a(I4
g169
tp851
a(I5
g164
tp852
a(I0
g175
tp853
a(I1
g169
tp854
a(I2
g164
tp855
a(I3
g166
tp856
a(I4
g169
tp857
a(I5
g164
tp858
a(I0
g169
tp859
a(I1
g169
tp860
a(I2
g164
tp861
a(I3
g175
tp862
a(I4
g169
tp863
a(I5
g164
tp864
a(I0
g169
tp865
a(I1
g169
tp866
a(I2
g166
tp867
a(I3
g175
tp868
a(I4
g166
tp869
a(I5
g169
tp870
a(I0
g169
tp871
a(I1
g169
tp872
a(I2
g166
tp873
a(I3
g175
tp874
a(I4
g175
tp875
a(I5
g169
tp876
a(I0
g166
tp877
a(I1
g175
tp878
a(I2
g166
tp879
a(I3
g166
tp880
a(I4
g166
tp881
a(I5
g169
tp882
a(I0
g166
tp883
a(I1
g166
tp884
a(I2
g166
tp885
a(I3
g166
tp886
a(I4
g169
tp887
a(I5
g169
tp888
a(I0
g169
tp889
a(I1
g166
tp890
a(I2
g166
tp891
a(I3
g166
tp892
a(I4
g169
tp893
a(I5
g164
tp894
a(I0
g166
tp895
a(I1
g169
tp896
a(I2
g169
tp897
a(I3
g169
tp898
a(I4
g164
tp899
a(I5
g164
tp900
a(I0
g166
tp901
a(I1
g169
tp902
a(I2
g169
tp903
a(I3
g166
tp904
a(I4
g169
tp905
a(I5
g175
tp906
a(I0
g166
tp907
a(I1
g169
tp908
a(I2
g169
tp909
a(I3
g166
tp910
a(I4
g164
tp911
a(I5
g164
tp912
a(I0
g166
tp913
a(I1
g164
tp914
a(I2
g169
tp915
a(I3
g169
tp916
a(I4
g169
tp917
a(I5
g166
tp918
a(I0
g175
tp919
a(I1
g166
tp920
a(I2
g169
tp921
a(I3
g166
tp922
a(I4
g169
tp923
a(I5
g166
tp924
a(I0
g169
tp925
a(I1
g169
tp926
a(I2
g169
tp927
a(I3
g166
tp928
a(I4
g166
tp929
a(I5
g166
tp930
a(I0
g169
tp931
a(I1
g169
tp932
a(I2
g169
tp933
a(I3
g169
tp934
a(I4
g169
tp935
a(I5
g169
tp936
a(I0
g166
tp937
a(I1
g164
tp938
a(I2
g169
tp939
a(I3
g169
tp940
a(I4
g164
tp941
a(I5
g166
tp942
a(I0
g166
tp943
a(I1
g166
tp944
a(I2
g169
tp945
a(I3
g169
tp946
a(I4
g175
tp947
a(I5
g166
tp948
a(I0
g175
tp949
a(I1
g296
tp950
a(I2
g169
tp951
a(I3
g166
tp952
a(I4
g164
tp953
a(I5
g169
tp954
a(I0
g175
tp955
a(I1
g169
tp956
a(I2
g169
tp957
a(I3
g169
tp958
a(I4
g164
tp959
a(I5
g166
tp960
a(I0
g175
tp961
a(I1
g169
tp962
a(I2
g169
tp963
a(I3
g169
tp964
a(I4
g169
tp965
a(I5
g166
tp966
a(I0
g175
tp967
a(I1
g169
tp968
a(I2
g169
tp969
a(I3
g164
tp970
a(I4
g164
tp971
a(I5
g169
tp972
a(I0
g164
tp973
a(I1
g166
tp974
a(I2
g169
tp975
a(I3
g169
tp976
a(I4
g175
tp977
a(I5
g169
tp978
a(I0
g164
tp979
a(I1
g166
tp980
a(I2
g166
tp981
a(I3
g169
tp982
a(I4
g164
tp983
a(I5
g166
tp984
a(I0
g175
tp985
a(I1
g166
tp986
a(I2
g166
tp987
a(I3
g164
tp988
a(I4
g164
tp989
a(I5
g169
tp990
a(I0
g175
tp991
a(I1
g175
tp992
a(I2
g166
tp993
a(I3
g164
tp994
a(I4
g169
tp995
a(I5
g169
tp996
a(I0
g175
tp997
a(I1
g175
tp998
a(I2
g175
tp999
a(I3
g169
tp1000
a(I4
g164
tp1001
a(I5
g169
tp1002
a(I0
g175
tp1003
a(I1
g164
tp1004
a(I2
g175
tp1005
a(I3
g164
tp1006
a(I4
g164
tp1007
a(I5
g164
tp1008
a(I0
g175
tp1009
a(I1
g166
tp1010
a(I2
g166
tp1011
a(I3
g164
tp1012
a(I4
g175
tp1013
a(I5
g169
tp1014
a(I0
g164
tp1015
a(I1
g166
tp1016
a(I2
g169
tp1017
a(I3
g164
tp1018
a(I4
g175
tp1019
a(I5
g169
tp1020
a(I0
g169
tp1021
a(I1
g166
tp1022
a(I2
g166
tp1023
a(I3
g164
tp1024
a(I4
g175
tp1025
a(I5
g164
tp1026
a(I0
g169
tp1027
a(I1
g166
tp1028
a(I2
g166
tp1029
a(I3
g164
tp1030
a(I4
g166
tp1031
a(I5
g164
tp1032
a(I0
g169
tp1033
a(I1
g169
tp1034
a(I2
g175
tp1035
a(I3
g175
tp1036
a(I4
g175
tp1037
a(I5
g169
tp1038
a(I0
g169
tp1039
a(I1
g169
tp1040
a(I2
g175
tp1041
a(I3
g175
tp1042
a(I4
g175
tp1043
a(I5
g164
tp1044
a(I0
g169
tp1045
a(I1
g164
tp1046
a(I2
g175
tp1047
a(I3
g175
tp1048
a(I4
g175
tp1049
a(I5
g164
tp1050
a(I0
g175
tp1051
a(I1
g164
tp1052
a(I2
g164
tp1053
a(I3
g166
tp1054
a(I4
g175
tp1055
a(I5
g175
tp1056
a(I0
g175
tp1057
a(I1
g166
tp1058
a(I2
g175
tp1059
a(I3
g175
tp1060
a(I4
g169
tp1061
a(I5
g166
tp1062
a(I0
g175
tp1063
a(I1
g166
tp1064
a(I2
g175
tp1065
a(I3
g175
tp1066
a(I4
g164
tp1067
a(I5
g166
tp1068
a(I0
g175
tp1069
a(I1
g175
tp1070
a(I2
g175
tp1071
a(I3
g175
tp1072
a(I4
g164
tp1073
a(I5
g166
tp1074
a(I0
g164
tp1075
a(I1
g175
tp1076
a(I2
g166
tp1077
a(I3
g166
tp1078
a(I4
g164
tp1079
a(I5
g166
tp1080
a(I0
g164
tp1081
a(I1
g175
tp1082
a(I2
g175
tp1083
a(I3
g166
tp1084
a(I4
g175
tp1085
a(I5
g175
tp1086
a(I0
g175
tp1087
a(I1
g166
tp1088
a(I2
g175
tp1089
a(I3
g175
tp1090
a(I4
g164
tp1091
a(I5
g175
tp1092
a(I0
g164
tp1093
a(I1
g166
tp1094
a(I2
g175
tp1095
a(I3
g175
tp1096
a(I4
g164
tp1097
a(I5
g166
tp1098
a(I0
g164
tp1099
a(I1
g169
tp1100
a(I2
g164
tp1101
a(I3
g175
tp1102
a(I4
g175
tp1103
a(I5
g175
tp1104
a(I0
g164
tp1105
a(I1
g166
tp1106
a(I2
g169
tp1107
a(I3
g166
tp1108
a(I4
g164
tp1109
a(I5
g175
tp1110
a(I0
g164
tp1111
a(I1
g166
tp1112
a(I2
g166
tp1113
a(I3
g166
tp1114
a(I4
g164
tp1115
a(I5
g175
tp1116
a(I0
g169
tp1117
a(I1
g175
tp1118
a(I2
g169
tp1119
a(I3
g169
tp1120
a(I4
g169
tp1121
a(I5
g164
tp1122
a(I0
g164
tp1123
a(I1
g166
tp1124
a(I2
g169
tp1125
a(I3
g166
tp1126
a(I4
g164
tp1127
a(I5
g175
tp1128
a(I0
g169
tp1129
a(I1
g166
tp1130
a(I2
g164
tp1131
a(I3
g166
tp1132
a(I4
g164
tp1133
a(I5
g175
tp1134
a(I0
g166
tp1135
a(I1
g166
tp1136
a(I2
g169
tp1137
a(I3
g175
tp1138
a(I4
g169
tp1139
a(I5
g175
tp1140
a(I0
g164
tp1141
a(I1
g164
tp1142
a(I2
g164
tp1143
a(I3
g166
tp1144
a(I4
g164
tp1145
a(I5
g166
tp1146
a(I0
g166
tp1147
a(I1
g166
tp1148
a(I2
g175
tp1149
a(I3
g166
tp1150
a(I4
g164
tp1151
a(I5
g166
tp1152
a(I0
g164
tp1153
a(I1
g169
tp1154
a(I2
g166
tp1155
a(I3
g169
tp1156
a(I4
g164
tp1157
a(I5
g166
tp1158
a(I0
g169
tp1159
a(I1
g175
tp1160
a(I2
g169
tp1161
a(I3
g166
tp1162
a(I4
g164
tp1163
a(I5
g175
tp1164
a(I0
g169
tp1165
a(I1
g175
tp1166
a(I2
g164
tp1167
a(I3
g175
tp1168
a(I4
g164
tp1169
a(I5
g166
tp1170
a(I0
g164
tp1171
a(I1
g166
tp1172
a(I2
g175
tp1173
a(I3
g175
tp1174
a(I4
g175
tp1175
a(I5
g166
tp1176
a(I0
g164
tp1177
a(I1
g166
tp1178
a(I2
g166
tp1179
a(I3
g166
tp1180
a(I4
g164
tp1181
a(I5
g166
tp1182
a(I0
g164
tp1183
a(I1
g166
tp1184
a(I2
g169
tp1185
a(I3
g166
tp1186
a(I4
g164
tp1187
a(I5
g169
tp1188
a(I0
g175
tp1189
a(I1
g169
tp1190
a(I2
g164
tp1191
a(I3
g166
tp1192
a(I4
g169
tp1193
a(I5
g166
tp1194
a(I0
g164
tp1195
a(I1
g166
tp1196
a(I2
g175
tp1197
a(I3
g169
tp1198
a(I4
g164
tp1199
a(I5
g166
tp1200
a(I0
g164
tp1201
a(I1
g166
tp1202
a(I2
g166
tp1203
a(I3
g166
tp1204
a(I4
g164
tp1205
a(I5
g166
tp1206
a(I0
g175
tp1207
a(I1
g166
tp1208
a(I2
g169
tp1209
a(I3
g166
tp1210
a(I4
g164
tp1211
a(I5
g166
tp1212
a(I0
g164
tp1213
a(I1
g166
tp1214
a(I2
g164
tp1215
a(I3
g166
tp1216
a(I4
g164
tp1217
a(I5
g169
tp1218
a(I0
g164
tp1219
a(I1
g169
tp1220
a(I2
g175
tp1221
a(I3
g166
tp1222
a(I4
g164
tp1223
a(I5
g169
tp1224
a(I0
g169
tp1225
a(I1
g169
tp1226
a(I2
g166
tp1227
a(I3
g169
tp1228
a(I4
g164
tp1229
a(I5
g169
tp1230
a(I0
g164
tp1231
a(I1
g169
tp1232
a(I2
g169
tp1233
a(I3
g169
tp1234
a(I4
g164
tp1235
a(I5
g169
tp1236
a(I0
g164
tp1237
a(I1
g169
tp1238
a(I2
g164
tp1239
a(I3
g169
tp1240
a(I4
g164
tp1241
a(I5
g166
tp1242
a(I0
g169
tp1243
a(I1
g166
tp1244
a(I2
g175
tp1245
a(I3
g169
tp1246
a(I4
g164
tp1247
a(I5
g166
tp1248
a(I0
g164
tp1249
a(I1
g166
tp1250
a(I2
g166
tp1251
a(I3
g166
tp1252
a(I4
g164
tp1253
a(I5
g169
tp1254
a(I0
g164
tp1255
a(I1
g169
tp1256
a(I2
g169
tp1257
a(I3
g166
tp1258
a(I4
g164
tp1259
a(I5
g169
tp1260
a(I0
g164
tp1261
a(I1
g169
tp1262
a(I2
g164
tp1263
a(I3
g169
tp1264
a(I4
g164
tp1265
a(I5
g169
tp1266
a(I0
g164
tp1267
a(I1
g169
tp1268
a(I2
g175
tp1269
a(I3
g169
tp1270
a(I4
g164
tp1271
a(I5
g169
tp1272
a(I0
g164
tp1273
a(I1
g169
tp1274
a(I2
g166
tp1275
a(I3
g169
tp1276
a(I4
g164
tp1277
a(I5
g169
tp1278
a(I0
g175
tp1279
a(I1
g166
tp1280
a(I2
g169
tp1281
a(I3
g169
tp1282
a(I4
g164
tp1283
a(I5
g166
tp1284
a(I0
g164
tp1285
a(I1
g169
tp1286
a(I2
g164
tp1287
a(I3
g166
tp1288
a(I4
g164
tp1289
a(I5
g169
tp1290
a(I0
g164
tp1291
a(I1
g169
tp1292
a(I2
g175
tp1293
a(I3
g169
tp1294
a(I4
g175
tp1295
a(I5
g169
tp1296
a(I0
g169
tp1297
a(I1
g169
tp1298
a(I2
g166
tp1299
a(I3
g169
tp1300
a(I4
g175
tp1301
a(I5
g169
tp1302
a(I0
g164
tp1303
a(I1
g169
tp1304
a(I2
g169
tp1305
a(I3
g169
tp1306
a(I4
g166
tp1307
a(I5
g169
tp1308
a(I0
g164
tp1309
a(I1
g169
tp1310
a(I2
g164
tp1311
a(I3
g169
tp1312
a(I4
g166
tp1313
a(I5
g164
tp1314
a(I0
g164
tp1315
a(I1
g164
tp1316
a(I2
g175
tp1317
a(I3
g169
tp1318
a(I4
g166
tp1319
a(I5
g164
tp1320
a(I0
g164
tp1321
a(I1
g166
tp1322
a(I2
g166
tp1323
a(I3
g166
tp1324
a(I4
g166
tp1325
a(I5
g164
tp1326
a(I0
g164
tp1327
a(I1
g166
tp1328
a(I2
g169
tp1329
a(I3
g166
tp1330
a(I4
g166
tp1331
as.
