ccopy_reg
_reconstructor
p0
(cutil
Counter
p1
c__builtin__
dict
p2
(dp3
S'isNewState'
p4
F3.1663761953127469
sS'mazeDistToClosestEnemyOnTeamSide'
p5
F2.000019041306826
sS'numNewStatesLeft'
p6
F-2.7974471128729856
sS'mazeDistToClosestAlly'
p7
F-4.4532404466927087
sS'mazeDistToClosestEnemyCapsule'
p8
F13.645246968969303
sS'numEnemiesEaten'
p9
F10.0
sS'numTeamFoodLeft'
p10
F25.362705983292383
sS'minFoodDist'
p11
F12.634686200341323
sS'numFoodLeft'
p12
F-13.707769011099234
sS'mazeDistToClosestEnemyOnEnemySide'
p13
F-0.99627715701431474
stp14
Rp15
.