ccopy_reg
_reconstructor
p0
(cutil
Counter
p1
c__builtin__
dict
p2
(dp3
S'isNewState'
p4
F5.96920369834201
sS'mazeDistToClosestEnemyOnTeamSide'
p5
F1.9619813075640333
sS'numNewStatesLeft'
p6
F-0.45852360434926565
sS'mazeDistToClosestAlly'
p7
F-6.478607566750672
sS'mazeDistToClosestEnemyCapsule'
p8
F3.1937084620540634
sS'numEnemiesEaten'
p9
F-0.8010342040309046
sS'numTeamFoodLeft'
p10
F15.509440617228298
sS'minFoodDist'
p11
F6.854004792252919
sS'numFoodLeft'
p12
F-12.662448122460846
sS'mazeDistToClosestEnemyOnEnemySide'
p13
F-9.393631175763225
stp14
Rp15
.