ccopy_reg
_reconstructor
p0
(cutil
Counter
p1
c__builtin__
dict
p2
(dp3
S'isNewState'
p4
F3.8240429442322608
sS'mazeDistToClosestEnemyOnTeamSide'
p5
F1.4184844654354174
sS'numNewStatesLeft'
p6
F-6.562657862868802
sS'mazeDistToClosestAlly'
p7
F-2.49166565734871
sS'mazeDistToClosestEnemyCapsule'
p8
F12.67171509753912
sS'numEnemiesEaten'
p9
F-2.116943532459596
sS'numTeamFoodLeft'
p10
F18.51311381798522
sS'minFoodDist'
p11
F1.7544001695435003
sS'numFoodLeft'
p12
F-14.705104297973163
sS'mazeDistToClosestEnemyOnEnemySide'
p13
F-3.2487735073287234
stp14
Rp15
.