ccopy_reg
_reconstructor
p0
(cutil
Counter
p1
c__builtin__
dict
p2
(dp3
S'isNewState'
p4
F5.259887018740873
sS'mazeDistToClosestEnemyOnTeamSide'
p5
F1.7620520191868805
sS'numNewStatesLeft'
p6
F-2.9080899988036473
sS'mazeDistToClosestAlly'
p7
F-6.714871103873146
sS'mazeDistToClosestEnemyCapsule'
p8
F6.814526963969888
sS'numEnemiesEaten'
p9
F-2.2461865913369015
sS'numTeamFoodLeft'
p10
F15.026598908635398
sS'minFoodDist'
p11
F7.356570916303427
sS'numFoodLeft'
p12
F-14.975518568598575
sS'mazeDistToClosestEnemyOnEnemySide'
p13
F-6.4646200487619065
stp14
Rp15
.