ccopy_reg
_reconstructor
p0
(cutil
Counter
p1
c__builtin__
dict
p2
(dp3
S'isNewState'
p4
F4.148292749713855
sS'mazeDistToClosestEnemyOnTeamSide'
p5
F0.2933334468253181
sS'numNewStatesLeft'
p6
F-7.664262864672367
sS'mazeDistToClosestAlly'
p7
F-3.963191432652245
sS'mazeDistToClosestEnemyCapsule'
p8
F9.244970188688923
sS'numEnemiesEaten'
p9
F-2.297521184465464
sS'numTeamFoodLeft'
p10
F19.856612799372126
sS'minFoodDist'
p11
F2.7803135084984896
sS'numFoodLeft'
p12
F-13.334565482124594
sS'mazeDistToClosestEnemyOnEnemySide'
p13
F-7.907824430841756
stp14
Rp15
.