(dp1
S'layout'
p2
(ilayout
Layout
p3
(dp4
S'capsules'
p5
(lp6
(I19
I3
tp7
a(I14
I14
tp8
asS'numGhosts'
p9
I4
sS'food'
p10
(igame
Grid
p11
(dp12
S'CELLS_PER_INT'
p13
I30
sS'width'
p14
I34
sS'data'
p15
(lp16
(lp17
I00
aI00
aI00
aI00
aI00
aI00
aI00
aI00
aI00
aI00
aI00
aI00
aI00
aI00
aI00
aI00
aI00
aI00
aa(lp18
I00
aI00
aI00
aI00
aI00
aI00
aI00
aI00
aI01
aI01
aI00
aI00
aI00
aI00
aI01
aI00
aI01
aI00
aa(lp19
I00
aI00
aI00
aI00
aI00
aI00
aI00
aI00
aI00
aI00
aI00
aI00
aI00
aI00
aI01
aI00
aI01
aI00
aa(lp20
I00
aI00
aI00
aI00
aI00
aI00
aI00
aI00
aI00
aI01
aI00
aI00
aI01
aI00
aI00
aI00
aI00
aI00
aa(lp21
I00
aI00
aI00
aI00
aI00
aI00
aI01
aI00
aI00
aI00
aI00
aI00
aI00
aI00
aI01
aI00
aI00
aI00
aa(lp22
I00
aI00
aI00
aI00
aI00
aI00
aI00
aI00
aI00
aI01
aI00
aI01
aI00
aI00
aI00
aI00
aI00
aI00
aa(lp23
I00
aI00
aI00
aI00
aI00
aI00
aI01
aI00
aI00
aI00
aI00
aI01
aI01
aI00
aI00
aI00
aI00
aI00
aa(lp24
I00
aI00
aI00
aI00
aI00
aI00
aI00
aI00
aI00
aI00
aI00
aI00
aI00
aI00
aI00
aI00
aI00
aI00
aa(lp25
I00
aI00
aI00
aI00
aI00
aI00
aI01
aI00
aI01
aI01
aI00
aI00
aI01
aI00
aI00
aI00
aI00
aI00
aa(lp26
I00
aI00
aI00
aI00
aI00
aI01
aI00
aI00
aI00
aI00
aI00
aI00
aI00
aI00
aI00
aI00
aI00
aI00
aa(lp27
I00
aI00
aI01
aI00
aI00
aI00
aI00
aI00
aI00
aI00
aI00
aI00
aI01
aI00
aI00
aI00
aI00
aI00
aa(lp28
I00
aI00
aI00
aI00
aI00
aI00
aI00
aI00
aI00
aI00
aI00
aI00
aI00
aI00
aI00
aI00
aI01
aI00
aa(lp29
I00
aI00
aI00
aI01
aI00
aI00
aI00
aI00
aI01
aI00
aI00
aI00
aI00
aI00
aI00
aI00
aI00
aI00
aa(lp30
I00
aI00
aI00
aI00
aI00
aI00
aI00
aI00
aI00
aI00
aI00
aI00
aI01
aI00
aI00
aI00
aI00
aI00
aa(lp31
I00
aI00
aI00
aI01
aI01
aI00
aI00
aI00
aI00
aI00
aI00
aI00
aI00
aI00
aI00
aI00
aI00
aI00
aa(lp32
I00
aI00
aI00
aI00
aI00
aI00
aI00
aI00
aI00
aI00
aI00
aI00
aI00
aI00
aI00
aI00
aI00
aI00
aa(lp33
I00
aI00
aI00
aI00
aI00
aI01
aI00
aI00
aI00
aI00
aI01
aI00
aI00
aI00
aI00
aI00
aI00
aI00
aa(lp34
I00
aI00
aI00
aI00
aI00
aI00
aI00
aI01
aI00
aI00
aI00
aI00
aI01
aI00
aI00
aI00
aI00
aI00
aa(lp35
I00
aI00
aI00
aI00
aI00
aI00
aI00
aI00
aI00
aI00
aI00
aI00
aI00
aI00
aI00
aI00
aI00
aI00
aa(lp36
I00
aI00
aI00
aI00
aI00
aI00
aI00
aI00
aI00
aI00
aI00
aI00
aI00
aI01
aI01
aI00
aI00
aI00
aa(lp37
I00
aI00
aI00
aI00
aI00
aI01
aI00
aI00
aI00
aI00
aI00
aI00
aI00
aI00
aI00
aI00
aI00
aI00
aa(lp38
I00
aI00
aI00
aI00
aI00
aI00
aI00
aI00
aI00
aI01
aI00
aI00
aI00
aI00
aI01
aI00
aI00
aI00
aa(lp39
I00
aI01
aI00
aI00
aI00
aI00
aI00
aI00
aI00
aI00
aI00
aI00
aI00
aI00
aI00
aI00
aI00
aI00
aa(lp40
I00
aI00
aI00
aI00
aI00
aI01
aI00
aI00
aI00
aI00
aI00
aI00
aI00
aI00
aI00
aI01
aI00
aI00
aa(lp41
I00
aI00
aI00
aI00
aI00
aI00
aI00
aI00
aI00
aI00
aI00
aI00
aI01
aI00
aI00
aI00
aI00
aI00
aa(lp42
I00
aI00
aI00
aI00
aI00
aI01
aI00
aI00
aI01
aI01
aI00
aI01
aI00
aI00
aI00
aI00
aI00
aI00
aa(lp43
I00
aI00
aI00
aI00
aI00
aI00
aI00
aI00
aI00
aI00
aI00
aI00
aI00
aI00
aI00
aI00
aI00
aI00
aa(lp44
I00
aI00
aI00
aI00
aI00
aI01
aI01
aI00
aI00
aI00
aI00
aI01
aI00
aI00
aI00
aI00
aI00
aI00
aa(lp45
I00
aI00
aI00
aI00
aI00
aI00
aI01
aI00
aI01
aI00
aI00
aI00
aI00
aI00
aI00
aI00
aI00
aI00
aa(lp46
I00
aI00
aI00
aI01
aI00
aI00
aI00
aI00
aI00
aI00
aI00
aI01
aI00
aI00
aI00
aI00
aI00
aI00
aa(lp47
I00
aI00
aI00
aI00
aI00
aI01
aI00
aI00
aI01
aI00
aI00
aI00
aI00
aI00
aI00
aI00
aI00
aI00
aa(lp48
I00
aI01
aI00
aI01
aI00
aI00
aI00
aI00
aI00
aI00
aI00
aI00
aI00
aI00
aI00
aI00
aI00
aI00
aa(lp49
I00
aI01
aI00
aI01
aI00
aI00
aI00
aI00
aI01
aI01
aI00
aI00
aI00
aI00
aI00
aI00
aI00
aI00
aa(lp50
I00
aI00
aI00
aI00
aI00
aI00
aI00
aI00
aI00
aI00
aI00
aI00
aI00
aI00
aI00
aI00
aI00
aI00
aasS'height'
p51
I18
sbsS'agentPositions'
p52
(lp53
(I00
(I1
I2
tp54
tp55
a(I00
(I32
I15
tp56
tp57
a(I00
(I1
I1
tp58
tp59
a(I00
(I32
I16
tp60
tp61
asg51
I18
sg14
I34
sS'walls'
p62
(igame
Grid
p63
(dp64
g13
I30
sg14
I34
sg15
(lp65
(lp66
I01
aI01
aI01
aI01
aI01
aI01
aI01
aI01
aI01
aI01
aI01
aI01
aI01
aI01
aI01
aI01
aI01
aI01
aa(lp67
I01
aI00
aI00
aI00
aI00
aI00
aI00
aI00
aI00
aI00
aI01
aI00
aI00
aI01
aI00
aI01
aI00
aI01
aa(lp68
I01
aI01
aI01
aI01
aI01
aI01
aI00
aI01
aI01
aI01
aI01
aI00
aI00
aI01
aI00
aI01
aI00
aI01
aa(lp69
I01
aI00
aI00
aI00
aI00
aI00
aI00
aI01
aI00
aI00
aI01
aI00
aI00
aI01
aI00
aI01
aI00
aI01
aa(lp70
I01
aI01
aI01
aI01
aI00
aI01
aI00
aI00
aI00
aI00
aI00
aI00
aI00
aI01
aI00
aI00
aI00
aI01
aa(lp71
I01
aI00
aI00
aI01
aI00
aI00
aI00
aI01
aI00
aI00
aI01
aI00
aI00
aI01
aI00
aI01
aI00
aI01
aa(lp72
I01
aI00
aI00
aI00
aI00
aI01
aI00
aI01
aI00
aI00
aI01
aI00
aI00
aI00
aI00
aI01
aI00
aI01
aa(lp73
I01
aI01
aI00
aI01
aI01
aI01
aI01
aI01
aI01
aI01
aI01
aI01
aI01
aI01
aI00
aI01
aI00
aI01
aa(lp74
I01
aI00
aI00
aI00
aI00
aI00
aI00
aI01
aI00
aI00
aI00
aI00
aI00
aI01
aI00
aI01
aI00
aI01
aa(lp75
I01
aI00
aI01
aI01
aI01
aI00
aI01
aI01
aI01
aI01
aI01
aI00
aI01
aI01
aI00
aI01
aI00
aI01
aa(lp76
I01
aI00
aI00
aI00
aI00
aI00
aI00
aI00
aI00
aI00
aI00
aI00
aI00
aI01
aI00
aI01
aI00
aI01
aa(lp77
I01
aI00
aI01
aI01
aI01
aI00
aI01
aI01
aI01
aI01
aI01
aI01
aI01
aI01
aI00
aI01
aI00
aI01
aa(lp78
I01
aI00
aI01
aI00
aI00
aI00
aI00
aI00
aI00
aI00
aI00
aI00
aI00
aI00
aI00
aI01
aI00
aI01
aa(lp79
I01
aI00
aI01
aI01
aI00
aI01
aI01
aI01
aI01
aI00
aI01
aI01
aI00
aI00
aI00
aI01
aI00
aI01
aa(lp80
I01
aI00
aI01
aI00
aI00
aI00
aI00
aI00
aI00
aI00
aI00
aI00
aI00
aI01
aI00
aI00
aI00
aI01
aa(lp81
I01
aI00
aI01
aI01
aI01
aI01
aI00
aI00
aI01
aI01
aI00
aI01
aI00
aI01
aI01
aI01
aI00
aI01
aa(lp82
I01
aI00
aI00
aI00
aI00
aI00
aI00
aI00
aI00
aI00
aI00
aI00
aI00
aI00
aI00
aI00
aI00
aI01
aa(lp83
I01
aI00
aI00
aI00
aI00
aI00
aI00
aI00
aI00
aI00
aI00
aI00
aI00
aI00
aI00
aI00
aI00
aI01
aa(lp84
I01
aI00
aI01
aI01
aI01
aI00
aI01
aI00
aI01
aI01
aI00
aI00
aI01
aI01
aI01
aI01
aI00
aI01
aa(lp85
I01
aI00
aI00
aI00
aI01
aI00
aI00
aI00
aI00
aI00
aI00
aI00
aI00
aI00
aI00
aI01
aI00
aI01
aa(lp86
I01
aI00
aI01
aI00
aI00
aI00
aI01
aI01
aI00
aI01
aI01
aI01
aI01
aI00
aI01
aI01
aI00
aI01
aa(lp87
I01
aI00
aI01
aI00
aI00
aI00
aI00
aI00
aI00
aI00
aI00
aI00
aI00
aI00
aI00
aI01
aI00
aI01
aa(lp88
I01
aI00
aI01
aI00
aI01
aI01
aI01
aI01
aI01
aI01
aI01
aI01
aI00
aI01
aI01
aI01
aI00
aI01
aa(lp89
I01
aI00
aI01
aI00
aI01
aI00
aI00
aI00
aI00
aI00
aI00
aI00
aI00
aI00
aI00
aI00
aI00
aI01
aa(lp90
I01
aI00
aI01
aI00
aI01
aI01
aI00
aI01
aI01
aI01
aI01
aI01
aI00
aI01
aI01
aI01
aI00
aI01
aa(lp91
I01
aI00
aI01
aI00
aI01
aI00
aI00
aI00
aI00
aI00
aI01
aI00
aI00
aI00
aI00
aI00
aI00
aI01
aa(lp92
I01
aI00
aI01
aI00
aI01
aI01
aI01
aI01
aI01
aI01
aI01
aI01
aI01
aI01
aI01
aI00
aI01
aI01
aa(lp93
I01
aI00
aI01
aI00
aI00
aI00
aI00
aI01
aI00
aI00
aI01
aI00
aI01
aI00
aI00
aI00
aI00
aI01
aa(lp94
I01
aI00
aI01
aI00
aI01
aI00
aI00
aI01
aI00
aI00
aI01
aI00
aI00
aI00
aI01
aI00
aI00
aI01
aa(lp95
I01
aI00
aI00
aI00
aI01
aI00
aI00
aI00
aI00
aI00
aI00
aI00
aI01
aI00
aI01
aI01
aI01
aI01
aa(lp96
I01
aI00
aI01
aI00
aI01
aI00
aI00
aI01
aI00
aI00
aI01
aI00
aI00
aI00
aI00
aI00
aI00
aI01
aa(lp97
I01
aI00
aI01
aI00
aI01
aI00
aI00
aI01
aI01
aI01
aI01
aI00
aI01
aI01
aI01
aI01
aI01
aI01
aa(lp98
I01
aI00
aI01
aI00
aI01
aI00
aI00
aI01
aI00
aI00
aI00
aI00
aI00
aI00
aI00
aI00
aI00
aI01
aa(lp99
I01
aI01
aI01
aI01
aI01
aI01
aI01
aI01
aI01
aI01
aI01
aI01
aI01
aI01
aI01
aI01
aI01
aI01
aasg51
I18
sbsS'totalFood'
p100
I60
sS'layoutText'
p101
(lp102
S'%%%%%%%%%%%%%%%%%%%%%%%%%%%%%%%%%%'
p103
aS'%..        .              %  % %4%'
p104
aS'%%%% %%%%%%%%% %  %%%%%.%    % %2%'
p105
aS'%.. .         o%  %.%.% % % %% % %'
p106
aS'%%%%%% %%%%%  %%  %.  % % %    % %'
p107
aS'%  .  .%.%.% .   .% %   . %% % % %'
p108
aS'%    ..%   % % %    % % %.%. .   %'
p109
aS'%%%% %%% % % %  .   % % %%%%% %% %'
p110
aS'%.%. . %.% %   %  % %.% %.%    %.%'
p111
aS'%.%    %.% %.% %  %   % %.% . .%.%'
p112
aS'% %% %%%%% % %   .  % % % %%% %%%%'
p113
aS'%   . .%.% % %    % % %   %..    %'
p114
aS'% % % %% .   % %.   . %.%.%.  .  %'
p115
aS'% %    % % %  .%  %%  %%%%% %%%%%%'
p116
aS'% % %% % % %.%.%  %o         . ..%'
p117
aS'%1% %    %.%%%%%  % %%%%%%%%% %%%%'
p118
aS'%3% %  %              .        ..%'
p119
aS'%%%%%%%%%%%%%%%%%%%%%%%%%%%%%%%%%%'
p120
asbsS'blueTeamName'
p121
S'Blue'
p122
sS'actions'
p123
(lp124
(I0
S'North'
p125
tp126
a(I1
S'South'
p127
tp128
a(I2
g125
tp129
a(I3
g127
tp130
a(I0
g125
tp131
a(I1
g127
tp132
a(I2
g125
tp133
a(I3
g127
tp134
a(I0
g125
tp135
a(I1
g127
tp136
a(I2
g125
tp137
a(I3
g127
tp138
a(I0
g125
tp139
a(I1
g127
tp140
a(I2
g125
tp141
a(I3
g127
tp142
a(I0
S'East'
p143
tp144
a(I1
S'West'
p145
tp146
a(I2
g125
tp147
a(I3
g127
tp148
a(I0
g143
tp149
a(I1
g145
tp150
a(I2
g143
tp151
a(I3
g145
tp152
a(I0
g127
tp153
a(I1
g145
tp154
a(I2
g143
tp155
a(I3
g145
tp156
a(I0
g127
tp157
a(I1
g145
tp158
a(I2
g143
tp159
a(I3
g145
tp160
a(I0
g143
tp161
a(I1
g125
tp162
a(I2
g143
tp163
a(I3
g127
tp164
a(I0
g143
tp165
a(I1
g125
tp166
a(I2
g127
tp167
a(I3
g127
tp168
a(I0
g143
tp169
a(I1
g145
tp170
a(I2
g127
tp171
a(I3
g127
tp172
a(I0
g127
tp173
a(I1
g125
tp174
a(I2
g143
tp175
a(I3
g127
tp176
a(I0
g127
tp177
a(I1
g125
tp178
a(I2
g127
tp179
a(I3
g127
tp180
a(I0
g143
tp181
a(I1
g145
tp182
a(I2
g127
tp183
a(I3
g145
tp184
a(I0
g143
tp185
a(I1
g145
tp186
a(I2
g143
tp187
a(I3
g145
tp188
a(I0
g127
tp189
a(I1
g125
tp190
a(I2
g143
tp191
a(I3
g127
tp192
a(I0
g143
tp193
a(I1
g145
tp194
a(I2
g125
tp195
a(I3
g127
tp196
a(I0
g143
tp197
a(I1
g145
tp198
a(I2
g125
tp199
a(I3
g127
tp200
a(I0
g143
tp201
a(I1
g145
tp202
a(I2
g125
tp203
a(I3
g145
tp204
a(I0
g143
tp205
a(I1
g145
tp206
a(I2
g143
tp207
a(I3
g145
tp208
a(I0
g143
tp209
a(I1
g145
tp210
a(I2
g143
tp211
a(I3
g145
tp212
a(I0
g143
tp213
a(I1
g145
tp214
a(I2
g143
tp215
a(I3
g145
tp216
a(I0
g143
tp217
a(I1
g145
tp218
a(I2
g143
tp219
a(I3
g145
tp220
a(I0
g143
tp221
a(I1
g145
tp222
a(I2
g125
tp223
a(I3
g145
tp224
a(I0
g143
tp225
a(I1
g145
tp226
a(I2
g125
tp227
a(I3
g145
tp228
a(I0
g143
tp229
a(I1
g145
tp230
a(I2
g125
tp231
a(I3
g145
tp232
a(I0
g143
tp233
a(I1
g145
tp234
a(I2
g125
tp235
a(I3
g127
tp236
a(I0
g143
tp237
a(I1
g127
tp238
a(I2
g143
tp239
a(I3
g127
tp240
a(I0
g143
tp241
a(I1
g127
tp242
a(I2
g143
tp243
a(I3
g143
tp244
a(I0
g143
tp245
a(I1
g145
tp246
a(I2
g125
tp247
a(I3
g143
tp248
a(I0
g143
tp249
a(I1
g127
tp250
a(I2
g125
tp251
a(I3
g143
tp252
a(I0
g143
tp253
a(I1
g127
tp254
a(I2
g125
tp255
a(I3
g143
tp256
a(I0
g143
tp257
a(I1
g145
tp258
a(I2
g145
tp259
a(I3
g143
tp260
a(I0
g143
tp261
a(I1
g127
tp262
a(I2
g145
tp263
a(I3
g143
tp264
a(I0
g143
tp265
a(I1
g127
tp266
a(I2
g127
tp267
a(I3
g143
tp268
a(I0
g143
tp269
a(I1
g127
tp270
a(I2
g127
tp271
a(I3
g143
tp272
a(I0
g143
tp273
a(I1
g127
tp274
a(I2
g127
tp275
a(I3
g143
tp276
a(I0
g125
tp277
a(I1
g127
tp278
a(I2
g127
tp279
a(I3
g143
tp280
a(I0
g125
tp281
a(I1
g127
tp282
a(I2
g127
tp283
a(I3
g125
tp284
a(I0
g145
tp285
a(I1
g127
tp286
a(I2
g127
tp287
a(I3
g125
tp288
a(I0
g145
tp289
a(I1
g127
tp290
a(I2
g127
tp291
a(I3
g145
tp292
a(I0
g125
tp293
a(I1
g143
tp294
a(I2
g127
tp295
a(I3
g145
tp296
a(I0
g125
tp297
a(I1
g143
tp298
a(I2
g143
tp299
a(I3
g125
tp300
a(I0
g125
tp301
a(I1
g125
tp302
a(I2
g143
tp303
a(I3
g125
tp304
a(I0
g143
tp305
a(I1
g125
tp306
a(I2
g125
tp307
a(I3
g143
tp308
a(I0
g145
tp309
a(I1
g143
tp310
a(I2
g125
tp311
a(I3
g125
tp312
a(I0
g127
tp313
a(I1
g143
tp314
a(I2
g143
tp315
a(I3
g145
tp316
a(I0
g127
tp317
a(I1
g127
tp318
a(I2
g143
tp319
a(I3
g127
tp320
a(I0
g127
tp321
a(I1
g143
tp322
a(I2
g145
tp323
a(I3
g127
tp324
a(I0
g145
tp325
a(I1
g145
tp326
a(I2
g143
tp327
a(I3
g127
tp328
a(I0
g145
tp329
a(I1
g143
tp330
a(I2
g145
tp331
a(I3
g145
tp332
a(I0
g145
tp333
a(I1
g145
tp334
a(I2
g143
tp335
a(I3
g145
tp336
a(I0
g145
tp337
a(I1
g143
tp338
a(I2
g145
tp339
a(I3
g145
tp340
a(I0
g145
tp341
a(I1
g145
tp342
a(I2
g143
tp343
a(I3
g143
tp344
a(I0
g145
tp345
a(I1
g125
tp346
a(I2
g125
tp347
a(I3
g145
tp348
a(I0
g145
tp349
a(I1
g143
tp350
a(I2
g125
tp351
a(I3
g145
tp352
a(I0
g145
tp353
a(I1
g145
tp354
a(I2
g125
tp355
a(I3
g143
tp356
a(I0
g143
tp357
a(I1
g125
tp358
a(I2
g125
tp359
a(I3
g145
tp360
a(I0
g125
tp361
a(I1
g125
tp362
a(I2
g125
tp363
a(I3
g145
tp364
asS'length'
p365
I1200
sS'agents'
p366
(lp367
(igame
Agent
p368
(dp369
S'index'
p370
I0
sba(igame
Agent
p371
(dp372
g370
I0
sba(igame
Agent
p373
(dp374
g370
I0
sba(igame
Agent
p375
(dp376
g370
I0
sbasS'redTeamName'
p377
S'Red'
p378
s.