(dp1
S'layout'
p2
(ilayout
Layout
p3
(dp4
S'capsules'
p5
(lp6
(I8
I8
tp7
a(I28
I8
tp8
a(I5
I9
tp9
a(I25
I9
tp10
asS'numGhosts'
p11
I4
sS'food'
p12
(igame
Grid
p13
(dp14
S'CELLS_PER_INT'
p15
I30
sS'width'
p16
I34
sS'data'
p17
(lp18
(lp19
I00
aI00
aI00
aI00
aI00
aI00
aI00
aI00
aI00
aI00
aI00
aI00
aI00
aI00
aI00
aI00
aI00
aI00
aa(lp20
I00
aI00
aI00
aI00
aI00
aI01
aI00
aI00
aI00
aI00
aI00
aI00
aI00
aI00
aI00
aI00
aI01
aI00
aa(lp21
I00
aI00
aI00
aI00
aI00
aI00
aI00
aI00
aI00
aI00
aI00
aI00
aI00
aI01
aI00
aI00
aI00
aI00
aa(lp22
I00
aI00
aI00
aI00
aI00
aI00
aI00
aI00
aI00
aI00
aI00
aI00
aI00
aI00
aI00
aI00
aI00
aI00
aa(lp23
I00
aI00
aI00
aI00
aI00
aI01
aI00
aI01
aI00
aI01
aI00
aI00
aI00
aI00
aI00
aI00
aI00
aI00
aa(lp24
I00
aI00
aI00
aI00
aI00
aI01
aI00
aI00
aI00
aI00
aI00
aI00
aI00
aI00
aI00
aI00
aI00
aI00
aa(lp25
I00
aI00
aI00
aI00
aI00
aI00
aI00
aI00
aI00
aI00
aI00
aI01
aI00
aI00
aI00
aI01
aI01
aI00
aa(lp26
I00
aI00
aI00
aI00
aI01
aI01
aI00
aI01
aI00
aI00
aI00
aI00
aI00
aI00
aI00
aI00
aI00
aI00
aa(lp27
I00
aI00
aI00
aI00
aI00
aI00
aI00
aI00
aI00
aI00
aI00
aI00
aI00
aI01
aI01
aI00
aI01
aI00
aa(lp28
I00
aI00
aI01
aI00
aI00
aI00
aI00
aI00
aI00
aI00
aI00
aI00
aI00
aI00
aI00
aI00
aI01
aI00
aa(lp29
I00
aI01
aI00
aI00
aI00
aI00
aI00
aI01
aI00
aI01
aI00
aI00
aI00
aI00
aI01
aI00
aI00
aI00
aa(lp30
I00
aI00
aI00
aI00
aI00
aI00
aI00
aI01
aI00
aI00
aI00
aI00
aI01
aI00
aI00
aI00
aI00
aI00
aa(lp31
I00
aI01
aI01
aI00
aI00
aI00
aI00
aI00
aI00
aI00
aI00
aI00
aI00
aI00
aI00
aI00
aI00
aI00
aa(lp32
I00
aI00
aI01
aI00
aI00
aI00
aI00
aI00
aI01
aI00
aI00
aI00
aI00
aI00
aI00
aI00
aI00
aI00
aa(lp33
I00
aI01
aI00
aI00
aI00
aI00
aI01
aI00
aI00
aI00
aI00
aI00
aI00
aI00
aI00
aI00
aI00
aI00
aa(lp34
I00
aI00
aI00
aI00
aI00
aI00
aI00
aI00
aI00
aI00
aI00
aI00
aI00
aI00
aI00
aI00
aI00
aI00
aa(lp35
I00
aI00
aI00
aI00
aI00
aI00
aI00
aI00
aI00
aI00
aI00
aI00
aI00
aI00
aI00
aI00
aI00
aI00
aa(lp36
I00
aI00
aI00
aI00
aI00
aI00
aI00
aI00
aI00
aI00
aI00
aI00
aI00
aI00
aI00
aI00
aI00
aI00
aa(lp37
I00
aI00
aI00
aI00
aI00
aI00
aI00
aI00
aI00
aI00
aI00
aI00
aI00
aI00
aI00
aI00
aI00
aI00
aa(lp38
I00
aI00
aI00
aI00
aI00
aI00
aI00
aI00
aI00
aI00
aI00
aI01
aI00
aI00
aI00
aI00
aI01
aI00
aa(lp39
I00
aI00
aI00
aI00
aI00
aI00
aI00
aI00
aI00
aI01
aI00
aI00
aI00
aI00
aI00
aI01
aI00
aI00
aa(lp40
I00
aI00
aI00
aI00
aI00
aI00
aI00
aI00
aI00
aI00
aI00
aI00
aI00
aI00
aI00
aI01
aI01
aI00
aa(lp41
I00
aI00
aI00
aI00
aI00
aI01
aI00
aI00
aI00
aI00
aI01
aI00
aI00
aI00
aI00
aI00
aI00
aI00
aa(lp42
I00
aI00
aI00
aI01
aI00
aI00
aI00
aI00
aI01
aI00
aI01
aI00
aI00
aI00
aI00
aI00
aI01
aI00
aa(lp43
I00
aI01
aI00
aI00
aI00
aI00
aI00
aI00
aI00
aI00
aI00
aI00
aI00
aI00
aI00
aI01
aI00
aI00
aa(lp44
I00
aI01
aI00
aI01
aI01
aI00
aI00
aI00
aI00
aI00
aI00
aI00
aI00
aI00
aI00
aI00
aI00
aI00
aa(lp45
I00
aI00
aI00
aI00
aI00
aI00
aI00
aI00
aI00
aI00
aI01
aI00
aI01
aI01
aI00
aI00
aI00
aI00
aa(lp46
I00
aI01
aI01
aI00
aI00
aI00
aI01
aI00
aI00
aI00
aI00
aI00
aI00
aI00
aI00
aI00
aI00
aI00
aa(lp47
I00
aI00
aI00
aI00
aI00
aI00
aI00
aI00
aI00
aI00
aI00
aI00
aI01
aI00
aI00
aI00
aI00
aI00
aa(lp48
I00
aI00
aI00
aI00
aI00
aI00
aI00
aI00
aI01
aI00
aI01
aI00
aI01
aI00
aI00
aI00
aI00
aI00
aa(lp49
I00
aI00
aI00
aI00
aI00
aI00
aI00
aI00
aI00
aI00
aI00
aI00
aI00
aI00
aI00
aI00
aI00
aI00
aa(lp50
I00
aI00
aI00
aI00
aI01
aI00
aI00
aI00
aI00
aI00
aI00
aI00
aI00
aI00
aI00
aI00
aI00
aI00
aa(lp51
I00
aI01
aI00
aI00
aI00
aI00
aI00
aI00
aI00
aI00
aI00
aI00
aI01
aI00
aI00
aI00
aI00
aI00
aa(lp52
I00
aI00
aI00
aI00
aI00
aI00
aI00
aI00
aI00
aI00
aI00
aI00
aI00
aI00
aI00
aI00
aI00
aI00
aasS'height'
p53
I18
sbsS'agentPositions'
p54
(lp55
(I00
(I1
I2
tp56
tp57
a(I00
(I32
I15
tp58
tp59
a(I00
(I1
I1
tp60
tp61
a(I00
(I32
I16
tp62
tp63
asg53
I18
sg16
I34
sS'walls'
p64
(igame
Grid
p65
(dp66
g15
I30
sg16
I34
sg17
(lp67
(lp68
I01
aI01
aI01
aI01
aI01
aI01
aI01
aI01
aI01
aI01
aI01
aI01
aI01
aI01
aI01
aI01
aI01
aI01
aa(lp69
I01
aI00
aI00
aI00
aI00
aI00
aI00
aI01
aI00
aI00
aI00
aI00
aI00
aI00
aI00
aI00
aI00
aI01
aa(lp70
I01
aI00
aI00
aI00
aI00
aI01
aI00
aI00
aI00
aI01
aI00
aI00
aI01
aI00
aI00
aI00
aI00
aI01
aa(lp71
I01
aI01
aI01
aI00
aI01
aI01
aI01
aI01
aI01
aI01
aI01
aI01
aI01
aI01
aI01
aI00
aI00
aI01
aa(lp72
I01
aI00
aI00
aI00
aI00
aI00
aI01
aI00
aI00
aI00
aI01
aI00
aI00
aI00
aI00
aI00
aI00
aI01
aa(lp73
I01
aI00
aI00
aI00
aI01
aI00
aI01
aI01
aI00
aI00
aI00
aI00
aI01
aI01
aI00
aI01
aI01
aI01
aa(lp74
I01
aI01
aI00
aI01
aI01
aI01
aI01
aI00
aI00
aI00
aI01
aI00
aI00
aI00
aI00
aI00
aI00
aI01
aa(lp75
I01
aI00
aI00
aI01
aI00
aI00
aI01
aI00
aI01
aI01
aI01
aI01
aI01
aI01
aI01
aI01
aI01
aI01
aa(lp76
I01
aI00
aI00
aI01
aI00
aI01
aI01
aI00
aI00
aI00
aI00
aI00
aI00
aI00
aI00
aI01
aI00
aI01
aa(lp77
I01
aI01
aI00
aI01
aI00
aI00
aI01
aI01
aI01
aI01
aI01
aI00
aI01
aI00
aI01
aI01
aI00
aI01
aa(lp78
I01
aI00
aI00
aI01
aI01
aI00
aI01
aI00
aI01
aI00
aI01
aI00
aI01
aI00
aI00
aI01
aI00
aI01
aa(lp79
I01
aI01
aI00
aI01
aI00
aI00
aI01
aI00
aI00
aI00
aI00
aI00
aI00
aI00
aI00
aI01
aI00
aI01
aa(lp80
I01
aI00
aI00
aI01
aI00
aI01
aI01
aI01
aI01
aI01
aI01
aI01
aI00
aI01
aI00
aI00
aI00
aI01
aa(lp81
I01
aI01
aI00
aI01
aI00
aI00
aI01
aI00
aI00
aI00
aI00
aI01
aI00
aI01
aI00
aI01
aI00
aI01
aa(lp82
I01
aI00
aI00
aI00
aI00
aI00
aI00
aI00
aI00
aI01
aI00
aI00
aI00
aI00
aI00
aI01
aI00
aI01
aa(lp83
I01
aI00
aI01
aI01
aI00
aI00
aI01
aI00
aI01
aI01
aI01
aI01
aI01
aI01
aI00
aI01
aI00
aI01
aa(lp84
I01
aI00
aI00
aI01
aI00
aI00
aI01
aI00
aI00
aI00
aI00
aI00
aI00
aI01
aI00
aI01
aI00
aI01
aa(lp85
I01
aI00
aI01
aI00
aI01
aI00
aI00
aI00
aI00
aI00
aI00
aI01
aI00
aI00
aI01
aI00
aI00
aI01
aa(lp86
I01
aI00
aI01
aI00
aI01
aI01
aI01
aI01
aI01
aI01
aI00
aI01
aI00
aI00
aI01
aI01
aI00
aI01
aa(lp87
I01
aI00
aI01
aI00
aI00
aI00
aI00
aI00
aI01
aI00
aI00
aI00
aI00
aI00
aI00
aI00
aI00
aI01
aa(lp88
I01
aI00
aI01
aI00
aI01
aI00
aI01
aI00
aI00
aI00
aI00
aI01
aI00
aI00
aI01
aI00
aI01
aI01
aa(lp89
I01
aI00
aI00
aI00
aI01
aI00
aI01
aI01
aI01
aI01
aI01
aI01
aI01
aI00
aI01
aI00
aI00
aI01
aa(lp90
I01
aI00
aI01
aI00
aI00
aI00
aI00
aI00
aI00
aI00
aI00
aI01
aI00
aI00
aI01
aI00
aI01
aI01
aa(lp91
I01
aI00
aI01
aI00
aI00
aI01
aI00
aI01
aI00
aI01
aI00
aI01
aI00
aI01
aI01
aI00
aI00
aI01
aa(lp92
I01
aI00
aI01
aI01
aI00
aI01
aI00
aI01
aI01
aI01
aI01
aI01
aI00
aI00
aI01
aI00
aI01
aI01
aa(lp93
I01
aI00
aI01
aI00
aI00
aI00
aI00
aI00
aI00
aI00
aI00
aI01
aI01
aI00
aI01
aI00
aI00
aI01
aa(lp94
I01
aI01
aI01
aI01
aI01
aI01
aI01
aI01
aI01
aI01
aI00
aI01
aI00
aI00
aI01
aI00
aI00
aI01
aa(lp95
I01
aI00
aI00
aI00
aI00
aI00
aI00
aI01
aI00
aI00
aI00
aI01
aI01
aI01
aI01
aI00
aI01
aI01
aa(lp96
I01
aI01
aI01
aI00
aI01
aI01
aI00
aI00
aI00
aI00
aI01
aI01
aI00
aI01
aI00
aI00
aI00
aI01
aa(lp97
I01
aI00
aI00
aI00
aI00
aI00
aI00
aI01
aI00
aI00
aI00
aI01
aI00
aI00
aI00
aI00
aI00
aI01
aa(lp98
I01
aI00
aI00
aI01
aI01
aI01
aI01
aI01
aI01
aI01
aI01
aI01
aI01
aI01
aI00
aI01
aI01
aI01
aa(lp99
I01
aI00
aI00
aI00
aI00
aI01
aI00
aI00
aI01
aI00
aI00
aI00
aI01
aI00
aI00
aI00
aI00
aI01
aa(lp100
I01
aI00
aI00
aI00
aI00
aI00
aI00
aI00
aI00
aI00
aI01
aI00
aI00
aI00
aI00
aI00
aI00
aI01
aa(lp101
I01
aI01
aI01
aI01
aI01
aI01
aI01
aI01
aI01
aI01
aI01
aI01
aI01
aI01
aI01
aI01
aI01
aI01
aasg53
I18
sbsS'totalFood'
p102
I60
sS'layoutText'
p103
(lp104
S'%%%%%%%%%%%%%%%%%%%%%%%%%%%%%%%%%%'
p105
aS'%.   %.%..         .%.%.%  %  % 4%'
p106
aS'%    %.%%%%% %%%% % ..  .     % 2%'
p107
aS'%  %   %.%.      %% %%%%%%%%     %'
p108
aS'% .% % %.   %% %%      %  .%% %  %'
p109
aS'% %% % % %%.   %     %   %.%..%%.%'
p110
aS'%  %  .%    %% % %%.%%%%%%%%%%%  %'
p111
aS'%  %% %% %% %  %     %..% . %.% %%'
p112
aS'% %%.o % %. % %%  % .% %%o%   %  %'
p113
aS'%  %   %o%% %. %  %% % .% % o.%% %'
p114
aS'%% %.% . %..%     %  % %% %% %%  %'
p115
aS'%  %%%%%%%%%%%.%% % %%    %.  %  %'
p116
aS'%.%%..%.%   %     %   .%% % % %% %'
p117
aS'%  % %%.  %      %% %%   .% % %. %'
p118
aS'%     %%%%%%%% %%      .%.%   %  %'
p119
aS'%1 %     .  .. % %%%% %%%%%.%    %'
p120
aS'%3 %  %  %.%.%.         ..%.%   .%'
p121
aS'%%%%%%%%%%%%%%%%%%%%%%%%%%%%%%%%%%'
p122
asbsS'blueTeamName'
p123
S'Blue'
p124
sS'actions'
p125
(lp126
(I1
S'West'
p127
tp128
a(I2
S'North'
p129
tp130
a(I3
g127
tp131
a(I0
g129
tp132
a(I1
S'South'
p133
tp134
a(I2
g129
tp135
a(I3
g133
tp136
a(I0
S'East'
p137
tp138
a(I1
g127
tp139
a(I2
g137
tp140
a(I3
g133
tp141
a(I0
g137
tp142
a(I1
g127
tp143
a(I2
g137
tp144
a(I3
g127
tp145
a(I0
g137
tp146
a(I1
g127
tp147
a(I2
g137
tp148
a(I3
g127
tp149
a(I0
g137
tp150
a(I1
g129
tp151
a(I2
g133
tp152
a(I3
g127
tp153
a(I0
g133
tp154
a(I1
g127
tp155
a(I2
g137
tp156
a(I3
g129
tp157
a(I0
g137
tp158
a(I1
g127
tp159
a(I2
g137
tp160
a(I3
g127
tp161
a(I0
g137
tp162
a(I1
g127
tp163
a(I2
g137
tp164
a(I3
g127
tp165
a(I0
g137
tp166
a(I1
g127
tp167
a(I2
g137
tp168
a(I3
g127
tp169
a(I0
g137
tp170
a(I1
g127
tp171
a(I2
g137
tp172
a(I3
g127
tp173
a(I0
g137
tp174
a(I1
g127
tp175
a(I2
g137
tp176
a(I3
g127
tp177
a(I0
g137
tp178
a(I1
g127
tp179
a(I2
g137
tp180
a(I3
g127
tp181
a(I0
g137
tp182
a(I1
g127
tp183
a(I2
g137
tp184
a(I3
g127
tp185
a(I0
g137
tp186
a(I1
g127
tp187
a(I2
g137
tp188
a(I3
g127
tp189
a(I0
g137
tp190
a(I1
g129
tp191
a(I2
g137
tp192
a(I3
g127
tp193
a(I0
g133
tp194
a(I1
g127
tp195
a(I2
g133
tp196
a(I3
g133
tp197
a(I0
g137
tp198
a(I1
g127
tp199
a(I2
g137
tp200
a(I3
g133
tp201
a(I0
g137
tp202
a(I1
g127
tp203
a(I2
g137
tp204
a(I3
g127
tp205
a(I0
g137
tp206
a(I1
g127
tp207
a(I2
g137
tp208
a(I3
g127
tp209
a(I0
g137
tp210
a(I1
g127
tp211
a(I2
g137
tp212
a(I3
g133
tp213
a(I0
g137
tp214
a(I1
g127
tp215
a(I2
g137
tp216
a(I3
g127
tp217
a(I0
g137
tp218
a(I1
g127
tp219
a(I2
g137
tp220
a(I3
g133
tp221
a(I0
g137
tp222
a(I1
g127
tp223
a(I2
g137
tp224
a(I3
g133
tp225
a(I0
g137
tp226
a(I1
g127
tp227
a(I2
g137
tp228
a(I3
g133
tp229
a(I0
g137
tp230
a(I1
g127
tp231
a(I2
g137
tp232
a(I3
g133
tp233
a(I0
g137
tp234
a(I1
g127
tp235
a(I2
g137
tp236
a(I3
g133
tp237
a(I0
g137
tp238
a(I1
g137
tp239
a(I2
g127
tp240
a(I3
g127
tp241
a(I0
g127
tp242
a(I1
g137
tp243
a(I2
g127
tp244
a(I3
g127
tp245
a(I0
g127
tp246
a(I1
g137
tp247
a(I2
g127
tp248
a(I3
g127
tp249
a(I0
g127
tp250
a(I1
g137
tp251
a(I2
g129
tp252
a(I3
g129
tp253
a(I0
g127
tp254
a(I1
g133
tp255
a(I2
g129
tp256
a(I3
g137
tp257
a(I0
g129
tp258
a(I1
g133
tp259
a(I2
g137
tp260
a(I3
g133
tp261
a(I0
g129
tp262
a(I1
g127
tp263
a(I2
g137
tp264
a(I3
g133
tp265
a(I0
g137
tp266
a(I1
g127
tp267
a(I2
g129
tp268
a(I3
g129
tp269
a(I0
g129
tp270
a(I1
g133
tp271
a(I2
g137
tp272
a(I3
g137
tp273
a(I0
g129
tp274
a(I1
g127
tp275
a(I2
g137
tp276
a(I3
g137
tp277
a(I0
g129
tp278
a(I1
g127
tp279
a(I2
g133
tp280
a(I3
g137
tp281
a(I0
g129
tp282
a(I1
g129
tp283
a(I2
g129
tp284
a(I3
g129
tp285
a(I0
g129
tp286
a(I1
g133
tp287
a(I2
g129
tp288
a(I3
g129
tp289
a(I0
g137
tp290
a(I1
g137
tp291
a(I2
g129
tp292
a(I3
g129
tp293
a(I0
g127
tp294
a(I1
g137
tp295
a(I2
g129
tp296
a(I3
g137
tp297
a(I0
g133
tp298
a(I1
g137
tp299
a(I2
g129
tp300
a(I3
g137
tp301
a(I0
g133
tp302
a(I1
g133
tp303
a(I2
g129
tp304
a(I3
g127
tp305
a(I0
g133
tp306
a(I1
g133
tp307
a(I2
g129
tp308
a(I3
g127
tp309
a(I0
g133
tp310
a(I1
g133
tp311
a(I2
g137
tp312
a(I3
g127
tp313
a(I0
g133
tp314
a(I1
g133
tp315
a(I2
g127
tp316
a(I3
g133
tp317
a(I0
g127
tp318
a(I1
g127
tp319
a(I2
g133
tp320
a(I3
g133
tp321
a(I0
g133
tp322
a(I1
g137
tp323
a(I2
g133
tp324
a(I3
g133
tp325
a(I0
g133
tp326
a(I1
g133
tp327
a(I2
g133
tp328
a(I3
g127
tp329
a(I0
g127
tp330
a(I1
g133
tp331
a(I2
g133
tp332
a(I3
g127
tp333
a(I0
g127
tp334
a(I1
g127
tp335
a(I2
g133
tp336
a(I3
g127
tp337
a(I0
g127
tp338
a(I1
g137
tp339
a(I2
g133
tp340
a(I3
g129
tp341
a(I0
g127
tp342
a(I1
g129
tp343
a(I2
g127
tp344
a(I3
g129
tp345
a(I0
g127
tp346
a(I1
g129
tp347
a(I2
g127
tp348
a(I3
g133
tp349
a(I0
g137
tp350
a(I1
g129
tp351
a(I2
g133
tp352
a(I3
g129
tp353
a(I0
g137
tp354
a(I1
g129
tp355
a(I2
g127
tp356
a(I3
g129
tp357
a(I0
g137
tp358
a(I1
g129
tp359
a(I2
g127
tp360
a(I3
g137
tp361
a(I0
g137
tp362
a(I1
g129
tp363
a(I2
g133
tp364
a(I3
g129
tp365
a(I0
g137
tp366
a(I1
g129
tp367
a(I2
g133
tp368
a(I3
g129
tp369
a(I0
g129
tp370
a(I1
g137
tp371
a(I2
g127
tp372
a(I3
g127
tp373
a(I0
g129
tp374
a(I1
g129
tp375
a(I2
g127
tp376
a(I3
g127
tp377
a(I0
g137
tp378
a(I1
g129
tp379
a(I2
g127
tp380
a(I3
g127
tp381
a(I0
g129
tp382
a(I1
g137
tp383
a(I2
g127
tp384
a(I3
g133
tp385
a(I0
g129
tp386
a(I1
g137
tp387
a(I2
g127
tp388
a(I3
g127
tp389
a(I0
g129
tp390
a(I1
g137
tp391
a(I2
g137
tp392
a(I3
g127
tp393
a(I0
g129
tp394
a(I1
g137
tp395
a(I2
g137
tp396
a(I3
g127
tp397
a(I0
g129
tp398
a(I1
g137
tp399
a(I2
g137
tp400
a(I3
g133
tp401
a(I0
g129
tp402
a(I1
g127
tp403
a(I2
g137
tp404
a(I3
g133
tp405
a(I0
g129
tp406
a(I1
g127
tp407
a(I2
g137
tp408
a(I3
g133
tp409
a(I0
g133
tp410
a(I1
g127
tp411
a(I2
g129
tp412
a(I3
g133
tp413
a(I0
g129
tp414
a(I1
g127
tp415
a(I2
g129
tp416
a(I3
g127
tp417
a(I0
g133
tp418
a(I1
g127
tp419
a(I2
g137
tp420
a(I3
g127
tp421
a(I0
g129
tp422
a(I1
g133
tp423
a(I2
g137
tp424
a(I3
g129
tp425
a(I0
g133
tp426
a(I1
g133
tp427
a(I2
g129
tp428
a(I3
g127
tp429
a(I0
g129
tp430
a(I1
g127
tp431
a(I2
g137
tp432
a(I3
g127
tp433
a(I0
g133
tp434
a(I1
g127
tp435
a(I2
g137
tp436
a(I3
g129
tp437
a(I0
g129
tp438
a(I1
g133
tp439
a(I2
g129
tp440
a(I3
g137
tp441
a(I0
g133
tp442
a(I1
g127
tp443
a(I2
g129
tp444
a(I3
g129
tp445
a(I0
g129
tp446
a(I1
g127
tp447
a(I2
g129
tp448
a(I3
g129
tp449
a(I0
g133
tp450
a(I1
g133
tp451
a(I2
g129
tp452
a(I3
g137
tp453
a(I0
g129
tp454
a(I1
g133
tp455
a(I2
g129
tp456
a(I3
g129
tp457
a(I0
g133
tp458
a(I1
g133
tp459
a(I2
g129
tp460
a(I3
g129
tp461
a(I0
g129
tp462
a(I1
g133
tp463
a(I2
g137
tp464
a(I3
g129
tp465
a(I0
g133
tp466
a(I1
g133
tp467
a(I2
g137
tp468
a(I3
g129
tp469
a(I0
g129
tp470
a(I1
g133
tp471
a(I2
g133
tp472
a(I3
g129
tp473
a(I0
g133
tp474
a(I1
g127
tp475
a(I2
g133
tp476
a(I3
g133
tp477
a(I0
g129
tp478
a(I1
g127
tp479
a(I2
g137
tp480
a(I3
g129
tp481
a(I0
g133
tp482
a(I1
g129
tp483
a(I2
g137
tp484
a(I3
g133
tp485
a(I0
g129
tp486
a(I1
g127
tp487
a(I2
g127
tp488
a(I3
g133
tp489
a(I0
g133
tp490
a(I1
g127
tp491
a(I2
g133
tp492
a(I3
g127
tp493
a(I0
g129
tp494
a(I1
g133
tp495
a(I2
g133
tp496
a(I3
g127
tp497
a(I0
g133
tp498
a(I1
g129
tp499
a(I2
g127
tp500
a(I3
g137
tp501
a(I0
g129
tp502
a(I1
g137
tp503
a(I2
g133
tp504
a(I3
g127
tp505
a(I0
g133
tp506
a(I1
g129
tp507
a(I2
g133
tp508
a(I3
g129
tp509
a(I0
g129
tp510
a(I1
g129
tp511
a(I2
g133
tp512
a(I3
g127
tp513
a(I0
g133
tp514
a(I1
g129
tp515
a(I2
g133
tp516
a(I3
g127
tp517
a(I0
g129
tp518
a(I1
g127
tp519
a(I2
g133
tp520
a(I3
g127
tp521
a(I0
g133
tp522
a(I1
g129
tp523
a(I2
g129
tp524
a(I3
g137
tp525
a(I0
g129
tp526
a(I1
g129
tp527
a(I2
g129
tp528
a(I3
g127
tp529
a(I0
g133
tp530
a(I1
g129
tp531
a(I2
g129
tp532
a(I3
g137
tp533
a(I0
g129
tp534
a(I1
g129
tp535
a(I2
g129
tp536
a(I3
g127
tp537
a(I0
g133
tp538
a(I1
g127
tp539
a(I2
g129
tp540
a(I3
g137
tp541
a(I0
g129
tp542
a(I1
g127
tp543
a(I2
g137
tp544
a(I3
g127
tp545
a(I0
g133
tp546
a(I1
g133
tp547
a(I2
g129
tp548
a(I3
g137
tp549
a(I0
g129
tp550
a(I1
g133
tp551
a(I2
g129
tp552
a(I3
g127
tp553
a(I0
g133
tp554
a(I1
g127
tp555
a(I2
g129
tp556
a(I3
g137
tp557
a(I0
g129
tp558
a(I1
g133
tp559
a(I2
g127
tp560
a(I3
g127
tp561
a(I0
g133
tp562
a(I1
g133
tp563
a(I2
g129
tp564
a(I3
g137
tp565
a(I0
g129
tp566
a(I1
g133
tp567
a(I2
g127
tp568
a(I3
g127
tp569
a(I0
g133
tp570
a(I1
g133
tp571
a(I2
g127
tp572
a(I3
g137
tp573
a(I0
g129
tp574
a(I1
g133
tp575
a(I2
g133
tp576
a(I3
g127
tp577
a(I0
g133
tp578
a(I1
g137
tp579
a(I2
g133
tp580
a(I3
g137
tp581
a(I0
g129
tp582
a(I1
g133
tp583
a(I2
g133
tp584
a(I3
g127
tp585
a(I0
g137
tp586
a(I1
g133
tp587
a(I2
g133
tp588
a(I3
g137
tp589
a(I0
g127
tp590
a(I1
g127
tp591
a(I2
g133
tp592
a(I3
g127
tp593
a(I0
g133
tp594
a(I1
g133
tp595
a(I2
g133
tp596
a(I3
g137
tp597
a(I0
g133
tp598
a(I1
g133
tp599
a(I2
g127
tp600
a(I3
g127
tp601
a(I0
g133
tp602
a(I1
g137
tp603
a(I2
g127
tp604
a(I3
g137
tp605
a(I0
g133
tp606
a(I1
g133
tp607
a(I2
g127
tp608
a(I3
g127
tp609
a(I0
g129
tp610
a(I1
g137
tp611
a(I2
g133
tp612
a(I3
g137
tp613
a(I0
g133
tp614
a(I1
g137
tp615
a(I2
g127
tp616
a(I3
g127
tp617
a(I0
g133
tp618
a(I1
g129
tp619
a(I2
g133
tp620
a(I3
g137
tp621
a(I0
g127
tp622
a(I1
g129
tp623
a(I2
g133
tp624
a(I3
g127
tp625
a(I0
g127
tp626
a(I1
g137
tp627
a(I2
g127
tp628
a(I3
g129
tp629
a(I0
g127
tp630
a(I1
g127
tp631
a(I2
g127
tp632
a(I3
g133
tp633
a(I0
g129
tp634
a(I1
g133
tp635
a(I2
g127
tp636
a(I3
g133
tp637
a(I0
g129
tp638
a(I1
g133
tp639
a(I2
g127
tp640
a(I3
g133
tp641
a(I0
g137
tp642
a(I1
g137
tp643
a(I2
g127
tp644
a(I3
g133
tp645
a(I0
g129
tp646
a(I1
g133
tp647
a(I2
g137
tp648
a(I3
g133
tp649
a(I0
g129
tp650
a(I1
g137
tp651
a(I2
g137
tp652
a(I3
g133
tp653
a(I0
g127
tp654
a(I1
g137
tp655
a(I2
g137
tp656
a(I3
g133
tp657
a(I0
g129
tp658
a(I1
g137
tp659
a(I2
g137
tp660
a(I3
g133
tp661
a(I0
g129
tp662
a(I1
g137
tp663
a(I2
g137
tp664
a(I3
g137
tp665
a(I0
g133
tp666
a(I1
g137
tp667
a(I2
g129
tp668
a(I3
g133
tp669
a(I0
g127
tp670
a(I1
g137
tp671
a(I2
g129
tp672
a(I3
g133
tp673
a(I0
g127
tp674
a(I1
g137
tp675
a(I2
g137
tp676
a(I3
g127
tp677
a(I0
g127
tp678
a(I1
g133
tp679
a(I2
g129
tp680
a(I3
g133
tp681
a(I0
g137
tp682
a(I1
g129
tp683
a(I2
g137
tp684
a(I3
g133
tp685
a(I0
g137
tp686
a(I1
g137
tp687
a(I2
g137
tp688
a(I3
g137
tp689
a(I0
g137
tp690
a(I1
g137
tp691
a(I2
g137
tp692
a(I3
g133
tp693
a(I0
g129
tp694
a(I1
g133
tp695
a(I2
g129
tp696
a(I3
g137
tp697
a(I0
g129
tp698
a(I1
g137
tp699
a(I2
g129
tp700
a(I3
g137
tp701
a(I0
g129
tp702
a(I1
g137
tp703
a(I2
g129
tp704
a(I3
g137
tp705
a(I0
g129
tp706
a(I1
g137
tp707
a(I2
g129
tp708
a(I3
g133
tp709
a(I0
g129
tp710
a(I1
g127
tp711
a(I2
g129
tp712
a(I3
g137
tp713
a(I0
g137
tp714
a(I1
g127
tp715
a(I2
g129
tp716
a(I3
g137
tp717
a(I0
g137
tp718
a(I1
g127
tp719
a(I2
g137
tp720
a(I3
g137
tp721
a(I0
g129
tp722
a(I1
g129
tp723
a(I2
g137
tp724
a(I3
g137
tp725
a(I0
g133
tp726
a(I1
g127
tp727
a(I2
g133
tp728
a(I3
g137
tp729
a(I0
g127
tp730
a(I1
g137
tp731
a(I2
g133
tp732
a(I3
g133
tp733
a(I0
g127
tp734
a(I1
g129
tp735
a(I2
g137
tp736
a(I3
g129
tp737
a(I0
g129
tp738
a(I1
g129
tp739
a(I2
g133
tp740
a(I3
g137
tp741
a(I0
g133
tp742
a(I1
g137
tp743
a(I2
g133
tp744
a(I3
g137
tp745
a(I0
g133
tp746
a(I1
g137
tp747
a(I2
g137
tp748
a(I3
g137
tp749
a(I0
g133
tp750
a(I1
g129
tp751
a(I2
g133
tp752
a(I3
g137
tp753
a(I0
g127
tp754
a(I1
g137
tp755
a(I2
g133
tp756
a(I3
g129
tp757
a(I0
g127
tp758
a(I1
g129
tp759
a(I2
g133
tp760
a(I3
g129
tp761
a(I0
g133
tp762
a(I1
g129
tp763
a(I2
g133
tp764
a(I3
g137
tp765
a(I0
g127
tp766
a(I1
g129
tp767
a(I2
g133
tp768
a(I3
g137
tp769
a(I0
g137
tp770
a(I1
g129
tp771
a(I2
g137
tp772
a(I3
g129
tp773
a(I0
g129
tp774
a(I1
g129
tp775
a(I2
g137
tp776
a(I3
g137
tp777
asS'length'
p778
I1200
sS'agents'
p779
(lp780
(igame
Agent
p781
(dp782
S'index'
p783
I0
sba(igame
Agent
p784
(dp785
g783
I0
sba(igame
Agent
p786
(dp787
g783
I0
sba(igame
Agent
p788
(dp789
g783
I0
sbasS'redTeamName'
p790
S'Red'
p791
s.