(dp1
S'layout'
p2
(ilayout
Layout
p3
(dp4
S'capsules'
p5
(lp6
(I19
I3
tp7
a(I14
I14
tp8
asS'numGhosts'
p9
I4
sS'food'
p10
(igame
Grid
p11
(dp12
S'CELLS_PER_INT'
p13
I30
sS'width'
p14
I34
sS'data'
p15
(lp16
(lp17
I00
aI00
aI00
aI00
aI00
aI00
aI00
aI00
aI00
aI00
aI00
aI00
aI00
aI00
aI00
aI00
aI00
aI00
aa(lp18
I00
aI00
aI00
aI00
aI00
aI00
aI00
aI00
aI01
aI01
aI00
aI00
aI00
aI00
aI01
aI00
aI01
aI00
aa(lp19
I00
aI00
aI00
aI00
aI00
aI00
aI00
aI00
aI00
aI00
aI00
aI00
aI00
aI00
aI01
aI00
aI01
aI00
aa(lp20
I00
aI00
aI00
aI00
aI00
aI00
aI00
aI00
aI00
aI01
aI00
aI00
aI01
aI00
aI00
aI00
aI00
aI00
aa(lp21
I00
aI00
aI00
aI00
aI00
aI00
aI01
aI00
aI00
aI00
aI00
aI00
aI00
aI00
aI01
aI00
aI00
aI00
aa(lp22
I00
aI00
aI00
aI00
aI00
aI00
aI00
aI00
aI00
aI01
aI00
aI01
aI00
aI00
aI00
aI00
aI00
aI00
aa(lp23
I00
aI00
aI00
aI00
aI00
aI00
aI01
aI00
aI00
aI00
aI00
aI01
aI01
aI00
aI00
aI00
aI00
aI00
aa(lp24
I00
aI00
aI00
aI00
aI00
aI00
aI00
aI00
aI00
aI00
aI00
aI00
aI00
aI00
aI00
aI00
aI00
aI00
aa(lp25
I00
aI00
aI00
aI00
aI00
aI00
aI01
aI00
aI01
aI01
aI00
aI00
aI01
aI00
aI00
aI00
aI00
aI00
aa(lp26
I00
aI00
aI00
aI00
aI00
aI01
aI00
aI00
aI00
aI00
aI00
aI00
aI00
aI00
aI00
aI00
aI00
aI00
aa(lp27
I00
aI00
aI01
aI00
aI00
aI00
aI00
aI00
aI00
aI00
aI00
aI00
aI01
aI00
aI00
aI00
aI00
aI00
aa(lp28
I00
aI00
aI00
aI00
aI00
aI00
aI00
aI00
aI00
aI00
aI00
aI00
aI00
aI00
aI00
aI00
aI01
aI00
aa(lp29
I00
aI00
aI00
aI01
aI00
aI00
aI00
aI00
aI01
aI00
aI00
aI00
aI00
aI00
aI00
aI00
aI00
aI00
aa(lp30
I00
aI00
aI00
aI00
aI00
aI00
aI00
aI00
aI00
aI00
aI00
aI00
aI01
aI00
aI00
aI00
aI00
aI00
aa(lp31
I00
aI00
aI00
aI01
aI01
aI00
aI00
aI00
aI00
aI00
aI00
aI00
aI00
aI00
aI00
aI00
aI00
aI00
aa(lp32
I00
aI00
aI00
aI00
aI00
aI00
aI00
aI00
aI00
aI00
aI00
aI00
aI00
aI00
aI00
aI00
aI00
aI00
aa(lp33
I00
aI00
aI00
aI00
aI00
aI01
aI00
aI00
aI00
aI00
aI01
aI00
aI00
aI00
aI00
aI00
aI00
aI00
aa(lp34
I00
aI00
aI00
aI00
aI00
aI00
aI00
aI01
aI00
aI00
aI00
aI00
aI01
aI00
aI00
aI00
aI00
aI00
aa(lp35
I00
aI00
aI00
aI00
aI00
aI00
aI00
aI00
aI00
aI00
aI00
aI00
aI00
aI00
aI00
aI00
aI00
aI00
aa(lp36
I00
aI00
aI00
aI00
aI00
aI00
aI00
aI00
aI00
aI00
aI00
aI00
aI00
aI01
aI01
aI00
aI00
aI00
aa(lp37
I00
aI00
aI00
aI00
aI00
aI01
aI00
aI00
aI00
aI00
aI00
aI00
aI00
aI00
aI00
aI00
aI00
aI00
aa(lp38
I00
aI00
aI00
aI00
aI00
aI00
aI00
aI00
aI00
aI01
aI00
aI00
aI00
aI00
aI01
aI00
aI00
aI00
aa(lp39
I00
aI01
aI00
aI00
aI00
aI00
aI00
aI00
aI00
aI00
aI00
aI00
aI00
aI00
aI00
aI00
aI00
aI00
aa(lp40
I00
aI00
aI00
aI00
aI00
aI01
aI00
aI00
aI00
aI00
aI00
aI00
aI00
aI00
aI00
aI01
aI00
aI00
aa(lp41
I00
aI00
aI00
aI00
aI00
aI00
aI00
aI00
aI00
aI00
aI00
aI00
aI01
aI00
aI00
aI00
aI00
aI00
aa(lp42
I00
aI00
aI00
aI00
aI00
aI01
aI00
aI00
aI01
aI01
aI00
aI01
aI00
aI00
aI00
aI00
aI00
aI00
aa(lp43
I00
aI00
aI00
aI00
aI00
aI00
aI00
aI00
aI00
aI00
aI00
aI00
aI00
aI00
aI00
aI00
aI00
aI00
aa(lp44
I00
aI00
aI00
aI00
aI00
aI01
aI01
aI00
aI00
aI00
aI00
aI01
aI00
aI00
aI00
aI00
aI00
aI00
aa(lp45
I00
aI00
aI00
aI00
aI00
aI00
aI01
aI00
aI01
aI00
aI00
aI00
aI00
aI00
aI00
aI00
aI00
aI00
aa(lp46
I00
aI00
aI00
aI01
aI00
aI00
aI00
aI00
aI00
aI00
aI00
aI01
aI00
aI00
aI00
aI00
aI00
aI00
aa(lp47
I00
aI00
aI00
aI00
aI00
aI01
aI00
aI00
aI01
aI00
aI00
aI00
aI00
aI00
aI00
aI00
aI00
aI00
aa(lp48
I00
aI01
aI00
aI01
aI00
aI00
aI00
aI00
aI00
aI00
aI00
aI00
aI00
aI00
aI00
aI00
aI00
aI00
aa(lp49
I00
aI01
aI00
aI01
aI00
aI00
aI00
aI00
aI01
aI01
aI00
aI00
aI00
aI00
aI00
aI00
aI00
aI00
aa(lp50
I00
aI00
aI00
aI00
aI00
aI00
aI00
aI00
aI00
aI00
aI00
aI00
aI00
aI00
aI00
aI00
aI00
aI00
aasS'height'
p51
I18
sbsS'agentPositions'
p52
(lp53
(I00
(I1
I2
tp54
tp55
a(I00
(I32
I15
tp56
tp57
a(I00
(I1
I1
tp58
tp59
a(I00
(I32
I16
tp60
tp61
asg51
I18
sg14
I34
sS'walls'
p62
(igame
Grid
p63
(dp64
g13
I30
sg14
I34
sg15
(lp65
(lp66
I01
aI01
aI01
aI01
aI01
aI01
aI01
aI01
aI01
aI01
aI01
aI01
aI01
aI01
aI01
aI01
aI01
aI01
aa(lp67
I01
aI00
aI00
aI00
aI00
aI00
aI00
aI00
aI00
aI00
aI01
aI00
aI00
aI01
aI00
aI01
aI00
aI01
aa(lp68
I01
aI01
aI01
aI01
aI01
aI01
aI00
aI01
aI01
aI01
aI01
aI00
aI00
aI01
aI00
aI01
aI00
aI01
aa(lp69
I01
aI00
aI00
aI00
aI00
aI00
aI00
aI01
aI00
aI00
aI01
aI00
aI00
aI01
aI00
aI01
aI00
aI01
aa(lp70
I01
aI01
aI01
aI01
aI00
aI01
aI00
aI00
aI00
aI00
aI00
aI00
aI00
aI01
aI00
aI00
aI00
aI01
aa(lp71
I01
aI00
aI00
aI01
aI00
aI00
aI00
aI01
aI00
aI00
aI01
aI00
aI00
aI01
aI00
aI01
aI00
aI01
aa(lp72
I01
aI00
aI00
aI00
aI00
aI01
aI00
aI01
aI00
aI00
aI01
aI00
aI00
aI00
aI00
aI01
aI00
aI01
aa(lp73
I01
aI01
aI00
aI01
aI01
aI01
aI01
aI01
aI01
aI01
aI01
aI01
aI01
aI01
aI00
aI01
aI00
aI01
aa(lp74
I01
aI00
aI00
aI00
aI00
aI00
aI00
aI01
aI00
aI00
aI00
aI00
aI00
aI01
aI00
aI01
aI00
aI01
aa(lp75
I01
aI00
aI01
aI01
aI01
aI00
aI01
aI01
aI01
aI01
aI01
aI00
aI01
aI01
aI00
aI01
aI00
aI01
aa(lp76
I01
aI00
aI00
aI00
aI00
aI00
aI00
aI00
aI00
aI00
aI00
aI00
aI00
aI01
aI00
aI01
aI00
aI01
aa(lp77
I01
aI00
aI01
aI01
aI01
aI00
aI01
aI01
aI01
aI01
aI01
aI01
aI01
aI01
aI00
aI01
aI00
aI01
aa(lp78
I01
aI00
aI01
aI00
aI00
aI00
aI00
aI00
aI00
aI00
aI00
aI00
aI00
aI00
aI00
aI01
aI00
aI01
aa(lp79
I01
aI00
aI01
aI01
aI00
aI01
aI01
aI01
aI01
aI00
aI01
aI01
aI00
aI00
aI00
aI01
aI00
aI01
aa(lp80
I01
aI00
aI01
aI00
aI00
aI00
aI00
aI00
aI00
aI00
aI00
aI00
aI00
aI01
aI00
aI00
aI00
aI01
aa(lp81
I01
aI00
aI01
aI01
aI01
aI01
aI00
aI00
aI01
aI01
aI00
aI01
aI00
aI01
aI01
aI01
aI00
aI01
aa(lp82
I01
aI00
aI00
aI00
aI00
aI00
aI00
aI00
aI00
aI00
aI00
aI00
aI00
aI00
aI00
aI00
aI00
aI01
aa(lp83
I01
aI00
aI00
aI00
aI00
aI00
aI00
aI00
aI00
aI00
aI00
aI00
aI00
aI00
aI00
aI00
aI00
aI01
aa(lp84
I01
aI00
aI01
aI01
aI01
aI00
aI01
aI00
aI01
aI01
aI00
aI00
aI01
aI01
aI01
aI01
aI00
aI01
aa(lp85
I01
aI00
aI00
aI00
aI01
aI00
aI00
aI00
aI00
aI00
aI00
aI00
aI00
aI00
aI00
aI01
aI00
aI01
aa(lp86
I01
aI00
aI01
aI00
aI00
aI00
aI01
aI01
aI00
aI01
aI01
aI01
aI01
aI00
aI01
aI01
aI00
aI01
aa(lp87
I01
aI00
aI01
aI00
aI00
aI00
aI00
aI00
aI00
aI00
aI00
aI00
aI00
aI00
aI00
aI01
aI00
aI01
aa(lp88
I01
aI00
aI01
aI00
aI01
aI01
aI01
aI01
aI01
aI01
aI01
aI01
aI00
aI01
aI01
aI01
aI00
aI01
aa(lp89
I01
aI00
aI01
aI00
aI01
aI00
aI00
aI00
aI00
aI00
aI00
aI00
aI00
aI00
aI00
aI00
aI00
aI01
aa(lp90
I01
aI00
aI01
aI00
aI01
aI01
aI00
aI01
aI01
aI01
aI01
aI01
aI00
aI01
aI01
aI01
aI00
aI01
aa(lp91
I01
aI00
aI01
aI00
aI01
aI00
aI00
aI00
aI00
aI00
aI01
aI00
aI00
aI00
aI00
aI00
aI00
aI01
aa(lp92
I01
aI00
aI01
aI00
aI01
aI01
aI01
aI01
aI01
aI01
aI01
aI01
aI01
aI01
aI01
aI00
aI01
aI01
aa(lp93
I01
aI00
aI01
aI00
aI00
aI00
aI00
aI01
aI00
aI00
aI01
aI00
aI01
aI00
aI00
aI00
aI00
aI01
aa(lp94
I01
aI00
aI01
aI00
aI01
aI00
aI00
aI01
aI00
aI00
aI01
aI00
aI00
aI00
aI01
aI00
aI00
aI01
aa(lp95
I01
aI00
aI00
aI00
aI01
aI00
aI00
aI00
aI00
aI00
aI00
aI00
aI01
aI00
aI01
aI01
aI01
aI01
aa(lp96
I01
aI00
aI01
aI00
aI01
aI00
aI00
aI01
aI00
aI00
aI01
aI00
aI00
aI00
aI00
aI00
aI00
aI01
aa(lp97
I01
aI00
aI01
aI00
aI01
aI00
aI00
aI01
aI01
aI01
aI01
aI00
aI01
aI01
aI01
aI01
aI01
aI01
aa(lp98
I01
aI00
aI01
aI00
aI01
aI00
aI00
aI01
aI00
aI00
aI00
aI00
aI00
aI00
aI00
aI00
aI00
aI01
aa(lp99
I01
aI01
aI01
aI01
aI01
aI01
aI01
aI01
aI01
aI01
aI01
aI01
aI01
aI01
aI01
aI01
aI01
aI01
aasg51
I18
sbsS'totalFood'
p100
I60
sS'layoutText'
p101
(lp102
S'%%%%%%%%%%%%%%%%%%%%%%%%%%%%%%%%%%'
p103
aS'%..        .              %  % %4%'
p104
aS'%%%% %%%%%%%%% %  %%%%%.%    % %2%'
p105
aS'%.. .         o%  %.%.% % % %% % %'
p106
aS'%%%%%% %%%%%  %%  %.  % % %    % %'
p107
aS'%  .  .%.%.% .   .% %   . %% % % %'
p108
aS'%    ..%   % % %    % % %.%. .   %'
p109
aS'%%%% %%% % % %  .   % % %%%%% %% %'
p110
aS'%.%. . %.% %   %  % %.% %.%    %.%'
p111
aS'%.%    %.% %.% %  %   % %.% . .%.%'
p112
aS'% %% %%%%% % %   .  % % % %%% %%%%'
p113
aS'%   . .%.% % %    % % %   %..    %'
p114
aS'% % % %% .   % %.   . %.%.%.  .  %'
p115
aS'% %    % % %  .%  %%  %%%%% %%%%%%'
p116
aS'% % %% % % %.%.%  %o         . ..%'
p117
aS'%1% %    %.%%%%%  % %%%%%%%%% %%%%'
p118
aS'%3% %  %              .        ..%'
p119
aS'%%%%%%%%%%%%%%%%%%%%%%%%%%%%%%%%%%'
p120
asbsS'blueTeamName'
p121
S'Blue'
p122
sS'actions'
p123
(lp124
(I1
S'South'
p125
tp126
a(I2
S'North'
p127
tp128
a(I3
g125
tp129
a(I0
g127
tp130
a(I1
g125
tp131
a(I2
g127
tp132
a(I3
g125
tp133
a(I0
g127
tp134
a(I1
g125
tp135
a(I2
g127
tp136
a(I3
g125
tp137
a(I0
g127
tp138
a(I1
g125
tp139
a(I2
g127
tp140
a(I3
g125
tp141
a(I0
g127
tp142
a(I1
S'West'
p143
tp144
a(I2
g127
tp145
a(I3
g125
tp146
a(I0
S'East'
p147
tp148
a(I1
g143
tp149
a(I2
g147
tp150
a(I3
g143
tp151
a(I0
g147
tp152
a(I1
g143
tp153
a(I2
g147
tp154
a(I3
g143
tp155
a(I0
g147
tp156
a(I1
g143
tp157
a(I2
g147
tp158
a(I3
g143
tp159
a(I0
g147
tp160
a(I1
g127
tp161
a(I2
g127
tp162
a(I3
g125
tp163
a(I0
g125
tp164
a(I1
g127
tp165
a(I2
g127
tp166
a(I3
g125
tp167
a(I0
g125
tp168
a(I1
g143
tp169
a(I2
g127
tp170
a(I3
g125
tp171
a(I0
g147
tp172
a(I1
g127
tp173
a(I2
g127
tp174
a(I3
g125
tp175
a(I0
g125
tp176
a(I1
g127
tp177
a(I2
g127
tp178
a(I3
g125
tp179
a(I0
g125
tp180
a(I1
g143
tp181
a(I2
g127
tp182
a(I3
g143
tp183
a(I0
g147
tp184
a(I1
g143
tp185
a(I2
g147
tp186
a(I3
g143
tp187
a(I0
g147
tp188
a(I1
g127
tp189
a(I2
g147
tp190
a(I3
g125
tp191
a(I0
g125
tp192
a(I1
g143
tp193
a(I2
g127
tp194
a(I3
g125
tp195
a(I0
g147
tp196
a(I1
g143
tp197
a(I2
g127
tp198
a(I3
g125
tp199
a(I0
g147
tp200
a(I1
g143
tp201
a(I2
g147
tp202
a(I3
g143
tp203
a(I0
g147
tp204
a(I1
g143
tp205
a(I2
g147
tp206
a(I3
g143
tp207
a(I0
g147
tp208
a(I1
g143
tp209
a(I2
g147
tp210
a(I3
g143
tp211
a(I0
g147
tp212
a(I1
g143
tp213
a(I2
g147
tp214
a(I3
g143
tp215
a(I0
g147
tp216
a(I1
g143
tp217
a(I2
g147
tp218
a(I3
g143
tp219
a(I0
g147
tp220
a(I1
g143
tp221
a(I2
g147
tp222
a(I3
g143
tp223
a(I0
g147
tp224
a(I1
g143
tp225
a(I2
g147
tp226
a(I3
g143
tp227
a(I0
g147
tp228
a(I1
g143
tp229
a(I2
g147
tp230
a(I3
g143
tp231
a(I0
g147
tp232
a(I1
g143
tp233
a(I2
g127
tp234
a(I3
g125
tp235
a(I0
g143
tp236
a(I1
g143
tp237
a(I2
g127
tp238
a(I3
g125
tp239
a(I0
g127
tp240
a(I1
g143
tp241
a(I2
g143
tp242
a(I3
g143
tp243
a(I0
g127
tp244
a(I1
g143
tp245
a(I2
g143
tp246
a(I3
g143
tp247
a(I0
g127
tp248
a(I1
g143
tp249
a(I2
g143
tp250
a(I3
g127
tp251
a(I0
g127
tp252
a(I1
g143
tp253
a(I2
g143
tp254
a(I3
g127
tp255
a(I0
g147
tp256
a(I1
g143
tp257
a(I2
g143
tp258
a(I3
g143
tp259
a(I0
g147
tp260
a(I1
g143
tp261
a(I2
g143
tp262
a(I3
g127
tp263
a(I0
g127
tp264
a(I1
g143
tp265
a(I2
g143
tp266
a(I3
g127
tp267
a(I0
g127
tp268
a(I1
g143
tp269
a(I2
g143
tp270
a(I3
g147
tp271
a(I0
g143
tp272
a(I1
g143
tp273
a(I2
g143
tp274
a(I3
g127
tp275
a(I0
g143
tp276
a(I1
g143
tp277
a(I2
g143
tp278
a(I3
g127
tp279
a(I0
g127
tp280
a(I1
g147
tp281
a(I2
g143
tp282
a(I3
g143
tp283
a(I0
g127
tp284
a(I1
g125
tp285
a(I2
g147
tp286
a(I3
g127
tp287
a(I0
g127
tp288
a(I1
g125
tp289
a(I2
g125
tp290
a(I3
g127
tp291
a(I0
g127
tp292
a(I1
g125
tp293
a(I2
g125
tp294
a(I3
g127
tp295
a(I0
g147
tp296
a(I1
g125
tp297
a(I2
g147
tp298
a(I3
g147
tp299
a(I0
g147
tp300
a(I1
g143
tp301
a(I2
g147
tp302
a(I3
g143
tp303
a(I0
g147
tp304
a(I1
g143
tp305
a(I2
g147
tp306
a(I3
g127
tp307
a(I0
g147
tp308
a(I1
g143
tp309
a(I2
g147
tp310
a(I3
g127
tp311
a(I0
g125
tp312
a(I1
g143
tp313
a(I2
g147
tp314
a(I3
g143
tp315
a(I0
g125
tp316
a(I1
g127
tp317
a(I2
g147
tp318
a(I3
g143
tp319
a(I0
g147
tp320
a(I1
g127
tp321
a(I2
g147
tp322
a(I3
g143
tp323
a(I0
g125
tp324
a(I1
g143
tp325
a(I2
g147
tp326
a(I3
g127
tp327
a(I0
g125
tp328
a(I1
g127
tp329
a(I2
g125
tp330
a(I3
g127
tp331
a(I0
g147
tp332
a(I1
g127
tp333
a(I2
g147
tp334
a(I3
g147
tp335
a(I0
g147
tp336
a(I1
g143
tp337
a(I2
g127
tp338
a(I3
g127
tp339
a(I0
g125
tp340
a(I1
g143
tp341
a(I2
g147
tp342
a(I3
g127
tp343
a(I0
g147
tp344
a(I1
g127
tp345
a(I2
g127
tp346
a(I3
g147
tp347
a(I0
g147
tp348
a(I1
g143
tp349
a(I2
g127
tp350
a(I3
g147
tp351
a(I0
g147
tp352
a(I1
g143
tp353
a(I2
g147
tp354
a(I3
g147
tp355
a(I0
g147
tp356
a(I1
g143
tp357
a(I2
g147
tp358
a(I3
g125
tp359
a(I0
g147
tp360
a(I1
g143
tp361
a(I2
g125
tp362
a(I3
g125
tp363
a(I0
g147
tp364
a(I1
g143
tp365
a(I2
g125
tp366
a(I3
g125
tp367
a(I0
g147
tp368
a(I1
g143
tp369
a(I2
g125
tp370
a(I3
g143
tp371
a(I0
g147
tp372
a(I1
g143
tp373
a(I2
g127
tp374
a(I3
g147
tp375
a(I0
g127
tp376
a(I1
g143
tp377
a(I2
g127
tp378
a(I3
g143
tp379
a(I0
g127
tp380
a(I1
g143
tp381
a(I2
g127
tp382
a(I3
g125
tp383
a(I0
g127
tp384
a(I1
g143
tp385
a(I2
g127
tp386
a(I3
g147
tp387
a(I0
g127
tp388
a(I1
g143
tp389
a(I2
g127
tp390
a(I3
g143
tp391
a(I0
g127
tp392
a(I1
g125
tp393
a(I2
g147
tp394
a(I3
g143
tp395
a(I0
g147
tp396
a(I1
g125
tp397
a(I2
g147
tp398
a(I3
g143
tp399
a(I0
g143
tp400
a(I1
g143
tp401
a(I2
g147
tp402
a(I3
g143
tp403
a(I0
g147
tp404
a(I1
g143
tp405
a(I2
g127
tp406
a(I3
g143
tp407
a(I0
g127
tp408
a(I1
g125
tp409
a(I2
g127
tp410
a(I3
g125
tp411
a(I0
g127
tp412
a(I1
g125
tp413
a(I2
g127
tp414
a(I3
g125
tp415
a(I0
g127
tp416
a(I1
g125
tp417
a(I2
g127
tp418
a(I3
g125
tp419
a(I0
g127
tp420
a(I1
g125
tp421
a(I2
g127
tp422
a(I3
g125
tp423
a(I0
g127
tp424
a(I1
g125
tp425
a(I2
g147
tp426
a(I3
g127
tp427
a(I0
g127
tp428
a(I1
g147
tp429
a(I2
g147
tp430
a(I3
g147
tp431
a(I0
g143
tp432
a(I1
g147
tp433
a(I2
g127
tp434
a(I3
g143
tp435
a(I0
g127
tp436
a(I1
g125
tp437
a(I2
g127
tp438
a(I3
g125
tp439
a(I0
g147
tp440
a(I1
g125
tp441
a(I2
g127
tp442
a(I3
g127
tp443
a(I0
g125
tp444
a(I1
g125
tp445
a(I2
g147
tp446
a(I3
g127
tp447
a(I0
g125
tp448
a(I1
g125
tp449
a(I2
g147
tp450
a(I3
g127
tp451
a(I0
g147
tp452
a(I1
g125
tp453
a(I2
g147
tp454
a(I3
g127
tp455
a(I0
g147
tp456
a(I1
g125
tp457
a(I2
g147
tp458
a(I3
g147
tp459
a(I0
g127
tp460
a(I1
g127
tp461
a(I2
g147
tp462
a(I3
g147
tp463
a(I0
g127
tp464
a(I1
g143
tp465
a(I2
g147
tp466
a(I3
g147
tp467
a(I0
g125
tp468
a(I1
g143
tp469
a(I2
g125
tp470
a(I3
g147
tp471
a(I0
g125
tp472
a(I1
g125
tp473
a(I2
g125
tp474
a(I3
g147
tp475
a(I0
g125
tp476
a(I1
g127
tp477
a(I2
g147
tp478
a(I3
g125
tp479
a(I0
g125
tp480
a(I1
g127
tp481
a(I2
g147
tp482
a(I3
g147
tp483
a(I0
g125
tp484
a(I1
g143
tp485
a(I2
g147
tp486
a(I3
g147
tp487
a(I0
g125
tp488
a(I1
g143
tp489
a(I2
g147
tp490
a(I3
g125
tp491
a(I0
g143
tp492
a(I1
g143
tp493
a(I2
g125
tp494
a(I3
g125
tp495
a(I0
g143
tp496
a(I1
g147
tp497
a(I2
g125
tp498
a(I3
g125
tp499
a(I0
g143
tp500
a(I1
g125
tp501
a(I2
g143
tp502
a(I3
g125
tp503
a(I0
g143
tp504
a(I1
g125
tp505
a(I2
g143
tp506
a(I3
g143
tp507
a(I0
g147
tp508
a(I1
g125
tp509
a(I2
g125
tp510
a(I3
g143
tp511
a(I0
g143
tp512
a(I1
g125
tp513
a(I2
g143
tp514
a(I3
g125
tp515
a(I0
g125
tp516
a(I1
g147
tp517
a(I2
g143
tp518
a(I3
g127
tp519
a(I0
g143
tp520
a(I1
g147
tp521
a(I2
g125
tp522
a(I3
g143
tp523
a(I0
g147
tp524
a(I1
g147
tp525
a(I2
g127
tp526
a(I3
g147
tp527
a(I0
g147
tp528
a(I1
g147
tp529
a(I2
g147
tp530
a(I3
g125
tp531
a(I0
g125
tp532
a(I1
g147
tp533
a(I2
g147
tp534
a(I3
g125
tp535
a(I0
g127
tp536
a(I1
g147
tp537
a(I2
g125
tp538
a(I3
g127
tp539
a(I0
g125
tp540
a(I1
g147
tp541
a(I2
g125
tp542
a(I3
g125
tp543
a(I0
g127
tp544
a(I1
g143
tp545
a(I2
g125
tp546
a(I3
g127
tp547
a(I0
g127
tp548
a(I1
g143
tp549
a(I2
g147
tp550
a(I3
g127
tp551
a(I0
g143
tp552
a(I1
g143
tp553
a(I2
g147
tp554
a(I3
g125
tp555
a(I0
g143
tp556
a(I1
g143
tp557
a(I2
g125
tp558
a(I3
g125
tp559
a(I0
g127
tp560
a(I1
g143
tp561
a(I2
g125
tp562
a(I3
g125
tp563
a(I0
g127
tp564
a(I1
g143
tp565
a(I2
g125
tp566
a(I3
g127
tp567
a(I0
g127
tp568
a(I1
g143
tp569
a(I2
g125
tp570
a(I3
g143
tp571
a(I0
g147
tp572
a(I1
g143
tp573
a(I2
g127
tp574
a(I3
g147
tp575
a(I0
g147
tp576
a(I1
g143
tp577
a(I2
g127
tp578
a(I3
g147
tp579
a(I0
g147
tp580
a(I1
g127
tp581
a(I2
g127
tp582
a(I3
g147
tp583
a(I0
g127
tp584
a(I1
g127
tp585
a(I2
g127
tp586
a(I3
g127
tp587
a(I0
g147
tp588
a(I1
g127
tp589
a(I2
g127
tp590
a(I3
g127
tp591
a(I0
g147
tp592
a(I1
g127
tp593
a(I2
g127
tp594
a(I3
g127
tp595
a(I0
g127
tp596
a(I1
g127
tp597
a(I2
g125
tp598
a(I3
g127
tp599
a(I0
g127
tp600
a(I1
g125
tp601
a(I2
g125
tp602
a(I3
g127
tp603
a(I0
g147
tp604
a(I1
g147
tp605
a(I2
g143
tp606
a(I3
g127
tp607
a(I0
g147
tp608
a(I1
g143
tp609
a(I2
g143
tp610
a(I3
g127
tp611
a(I0
g125
tp612
a(I1
g147
tp613
a(I2
g125
tp614
a(I3
g127
tp615
a(I0
g147
tp616
a(I1
g143
tp617
a(I2
g125
tp618
a(I3
g147
tp619
a(I0
g147
tp620
a(I1
g147
tp621
a(I2
g143
tp622
a(I3
g147
tp623
a(I0
g127
tp624
a(I1
g143
tp625
a(I2
g143
tp626
a(I3
g125
tp627
a(I0
g127
tp628
a(I1
g147
tp629
a(I2
g127
tp630
a(I3
g147
tp631
a(I0
g127
tp632
a(I1
g147
tp633
a(I2
g143
tp634
a(I3
g147
tp635
a(I0
g127
tp636
a(I1
g127
tp637
a(I2
g143
tp638
a(I3
g127
tp639
a(I0
g143
tp640
a(I1
g127
tp641
a(I2
g127
tp642
a(I3
g127
tp643
a(I0
g143
tp644
a(I1
g127
tp645
a(I2
g127
tp646
a(I3
g127
tp647
a(I0
g143
tp648
a(I1
g127
tp649
a(I2
g127
tp650
a(I3
g127
tp651
a(I0
g143
tp652
a(I1
g127
tp653
a(I2
g127
tp654
a(I3
g143
tp655
a(I0
g143
tp656
a(I1
g127
tp657
a(I2
g127
tp658
a(I3
g143
tp659
a(I0
g143
tp660
a(I1
g143
tp661
a(I2
g127
tp662
a(I3
g143
tp663
a(I0
g125
tp664
a(I1
g143
tp665
a(I2
g143
tp666
a(I3
g143
tp667
a(I0
g125
tp668
a(I1
g147
tp669
a(I2
g143
tp670
a(I3
g143
tp671
a(I0
g143
tp672
a(I1
g125
tp673
a(I2
g147
tp674
a(I3
g143
tp675
a(I0
g125
tp676
a(I1
g125
tp677
a(I2
g147
tp678
a(I3
g125
tp679
a(I0
g125
tp680
a(I1
g125
tp681
a(I2
g125
tp682
a(I3
g143
tp683
a(I0
g147
tp684
a(I1
g125
tp685
a(I2
g125
tp686
a(I3
g125
tp687
a(I0
g125
tp688
a(I1
g143
tp689
a(I2
g125
tp690
a(I3
g125
tp691
a(I0
g147
tp692
a(I1
g143
tp693
a(I2
g125
tp694
a(I3
g147
tp695
a(I0
g147
tp696
a(I1
g143
tp697
a(I2
g125
tp698
a(I3
g125
tp699
a(I0
g127
tp700
a(I1
g143
tp701
a(I2
g125
tp702
a(I3
g125
tp703
a(I0
g127
tp704
a(I1
g127
tp705
a(I2
g147
tp706
a(I3
g147
tp707
a(I0
g147
tp708
a(I1
g127
tp709
a(I2
g147
tp710
a(I3
g147
tp711
a(I0
g147
tp712
a(I1
g143
tp713
a(I2
g127
tp714
a(I3
g127
tp715
a(I0
g125
tp716
a(I1
g127
tp717
a(I2
g127
tp718
a(I3
g127
tp719
a(I0
g147
tp720
a(I1
g127
tp721
a(I2
g127
tp722
a(I3
g147
tp723
a(I0
g147
tp724
a(I1
g143
tp725
a(I2
g127
tp726
a(I3
g147
tp727
a(I0
g125
tp728
a(I1
g143
tp729
a(I2
g147
tp730
a(I3
g125
tp731
a(I0
g125
tp732
a(I1
g127
tp733
a(I2
g147
tp734
a(I3
g147
tp735
a(I0
g125
tp736
a(I1
g143
tp737
a(I2
g127
tp738
a(I3
g147
tp739
a(I0
g125
tp740
a(I1
g143
tp741
a(I2
g147
tp742
a(I3
g125
tp743
a(I0
g125
tp744
a(I1
g143
tp745
a(I2
g147
tp746
a(I3
g125
tp747
a(I0
g125
tp748
a(I1
g143
tp749
a(I2
g127
tp750
a(I3
g125
tp751
a(I0
g127
tp752
a(I1
g143
tp753
a(I2
g127
tp754
a(I3
g125
tp755
a(I0
g125
tp756
a(I1
g143
tp757
a(I2
g127
tp758
a(I3
g125
tp759
a(I0
g127
tp760
a(I1
g143
tp761
a(I2
g125
tp762
a(I3
g127
tp763
a(I0
g127
tp764
a(I1
g143
tp765
a(I2
g125
tp766
a(I3
g127
tp767
a(I0
g127
tp768
a(I1
g143
tp769
a(I2
g127
tp770
a(I3
g127
tp771
a(I0
g127
tp772
a(I1
g143
tp773
a(I2
g127
tp774
a(I3
g127
tp775
a(I0
g127
tp776
a(I1
g143
tp777
a(I2
g127
tp778
a(I3
g127
tp779
a(I0
g147
tp780
a(I1
g143
tp781
a(I2
g127
tp782
a(I3
g127
tp783
a(I0
g147
tp784
a(I1
g143
tp785
a(I2
g127
tp786
a(I3
g127
tp787
a(I0
g125
tp788
a(I1
g143
tp789
a(I2
g143
tp790
a(I3
g127
tp791
a(I0
g125
tp792
a(I1
g143
tp793
a(I2
g143
tp794
a(I3
g127
tp795
a(I0
g147
tp796
a(I1
g143
tp797
a(I2
g143
tp798
a(I3
g143
tp799
a(I0
g147
tp800
a(I1
g143
tp801
a(I2
g143
tp802
a(I3
g143
tp803
a(I0
g147
tp804
a(I1
g143
tp805
a(I2
g143
tp806
a(I3
g143
tp807
a(I0
g125
tp808
a(I1
g143
tp809
a(I2
g143
tp810
a(I3
g143
tp811
a(I0
g125
tp812
a(I1
g143
tp813
a(I2
g143
tp814
a(I3
g143
tp815
a(I0
g147
tp816
a(I1
g143
tp817
a(I2
g143
tp818
a(I3
g143
tp819
a(I0
g147
tp820
a(I1
g143
tp821
a(I2
g143
tp822
a(I3
g143
tp823
a(I0
g125
tp824
a(I1
g143
tp825
a(I2
g143
tp826
a(I3
g143
tp827
a(I0
g147
tp828
a(I1
g143
tp829
a(I2
g143
tp830
a(I3
g143
tp831
a(I0
g147
tp832
a(I1
g147
tp833
a(I2
g143
tp834
a(I3
g143
tp835
a(I0
g147
tp836
a(I1
g147
tp837
a(I2
g143
tp838
a(I3
g143
tp839
a(I0
g147
tp840
a(I1
g125
tp841
a(I2
g147
tp842
a(I3
g143
tp843
a(I0
g147
tp844
a(I1
g125
tp845
a(I2
g125
tp846
a(I3
g143
tp847
a(I0
g147
tp848
a(I1
g125
tp849
a(I2
g125
tp850
a(I3
g143
tp851
a(I0
g147
tp852
a(I1
g125
tp853
a(I2
g147
tp854
a(I3
g143
tp855
a(I0
g147
tp856
a(I1
g143
tp857
a(I2
g143
tp858
a(I3
g143
tp859
a(I0
g147
tp860
a(I1
g143
tp861
a(I2
g127
tp862
a(I3
g147
tp863
a(I0
g147
tp864
a(I1
g143
tp865
a(I2
g127
tp866
a(I3
g147
tp867
a(I0
g147
tp868
a(I1
g143
tp869
a(I2
g147
tp870
a(I3
g147
tp871
a(I0
g127
tp872
a(I1
g127
tp873
a(I2
g147
tp874
a(I3
g147
tp875
a(I0
g127
tp876
a(I1
g127
tp877
a(I2
g147
tp878
a(I3
g143
tp879
a(I0
g147
tp880
a(I1
g143
tp881
a(I2
g147
tp882
a(I3
g143
tp883
a(I0
g127
tp884
a(I1
g127
tp885
a(I2
g147
tp886
a(I3
g125
tp887
a(I0
g127
tp888
a(I1
g127
tp889
a(I2
g147
tp890
a(I3
g125
tp891
a(I0
g143
tp892
a(I1
g143
tp893
a(I2
g147
tp894
a(I3
g125
tp895
a(I0
g143
tp896
a(I1
g143
tp897
a(I2
g147
tp898
a(I3
g125
tp899
a(I0
g143
tp900
a(I1
g127
tp901
a(I2
g147
tp902
a(I3
g125
tp903
a(I0
g143
tp904
a(I1
g143
tp905
a(I2
g147
tp906
a(I3
g143
tp907
a(I0
g147
tp908
a(I1
g143
tp909
a(I2
g147
tp910
a(I3
g143
tp911
a(I0
g147
tp912
a(I1
g143
tp913
a(I2
g147
tp914
a(I3
g143
tp915
a(I0
g147
tp916
a(I1
g143
tp917
a(I2
g125
tp918
a(I3
g125
tp919
a(I0
g147
tp920
a(I1
g143
tp921
a(I2
g125
tp922
a(I3
g125
tp923
a(I0
g147
tp924
a(I1
g143
tp925
a(I2
g125
tp926
a(I3
g125
tp927
a(I0
g127
tp928
a(I1
g143
tp929
a(I2
g125
tp930
a(I3
g125
tp931
a(I0
g127
tp932
a(I1
g143
tp933
a(I2
g125
tp934
a(I3
g125
tp935
a(I0
g127
tp936
a(I1
g143
tp937
a(I2
g127
tp938
a(I3
g143
tp939
a(I0
g125
tp940
a(I1
g143
tp941
a(I2
g127
tp942
a(I3
g143
tp943
a(I0
g127
tp944
a(I1
g143
tp945
a(I2
g127
tp946
a(I3
g125
tp947
a(I0
g125
tp948
a(I1
g143
tp949
a(I2
g127
tp950
a(I3
g125
tp951
a(I0
g127
tp952
a(I1
g143
tp953
a(I2
g127
tp954
a(I3
g125
tp955
a(I0
g127
tp956
a(I1
g143
tp957
a(I2
g143
tp958
a(I3
g143
tp959
a(I0
g125
tp960
a(I1
g143
tp961
a(I2
g143
tp962
a(I3
g143
tp963
a(I0
g143
tp964
a(I1
g143
tp965
a(I2
g143
tp966
a(I3
g143
tp967
a(I0
g143
tp968
a(I1
g143
tp969
a(I2
g143
tp970
a(I3
g143
tp971
a(I0
g125
tp972
a(I1
g143
tp973
a(I2
g143
tp974
a(I3
g143
tp975
a(I0
g143
tp976
a(I1
g143
tp977
a(I2
g143
tp978
a(I3
g143
tp979
a(I0
g143
tp980
a(I1
g143
tp981
a(I2
g143
tp982
a(I3
g143
tp983
a(I0
g143
tp984
a(I1
g143
tp985
a(I2
g143
tp986
a(I3
g127
tp987
a(I0
g147
tp988
a(I1
g125
tp989
a(I2
g143
tp990
a(I3
g127
tp991
a(I0
g127
tp992
a(I1
g125
tp993
a(I2
g143
tp994
a(I3
g143
tp995
a(I0
g143
tp996
a(I1
g143
tp997
a(I2
g143
tp998
a(I3
g143
tp999
a(I0
g147
tp1000
a(I1
g143
tp1001
a(I2
g143
tp1002
a(I3
g143
tp1003
a(I0
g127
tp1004
a(I1
g143
tp1005
a(I2
g125
tp1006
a(I3
g127
tp1007
a(I0
g127
tp1008
a(I1
g147
tp1009
a(I2
g125
tp1010
a(I3
g127
tp1011
a(I0
g147
tp1012
a(I1
g147
tp1013
a(I2
g143
tp1014
a(I3
g127
tp1015
a(I0
g147
tp1016
a(I1
g125
tp1017
a(I2
g147
tp1018
a(I3
g127
tp1019
a(I0
g125
tp1020
a(I1
g125
tp1021
a(I2
g147
tp1022
a(I3
g127
tp1023
a(I0
g125
tp1024
a(I1
g125
tp1025
a(I2
g147
tp1026
a(I3
g147
tp1027
a(I0
g147
tp1028
a(I1
g125
tp1029
a(I2
g147
tp1030
a(I3
g147
tp1031
a(I0
g147
tp1032
a(I1
g143
tp1033
a(I2
g147
tp1034
a(I3
g125
tp1035
a(I0
g127
tp1036
a(I1
g143
tp1037
a(I2
g147
tp1038
a(I3
g125
tp1039
a(I0
g127
tp1040
a(I1
g143
tp1041
a(I2
g147
tp1042
a(I3
g147
tp1043
a(I0
g127
tp1044
a(I1
g143
tp1045
a(I2
g147
tp1046
a(I3
g147
tp1047
a(I0
g127
tp1048
a(I1
g127
tp1049
a(I2
g147
tp1050
a(I3
g127
tp1051
a(I0
g147
tp1052
a(I1
g127
tp1053
a(I2
g147
tp1054
a(I3
g127
tp1055
a(I0
g147
tp1056
a(I1
g143
tp1057
a(I2
g125
tp1058
a(I3
g127
tp1059
a(I0
g125
tp1060
a(I1
g127
tp1061
a(I2
g125
tp1062
a(I3
g127
tp1063
a(I0
g125
tp1064
a(I1
g127
tp1065
a(I2
g147
tp1066
a(I3
g147
tp1067
a(I0
g125
tp1068
a(I1
g143
tp1069
a(I2
g147
tp1070
a(I3
g147
tp1071
a(I0
g125
tp1072
a(I1
g143
tp1073
a(I2
g147
tp1074
a(I3
g125
tp1075
a(I0
g125
tp1076
a(I1
g127
tp1077
a(I2
g125
tp1078
a(I3
g125
tp1079
a(I0
g125
tp1080
a(I1
g143
tp1081
a(I2
g125
tp1082
a(I3
g125
tp1083
a(I0
g127
tp1084
a(I1
g143
tp1085
a(I2
g125
tp1086
a(I3
g125
tp1087
a(I0
g125
tp1088
a(I1
g143
tp1089
a(I2
g125
tp1090
a(I3
g125
tp1091
a(I0
g127
tp1092
a(I1
g143
tp1093
a(I2
g125
tp1094
a(I3
g127
tp1095
a(I0
g127
tp1096
a(I1
g143
tp1097
a(I2
g125
tp1098
a(I3
g127
tp1099
a(I0
g127
tp1100
a(I1
g143
tp1101
a(I2
g125
tp1102
a(I3
g127
tp1103
a(I0
g127
tp1104
a(I1
g143
tp1105
a(I2
g127
tp1106
a(I3
g127
tp1107
a(I0
g127
tp1108
a(I1
g143
tp1109
a(I2
g127
tp1110
a(I3
g127
tp1111
a(I0
g147
tp1112
a(I1
g143
tp1113
a(I2
g127
tp1114
a(I3
g143
tp1115
a(I0
g147
tp1116
a(I1
g143
tp1117
a(I2
g127
tp1118
a(I3
g143
tp1119
a(I0
g125
tp1120
a(I1
g143
tp1121
a(I2
g127
tp1122
a(I3
g127
tp1123
a(I0
g125
tp1124
a(I1
g143
tp1125
a(I2
g127
tp1126
a(I3
g143
tp1127
a(I0
g147
tp1128
a(I1
g143
tp1129
a(I2
g127
tp1130
a(I3
g143
tp1131
a(I0
g147
tp1132
a(I1
g143
tp1133
a(I2
g125
tp1134
a(I3
g125
tp1135
a(I0
g147
tp1136
a(I1
g143
tp1137
a(I2
g125
tp1138
a(I3
g125
tp1139
a(I0
g125
tp1140
a(I1
g143
tp1141
a(I2
g125
tp1142
a(I3
g143
tp1143
a(I0
g125
tp1144
a(I1
g143
tp1145
a(I2
g125
tp1146
a(I3
g143
tp1147
a(I0
g147
tp1148
a(I1
g143
tp1149
a(I2
g125
tp1150
a(I3
g143
tp1151
a(I0
g147
tp1152
a(I1
g143
tp1153
a(I2
g127
tp1154
a(I3
g125
tp1155
a(I0
g125
tp1156
a(I1
g143
tp1157
a(I2
g127
tp1158
a(I3
g147
tp1159
a(I0
g147
tp1160
a(I1
g143
tp1161
a(I2
g127
tp1162
a(I3
g125
tp1163
a(I0
g147
tp1164
a(I1
g125
tp1165
a(I2
g127
tp1166
a(I3
g143
tp1167
a(I0
g147
tp1168
a(I1
g125
tp1169
a(I2
g125
tp1170
a(I3
g147
tp1171
a(I0
g147
tp1172
a(I1
g147
tp1173
a(I2
g125
tp1174
a(I3
g125
tp1175
a(I0
g147
tp1176
a(I1
g147
tp1177
a(I2
g127
tp1178
a(I3
g143
tp1179
a(I0
g147
tp1180
a(I1
g125
tp1181
a(I2
g125
tp1182
a(I3
g147
tp1183
a(I0
g147
tp1184
a(I1
g125
tp1185
a(I2
g127
tp1186
a(I3
g143
tp1187
a(I0
g147
tp1188
a(I1
g125
tp1189
a(I2
g125
tp1190
a(I3
g147
tp1191
a(I0
g147
tp1192
a(I1
g143
tp1193
a(I2
g127
tp1194
a(I3
g143
tp1195
a(I0
g147
tp1196
a(I1
g143
tp1197
a(I2
g125
tp1198
a(I3
g147
tp1199
a(I0
g147
tp1200
a(I1
g143
tp1201
a(I2
g125
tp1202
a(I3
g125
tp1203
a(I0
g147
tp1204
a(I1
g127
tp1205
a(I2
g127
tp1206
a(I3
g125
tp1207
a(I0
g147
tp1208
a(I1
g143
tp1209
a(I2
g127
tp1210
a(I3
g125
tp1211
a(I0
g147
tp1212
a(I1
g143
tp1213
a(I2
g127
tp1214
a(I3
g125
tp1215
a(I0
g143
tp1216
a(I1
g147
tp1217
a(I2
g127
tp1218
a(I3
g125
tp1219
a(I0
g143
tp1220
a(I1
g147
tp1221
a(I2
g143
tp1222
a(I3
g125
tp1223
a(I0
g143
tp1224
a(I1
g147
tp1225
a(I2
g143
tp1226
a(I3
g125
tp1227
a(I0
g147
tp1228
a(I1
g125
tp1229
a(I2
g143
tp1230
a(I3
g147
tp1231
a(I0
g147
tp1232
a(I1
g125
tp1233
a(I2
g143
tp1234
a(I3
g147
tp1235
a(I0
g147
tp1236
a(I1
g125
tp1237
a(I2
g127
tp1238
a(I3
g147
tp1239
a(I0
g147
tp1240
a(I1
g143
tp1241
a(I2
g127
tp1242
a(I3
g147
tp1243
a(I0
g147
tp1244
a(I1
g147
tp1245
a(I2
g143
tp1246
a(I3
g147
tp1247
a(I0
g147
tp1248
a(I1
g125
tp1249
a(I2
g143
tp1250
a(I3
g147
tp1251
a(I0
g147
tp1252
a(I1
g125
tp1253
a(I2
g143
tp1254
a(I3
g147
tp1255
a(I0
g147
tp1256
a(I1
g125
tp1257
a(I2
g143
tp1258
a(I3
g147
tp1259
a(I0
g147
tp1260
a(I1
g147
tp1261
a(I2
g143
tp1262
a(I3
g147
tp1263
a(I0
g147
tp1264
a(I1
g147
tp1265
a(I2
g143
tp1266
a(I3
g147
tp1267
a(I0
g127
tp1268
a(I1
g143
tp1269
a(I2
g125
tp1270
a(I3
g147
tp1271
a(I0
g127
tp1272
a(I1
g143
tp1273
a(I2
g125
tp1274
a(I3
g147
tp1275
a(I0
g143
tp1276
a(I1
g127
tp1277
a(I2
g125
tp1278
a(I3
g127
tp1279
a(I0
g143
tp1280
a(I1
g127
tp1281
a(I2
g143
tp1282
a(I3
g127
tp1283
a(I0
g127
tp1284
a(I1
g147
tp1285
a(I2
g143
tp1286
a(I3
g143
tp1287
a(I0
g127
tp1288
a(I1
g127
tp1289
a(I2
g125
tp1290
a(I3
g143
tp1291
a(I0
g147
tp1292
a(I1
g147
tp1293
a(I2
g125
tp1294
a(I3
g127
tp1295
a(I0
g147
tp1296
a(I1
g143
tp1297
a(I2
g147
tp1298
a(I3
g127
tp1299
a(I0
g147
tp1300
a(I1
g125
tp1301
a(I2
g125
tp1302
a(I3
g147
tp1303
a(I0
g127
tp1304
a(I1
g125
tp1305
a(I2
g143
tp1306
a(I3
g147
tp1307
a(I0
g143
tp1308
a(I1
g125
tp1309
a(I2
g125
tp1310
a(I3
g127
tp1311
a(I0
g127
tp1312
a(I1
g125
tp1313
a(I2
g125
tp1314
a(I3
g127
tp1315
a(I0
g127
tp1316
a(I1
g143
tp1317
a(I2
g147
tp1318
a(I3
g127
tp1319
a(I0
g127
tp1320
a(I1
g143
tp1321
a(I2
g125
tp1322
a(I3
g125
tp1323
a(I0
g127
tp1324
a(I1
g143
tp1325
a(I2
g125
tp1326
a(I3
g125
tp1327
a(I0
g147
tp1328
asS'length'
p1329
I1200
sS'agents'
p1330
(lp1331
(igame
Agent
p1332
(dp1333
S'index'
p1334
I0
sba(igame
Agent
p1335
(dp1336
g1334
I0
sba(igame
Agent
p1337
(dp1338
g1334
I0
sba(igame
Agent
p1339
(dp1340
g1334
I0
sbasS'redTeamName'
p1341
S'Red'
p1342
s.