(dp1
S'layout'
p2
(ilayout
Layout
p3
(dp4
S'capsules'
p5
(lp6
(I19
I3
tp7
a(I14
I14
tp8
asS'numGhosts'
p9
I4
sS'food'
p10
(igame
Grid
p11
(dp12
S'CELLS_PER_INT'
p13
I30
sS'width'
p14
I34
sS'data'
p15
(lp16
(lp17
I00
aI00
aI00
aI00
aI00
aI00
aI00
aI00
aI00
aI00
aI00
aI00
aI00
aI00
aI00
aI00
aI00
aI00
aa(lp18
I00
aI00
aI00
aI00
aI00
aI00
aI00
aI00
aI01
aI01
aI00
aI00
aI00
aI00
aI01
aI00
aI01
aI00
aa(lp19
I00
aI00
aI00
aI00
aI00
aI00
aI00
aI00
aI00
aI00
aI00
aI00
aI00
aI00
aI01
aI00
aI01
aI00
aa(lp20
I00
aI00
aI00
aI00
aI00
aI00
aI00
aI00
aI00
aI01
aI00
aI00
aI01
aI00
aI00
aI00
aI00
aI00
aa(lp21
I00
aI00
aI00
aI00
aI00
aI00
aI01
aI00
aI00
aI00
aI00
aI00
aI00
aI00
aI01
aI00
aI00
aI00
aa(lp22
I00
aI00
aI00
aI00
aI00
aI00
aI00
aI00
aI00
aI01
aI00
aI01
aI00
aI00
aI00
aI00
aI00
aI00
aa(lp23
I00
aI00
aI00
aI00
aI00
aI00
aI01
aI00
aI00
aI00
aI00
aI01
aI01
aI00
aI00
aI00
aI00
aI00
aa(lp24
I00
aI00
aI00
aI00
aI00
aI00
aI00
aI00
aI00
aI00
aI00
aI00
aI00
aI00
aI00
aI00
aI00
aI00
aa(lp25
I00
aI00
aI00
aI00
aI00
aI00
aI01
aI00
aI01
aI01
aI00
aI00
aI01
aI00
aI00
aI00
aI00
aI00
aa(lp26
I00
aI00
aI00
aI00
aI00
aI01
aI00
aI00
aI00
aI00
aI00
aI00
aI00
aI00
aI00
aI00
aI00
aI00
aa(lp27
I00
aI00
aI01
aI00
aI00
aI00
aI00
aI00
aI00
aI00
aI00
aI00
aI01
aI00
aI00
aI00
aI00
aI00
aa(lp28
I00
aI00
aI00
aI00
aI00
aI00
aI00
aI00
aI00
aI00
aI00
aI00
aI00
aI00
aI00
aI00
aI01
aI00
aa(lp29
I00
aI00
aI00
aI01
aI00
aI00
aI00
aI00
aI01
aI00
aI00
aI00
aI00
aI00
aI00
aI00
aI00
aI00
aa(lp30
I00
aI00
aI00
aI00
aI00
aI00
aI00
aI00
aI00
aI00
aI00
aI00
aI01
aI00
aI00
aI00
aI00
aI00
aa(lp31
I00
aI00
aI00
aI01
aI01
aI00
aI00
aI00
aI00
aI00
aI00
aI00
aI00
aI00
aI00
aI00
aI00
aI00
aa(lp32
I00
aI00
aI00
aI00
aI00
aI00
aI00
aI00
aI00
aI00
aI00
aI00
aI00
aI00
aI00
aI00
aI00
aI00
aa(lp33
I00
aI00
aI00
aI00
aI00
aI01
aI00
aI00
aI00
aI00
aI01
aI00
aI00
aI00
aI00
aI00
aI00
aI00
aa(lp34
I00
aI00
aI00
aI00
aI00
aI00
aI00
aI01
aI00
aI00
aI00
aI00
aI01
aI00
aI00
aI00
aI00
aI00
aa(lp35
I00
aI00
aI00
aI00
aI00
aI00
aI00
aI00
aI00
aI00
aI00
aI00
aI00
aI00
aI00
aI00
aI00
aI00
aa(lp36
I00
aI00
aI00
aI00
aI00
aI00
aI00
aI00
aI00
aI00
aI00
aI00
aI00
aI01
aI01
aI00
aI00
aI00
aa(lp37
I00
aI00
aI00
aI00
aI00
aI01
aI00
aI00
aI00
aI00
aI00
aI00
aI00
aI00
aI00
aI00
aI00
aI00
aa(lp38
I00
aI00
aI00
aI00
aI00
aI00
aI00
aI00
aI00
aI01
aI00
aI00
aI00
aI00
aI01
aI00
aI00
aI00
aa(lp39
I00
aI01
aI00
aI00
aI00
aI00
aI00
aI00
aI00
aI00
aI00
aI00
aI00
aI00
aI00
aI00
aI00
aI00
aa(lp40
I00
aI00
aI00
aI00
aI00
aI01
aI00
aI00
aI00
aI00
aI00
aI00
aI00
aI00
aI00
aI01
aI00
aI00
aa(lp41
I00
aI00
aI00
aI00
aI00
aI00
aI00
aI00
aI00
aI00
aI00
aI00
aI01
aI00
aI00
aI00
aI00
aI00
aa(lp42
I00
aI00
aI00
aI00
aI00
aI01
aI00
aI00
aI01
aI01
aI00
aI01
aI00
aI00
aI00
aI00
aI00
aI00
aa(lp43
I00
aI00
aI00
aI00
aI00
aI00
aI00
aI00
aI00
aI00
aI00
aI00
aI00
aI00
aI00
aI00
aI00
aI00
aa(lp44
I00
aI00
aI00
aI00
aI00
aI01
aI01
aI00
aI00
aI00
aI00
aI01
aI00
aI00
aI00
aI00
aI00
aI00
aa(lp45
I00
aI00
aI00
aI00
aI00
aI00
aI01
aI00
aI01
aI00
aI00
aI00
aI00
aI00
aI00
aI00
aI00
aI00
aa(lp46
I00
aI00
aI00
aI01
aI00
aI00
aI00
aI00
aI00
aI00
aI00
aI01
aI00
aI00
aI00
aI00
aI00
aI00
aa(lp47
I00
aI00
aI00
aI00
aI00
aI01
aI00
aI00
aI01
aI00
aI00
aI00
aI00
aI00
aI00
aI00
aI00
aI00
aa(lp48
I00
aI01
aI00
aI01
aI00
aI00
aI00
aI00
aI00
aI00
aI00
aI00
aI00
aI00
aI00
aI00
aI00
aI00
aa(lp49
I00
aI01
aI00
aI01
aI00
aI00
aI00
aI00
aI01
aI01
aI00
aI00
aI00
aI00
aI00
aI00
aI00
aI00
aa(lp50
I00
aI00
aI00
aI00
aI00
aI00
aI00
aI00
aI00
aI00
aI00
aI00
aI00
aI00
aI00
aI00
aI00
aI00
aasS'height'
p51
I18
sbsS'agentPositions'
p52
(lp53
(I00
(I1
I2
tp54
tp55
a(I00
(I32
I15
tp56
tp57
a(I00
(I1
I1
tp58
tp59
a(I00
(I32
I16
tp60
tp61
asg51
I18
sg14
I34
sS'walls'
p62
(igame
Grid
p63
(dp64
g13
I30
sg14
I34
sg15
(lp65
(lp66
I01
aI01
aI01
aI01
aI01
aI01
aI01
aI01
aI01
aI01
aI01
aI01
aI01
aI01
aI01
aI01
aI01
aI01
aa(lp67
I01
aI00
aI00
aI00
aI00
aI00
aI00
aI00
aI00
aI00
aI01
aI00
aI00
aI01
aI00
aI01
aI00
aI01
aa(lp68
I01
aI01
aI01
aI01
aI01
aI01
aI00
aI01
aI01
aI01
aI01
aI00
aI00
aI01
aI00
aI01
aI00
aI01
aa(lp69
I01
aI00
aI00
aI00
aI00
aI00
aI00
aI01
aI00
aI00
aI01
aI00
aI00
aI01
aI00
aI01
aI00
aI01
aa(lp70
I01
aI01
aI01
aI01
aI00
aI01
aI00
aI00
aI00
aI00
aI00
aI00
aI00
aI01
aI00
aI00
aI00
aI01
aa(lp71
I01
aI00
aI00
aI01
aI00
aI00
aI00
aI01
aI00
aI00
aI01
aI00
aI00
aI01
aI00
aI01
aI00
aI01
aa(lp72
I01
aI00
aI00
aI00
aI00
aI01
aI00
aI01
aI00
aI00
aI01
aI00
aI00
aI00
aI00
aI01
aI00
aI01
aa(lp73
I01
aI01
aI00
aI01
aI01
aI01
aI01
aI01
aI01
aI01
aI01
aI01
aI01
aI01
aI00
aI01
aI00
aI01
aa(lp74
I01
aI00
aI00
aI00
aI00
aI00
aI00
aI01
aI00
aI00
aI00
aI00
aI00
aI01
aI00
aI01
aI00
aI01
aa(lp75
I01
aI00
aI01
aI01
aI01
aI00
aI01
aI01
aI01
aI01
aI01
aI00
aI01
aI01
aI00
aI01
aI00
aI01
aa(lp76
I01
aI00
aI00
aI00
aI00
aI00
aI00
aI00
aI00
aI00
aI00
aI00
aI00
aI01
aI00
aI01
aI00
aI01
aa(lp77
I01
aI00
aI01
aI01
aI01
aI00
aI01
aI01
aI01
aI01
aI01
aI01
aI01
aI01
aI00
aI01
aI00
aI01
aa(lp78
I01
aI00
aI01
aI00
aI00
aI00
aI00
aI00
aI00
aI00
aI00
aI00
aI00
aI00
aI00
aI01
aI00
aI01
aa(lp79
I01
aI00
aI01
aI01
aI00
aI01
aI01
aI01
aI01
aI00
aI01
aI01
aI00
aI00
aI00
aI01
aI00
aI01
aa(lp80
I01
aI00
aI01
aI00
aI00
aI00
aI00
aI00
aI00
aI00
aI00
aI00
aI00
aI01
aI00
aI00
aI00
aI01
aa(lp81
I01
aI00
aI01
aI01
aI01
aI01
aI00
aI00
aI01
aI01
aI00
aI01
aI00
aI01
aI01
aI01
aI00
aI01
aa(lp82
I01
aI00
aI00
aI00
aI00
aI00
aI00
aI00
aI00
aI00
aI00
aI00
aI00
aI00
aI00
aI00
aI00
aI01
aa(lp83
I01
aI00
aI00
aI00
aI00
aI00
aI00
aI00
aI00
aI00
aI00
aI00
aI00
aI00
aI00
aI00
aI00
aI01
aa(lp84
I01
aI00
aI01
aI01
aI01
aI00
aI01
aI00
aI01
aI01
aI00
aI00
aI01
aI01
aI01
aI01
aI00
aI01
aa(lp85
I01
aI00
aI00
aI00
aI01
aI00
aI00
aI00
aI00
aI00
aI00
aI00
aI00
aI00
aI00
aI01
aI00
aI01
aa(lp86
I01
aI00
aI01
aI00
aI00
aI00
aI01
aI01
aI00
aI01
aI01
aI01
aI01
aI00
aI01
aI01
aI00
aI01
aa(lp87
I01
aI00
aI01
aI00
aI00
aI00
aI00
aI00
aI00
aI00
aI00
aI00
aI00
aI00
aI00
aI01
aI00
aI01
aa(lp88
I01
aI00
aI01
aI00
aI01
aI01
aI01
aI01
aI01
aI01
aI01
aI01
aI00
aI01
aI01
aI01
aI00
aI01
aa(lp89
I01
aI00
aI01
aI00
aI01
aI00
aI00
aI00
aI00
aI00
aI00
aI00
aI00
aI00
aI00
aI00
aI00
aI01
aa(lp90
I01
aI00
aI01
aI00
aI01
aI01
aI00
aI01
aI01
aI01
aI01
aI01
aI00
aI01
aI01
aI01
aI00
aI01
aa(lp91
I01
aI00
aI01
aI00
aI01
aI00
aI00
aI00
aI00
aI00
aI01
aI00
aI00
aI00
aI00
aI00
aI00
aI01
aa(lp92
I01
aI00
aI01
aI00
aI01
aI01
aI01
aI01
aI01
aI01
aI01
aI01
aI01
aI01
aI01
aI00
aI01
aI01
aa(lp93
I01
aI00
aI01
aI00
aI00
aI00
aI00
aI01
aI00
aI00
aI01
aI00
aI01
aI00
aI00
aI00
aI00
aI01
aa(lp94
I01
aI00
aI01
aI00
aI01
aI00
aI00
aI01
aI00
aI00
aI01
aI00
aI00
aI00
aI01
aI00
aI00
aI01
aa(lp95
I01
aI00
aI00
aI00
aI01
aI00
aI00
aI00
aI00
aI00
aI00
aI00
aI01
aI00
aI01
aI01
aI01
aI01
aa(lp96
I01
aI00
aI01
aI00
aI01
aI00
aI00
aI01
aI00
aI00
aI01
aI00
aI00
aI00
aI00
aI00
aI00
aI01
aa(lp97
I01
aI00
aI01
aI00
aI01
aI00
aI00
aI01
aI01
aI01
aI01
aI00
aI01
aI01
aI01
aI01
aI01
aI01
aa(lp98
I01
aI00
aI01
aI00
aI01
aI00
aI00
aI01
aI00
aI00
aI00
aI00
aI00
aI00
aI00
aI00
aI00
aI01
aa(lp99
I01
aI01
aI01
aI01
aI01
aI01
aI01
aI01
aI01
aI01
aI01
aI01
aI01
aI01
aI01
aI01
aI01
aI01
aasg51
I18
sbsS'totalFood'
p100
I60
sS'layoutText'
p101
(lp102
S'%%%%%%%%%%%%%%%%%%%%%%%%%%%%%%%%%%'
p103
aS'%..        .              %  % %4%'
p104
aS'%%%% %%%%%%%%% %  %%%%%.%    % %2%'
p105
aS'%.. .         o%  %.%.% % % %% % %'
p106
aS'%%%%%% %%%%%  %%  %.  % % %    % %'
p107
aS'%  .  .%.%.% .   .% %   . %% % % %'
p108
aS'%    ..%   % % %    % % %.%. .   %'
p109
aS'%%%% %%% % % %  .   % % %%%%% %% %'
p110
aS'%.%. . %.% %   %  % %.% %.%    %.%'
p111
aS'%.%    %.% %.% %  %   % %.% . .%.%'
p112
aS'% %% %%%%% % %   .  % % % %%% %%%%'
p113
aS'%   . .%.% % %    % % %   %..    %'
p114
aS'% % % %% .   % %.   . %.%.%.  .  %'
p115
aS'% %    % % %  .%  %%  %%%%% %%%%%%'
p116
aS'% % %% % % %.%.%  %o         . ..%'
p117
aS'%1% %    %.%%%%%  % %%%%%%%%% %%%%'
p118
aS'%3% %  %              .        ..%'
p119
aS'%%%%%%%%%%%%%%%%%%%%%%%%%%%%%%%%%%'
p120
asbsS'blueTeamName'
p121
S'Blue'
p122
sS'actions'
p123
(lp124
(I0
S'North'
p125
tp126
a(I1
S'South'
p127
tp128
a(I2
g125
tp129
a(I3
g127
tp130
a(I0
g125
tp131
a(I1
g127
tp132
a(I2
g125
tp133
a(I3
g127
tp134
a(I0
g125
tp135
a(I1
g127
tp136
a(I2
g125
tp137
a(I3
g127
tp138
a(I0
g125
tp139
a(I1
g127
tp140
a(I2
g125
tp141
a(I3
g127
tp142
a(I0
S'East'
p143
tp144
a(I1
S'West'
p145
tp146
a(I2
g125
tp147
a(I3
g127
tp148
a(I0
g143
tp149
a(I1
g145
tp150
a(I2
g143
tp151
a(I3
g145
tp152
a(I0
g127
tp153
a(I1
g145
tp154
a(I2
g143
tp155
a(I3
g145
tp156
a(I0
g127
tp157
a(I1
g145
tp158
a(I2
g143
tp159
a(I3
g145
tp160
a(I0
g143
tp161
a(I1
g125
tp162
a(I2
g125
tp163
a(I3
g127
tp164
a(I0
g143
tp165
a(I1
g125
tp166
a(I2
g125
tp167
a(I3
g127
tp168
a(I0
g143
tp169
a(I1
g145
tp170
a(I2
g125
tp171
a(I3
g127
tp172
a(I0
g127
tp173
a(I1
g125
tp174
a(I2
g125
tp175
a(I3
g127
tp176
a(I0
g127
tp177
a(I1
g125
tp178
a(I2
g125
tp179
a(I3
g127
tp180
a(I0
g143
tp181
a(I1
g145
tp182
a(I2
g125
tp183
a(I3
g145
tp184
a(I0
g143
tp185
a(I1
g145
tp186
a(I2
g143
tp187
a(I3
g145
tp188
a(I0
g127
tp189
a(I1
g125
tp190
a(I2
g143
tp191
a(I3
g127
tp192
a(I0
g143
tp193
a(I1
g145
tp194
a(I2
g125
tp195
a(I3
g127
tp196
a(I0
g143
tp197
a(I1
g145
tp198
a(I2
g125
tp199
a(I3
g127
tp200
a(I0
g143
tp201
a(I1
g145
tp202
a(I2
g143
tp203
a(I3
g145
tp204
a(I0
g143
tp205
a(I1
g145
tp206
a(I2
g143
tp207
a(I3
g145
tp208
a(I0
g143
tp209
a(I1
g145
tp210
a(I2
g143
tp211
a(I3
g145
tp212
a(I0
g143
tp213
a(I1
g145
tp214
a(I2
g143
tp215
a(I3
g145
tp216
a(I0
g143
tp217
a(I1
g145
tp218
a(I2
g143
tp219
a(I3
g145
tp220
a(I0
g143
tp221
a(I1
g145
tp222
a(I2
g143
tp223
a(I3
g145
tp224
a(I0
g143
tp225
a(I1
g145
tp226
a(I2
g143
tp227
a(I3
g145
tp228
a(I0
g125
tp229
a(I1
g145
tp230
a(I2
g143
tp231
a(I3
g145
tp232
a(I0
g125
tp233
a(I1
g145
tp234
a(I2
g125
tp235
a(I3
g127
tp236
a(I0
g125
tp237
a(I1
g145
tp238
a(I2
g125
tp239
a(I3
g127
tp240
a(I0
g125
tp241
a(I1
g145
tp242
a(I2
g143
tp243
a(I3
g145
tp244
a(I0
g143
tp245
a(I1
g145
tp246
a(I2
g143
tp247
a(I3
g145
tp248
a(I0
g143
tp249
a(I1
g145
tp250
a(I2
g127
tp251
a(I3
g125
tp252
a(I0
g143
tp253
a(I1
g143
tp254
a(I2
g127
tp255
a(I3
g125
tp256
a(I0
g127
tp257
a(I1
g143
tp258
a(I2
g143
tp259
a(I3
g145
tp260
a(I0
g127
tp261
a(I1
g143
tp262
a(I2
g127
tp263
a(I3
g125
tp264
a(I0
g145
tp265
a(I1
g143
tp266
a(I2
g127
tp267
a(I3
g125
tp268
a(I0
g127
tp269
a(I1
g143
tp270
a(I2
g127
tp271
a(I3
g143
tp272
a(I0
g127
tp273
a(I1
g143
tp274
a(I2
g127
tp275
a(I3
g145
tp276
a(I0
g143
tp277
a(I1
g143
tp278
a(I2
g127
tp279
a(I3
g125
tp280
a(I0
g143
tp281
a(I1
g145
tp282
a(I2
g145
tp283
a(I3
g125
tp284
a(I0
g143
tp285
a(I1
g145
tp286
a(I2
g125
tp287
a(I3
g125
tp288
a(I0
g143
tp289
a(I1
g145
tp290
a(I2
g125
tp291
a(I3
g125
tp292
a(I0
g143
tp293
a(I1
g127
tp294
a(I2
g125
tp295
a(I3
g125
tp296
a(I0
g143
tp297
a(I1
g127
tp298
a(I2
g145
tp299
a(I3
g143
tp300
a(I0
g143
tp301
a(I1
g145
tp302
a(I2
g145
tp303
a(I3
g145
tp304
a(I0
g143
tp305
a(I1
g145
tp306
a(I2
g143
tp307
a(I3
g143
tp308
a(I0
g143
tp309
a(I1
g143
tp310
a(I2
g145
tp311
a(I3
g145
tp312
a(I0
g143
tp313
a(I1
g145
tp314
a(I2
g127
tp315
a(I3
g125
tp316
a(I0
g143
tp317
a(I1
g143
tp318
a(I2
g127
tp319
a(I3
g125
tp320
a(I0
g143
tp321
a(I1
g127
tp322
a(I2
g127
tp323
a(I3
g145
tp324
a(I0
g143
tp325
a(I1
g127
tp326
a(I2
g127
tp327
a(I3
g145
tp328
a(I0
g145
tp329
a(I1
g145
tp330
a(I2
g127
tp331
a(I3
g145
tp332
a(I0
g145
tp333
a(I1
g127
tp334
a(I2
g143
tp335
a(I3
g145
tp336
a(I0
g145
tp337
a(I1
g127
tp338
a(I2
g143
tp339
a(I3
g125
tp340
a(I0
g125
tp341
a(I1
g127
tp342
a(I2
g143
tp343
a(I3
g125
tp344
a(I0
g125
tp345
a(I1
g127
tp346
a(I2
g143
tp347
a(I3
g145
tp348
a(I0
g145
tp349
a(I1
g127
tp350
a(I2
g143
tp351
a(I3
g145
tp352
a(I0
g145
tp353
a(I1
g127
tp354
a(I2
g125
tp355
a(I3
g145
tp356
a(I0
g145
tp357
a(I1
g127
tp358
a(I2
g143
tp359
a(I3
g145
tp360
a(I0
g145
tp361
a(I1
g127
tp362
a(I2
g143
tp363
a(I3
g145
tp364
a(I0
g145
tp365
a(I1
g127
tp366
a(I2
g125
tp367
a(I3
g145
tp368
a(I0
g145
tp369
a(I1
g125
tp370
a(I2
g125
tp371
a(I3
g145
tp372
a(I0
g145
tp373
a(I1
g143
tp374
a(I2
g125
tp375
a(I3
g143
tp376
a(I0
g145
tp377
a(I1
g143
tp378
a(I2
g125
tp379
a(I3
g145
tp380
a(I0
g125
tp381
a(I1
g125
tp382
a(I2
g125
tp383
a(I3
g143
tp384
a(I0
g125
tp385
a(I1
g125
tp386
a(I2
g125
tp387
a(I3
g145
tp388
a(I0
g145
tp389
a(I1
g143
tp390
a(I2
g127
tp391
a(I3
g143
tp392
a(I0
g145
tp393
a(I1
g143
tp394
a(I2
g145
tp395
a(I3
g127
tp396
a(I0
g145
tp397
a(I1
g143
tp398
a(I2
g145
tp399
a(I3
g127
tp400
a(I0
g143
tp401
a(I1
g145
tp402
a(I2
g125
tp403
a(I3
g127
tp404
a(I0
g145
tp405
a(I1
g145
tp406
a(I2
g127
tp407
a(I3
g145
tp408
a(I0
g145
tp409
a(I1
g145
tp410
a(I2
g127
tp411
a(I3
g145
tp412
a(I0
g127
tp413
a(I1
g127
tp414
a(I2
g127
tp415
a(I3
g145
tp416
a(I0
g125
tp417
a(I1
g127
tp418
a(I2
g145
tp419
a(I3
g125
tp420
a(I0
g125
tp421
a(I1
g127
tp422
a(I2
g145
tp423
a(I3
g143
tp424
a(I0
g127
tp425
a(I1
g125
tp426
a(I2
g127
tp427
a(I3
g127
tp428
a(I0
g127
tp429
a(I1
g125
tp430
a(I2
g125
tp431
a(I3
g127
tp432
a(I0
g127
tp433
a(I1
g125
tp434
a(I2
g127
tp435
a(I3
g127
tp436
a(I0
g125
tp437
a(I1
g143
tp438
a(I2
g127
tp439
a(I3
g145
tp440
a(I0
g127
tp441
a(I1
g143
tp442
a(I2
g127
tp443
a(I3
g143
tp444
a(I0
g125
tp445
a(I1
g143
tp446
a(I2
g125
tp447
a(I3
g143
tp448
a(I0
g127
tp449
a(I1
g145
tp450
a(I2
g127
tp451
a(I3
g145
tp452
a(I0
g125
tp453
a(I1
g145
tp454
a(I2
g125
tp455
a(I3
g127
tp456
a(I0
g127
tp457
a(I1
g145
tp458
a(I2
g125
tp459
a(I3
g127
tp460
a(I0
g125
tp461
a(I1
g143
tp462
a(I2
g125
tp463
a(I3
g127
tp464
a(I0
g125
tp465
a(I1
g145
tp466
a(I2
g127
tp467
a(I3
g143
tp468
a(I0
g125
tp469
a(I1
g143
tp470
a(I2
g125
tp471
a(I3
g143
tp472
a(I0
g145
tp473
a(I1
g145
tp474
a(I2
g127
tp475
a(I3
g145
tp476
a(I0
g143
tp477
a(I1
g125
tp478
a(I2
g125
tp479
a(I3
g145
tp480
a(I0
g125
tp481
a(I1
g125
tp482
a(I2
g127
tp483
a(I3
g145
tp484
a(I0
g143
tp485
a(I1
g125
tp486
a(I2
g125
tp487
a(I3
g145
tp488
a(I0
g143
tp489
a(I1
g145
tp490
a(I2
g125
tp491
a(I3
g145
tp492
a(I0
g125
tp493
a(I1
g145
tp494
a(I2
g127
tp495
a(I3
g125
tp496
a(I0
g143
tp497
a(I1
g143
tp498
a(I2
g127
tp499
a(I3
g125
tp500
a(I0
g143
tp501
a(I1
g145
tp502
a(I2
g127
tp503
a(I3
g125
tp504
a(I0
g125
tp505
a(I1
g143
tp506
a(I2
g125
tp507
a(I3
g127
tp508
a(I0
g125
tp509
a(I1
g145
tp510
a(I2
g127
tp511
a(I3
g127
tp512
a(I0
g125
tp513
a(I1
g143
tp514
a(I2
g125
tp515
a(I3
g127
tp516
a(I0
g125
tp517
a(I1
g145
tp518
a(I2
g125
tp519
a(I3
g143
tp520
a(I0
g143
tp521
a(I1
g143
tp522
a(I2
g125
tp523
a(I3
g143
tp524
a(I0
g143
tp525
a(I1
g145
tp526
a(I2
g127
tp527
a(I3
g143
tp528
a(I0
g143
tp529
a(I1
g143
tp530
a(I2
g127
tp531
a(I3
g125
tp532
a(I0
g143
tp533
a(I1
g145
tp534
a(I2
g125
tp535
a(I3
g125
tp536
a(I0
g127
tp537
a(I1
g127
tp538
a(I2
g127
tp539
a(I3
g125
tp540
a(I0
g125
tp541
a(I1
g127
tp542
a(I2
g125
tp543
a(I3
g125
tp544
a(I0
g145
tp545
a(I1
g127
tp546
a(I2
g125
tp547
a(I3
g125
tp548
a(I0
g145
tp549
a(I1
g127
tp550
a(I2
g125
tp551
a(I3
g143
tp552
a(I0
g125
tp553
a(I1
g145
tp554
a(I2
g127
tp555
a(I3
g143
tp556
a(I0
g125
tp557
a(I1
g145
tp558
a(I2
g125
tp559
a(I3
g125
tp560
a(I0
g125
tp561
a(I1
g145
tp562
a(I2
g127
tp563
a(I3
g125
tp564
a(I0
g127
tp565
a(I1
g145
tp566
a(I2
g127
tp567
a(I3
g125
tp568
a(I0
g127
tp569
a(I1
g125
tp570
a(I2
g125
tp571
a(I3
g145
tp572
a(I0
g127
tp573
a(I1
g127
tp574
a(I2
g125
tp575
a(I3
g145
tp576
a(I0
g127
tp577
a(I1
g143
tp578
a(I2
g125
tp579
a(I3
g145
tp580
a(I0
g127
tp581
a(I1
g143
tp582
a(I2
g127
tp583
a(I3
g145
tp584
a(I0
g127
tp585
a(I1
g127
tp586
a(I2
g127
tp587
a(I3
g145
tp588
a(I0
g127
tp589
a(I1
g127
tp590
a(I2
g127
tp591
a(I3
g143
tp592
a(I0
g127
tp593
a(I1
g127
tp594
a(I2
g127
tp595
a(I3
g143
tp596
a(I0
g127
tp597
a(I1
g127
tp598
a(I2
g127
tp599
a(I3
g143
tp600
a(I0
g127
tp601
a(I1
g143
tp602
a(I2
g127
tp603
a(I3
g125
tp604
a(I0
g125
tp605
a(I1
g143
tp606
a(I2
g127
tp607
a(I3
g125
tp608
a(I0
g143
tp609
a(I1
g143
tp610
a(I2
g127
tp611
a(I3
g145
tp612
a(I0
g143
tp613
a(I1
g143
tp614
a(I2
g127
tp615
a(I3
g145
tp616
a(I0
g127
tp617
a(I1
g143
tp618
a(I2
g127
tp619
a(I3
g145
tp620
a(I0
g125
tp621
a(I1
g143
tp622
a(I2
g127
tp623
a(I3
g143
tp624
a(I0
g145
tp625
a(I1
g143
tp626
a(I2
g125
tp627
a(I3
g143
tp628
a(I0
g145
tp629
a(I1
g125
tp630
a(I2
g125
tp631
a(I3
g143
tp632
a(I0
g125
tp633
a(I1
g125
tp634
a(I2
g125
tp635
a(I3
g143
tp636
a(I0
g125
tp637
a(I1
g125
tp638
a(I2
g125
tp639
a(I3
g143
tp640
a(I0
g125
tp641
a(I1
g125
tp642
a(I2
g125
tp643
a(I3
g143
tp644
a(I0
g125
tp645
a(I1
g145
tp646
a(I2
g127
tp647
a(I3
g143
tp648
a(I0
g125
tp649
a(I1
g143
tp650
a(I2
g125
tp651
a(I3
g143
tp652
a(I0
g125
tp653
a(I1
g145
tp654
a(I2
g127
tp655
a(I3
g143
tp656
a(I0
g145
tp657
a(I1
g143
tp658
a(I2
g125
tp659
a(I3
g143
tp660
a(I0
g145
tp661
a(I1
g145
tp662
a(I2
g127
tp663
a(I3
g143
tp664
a(I0
g125
tp665
a(I1
g143
tp666
a(I2
g125
tp667
a(I3
g143
tp668
a(I0
g145
tp669
a(I1
g145
tp670
a(I2
g127
tp671
a(I3
g143
tp672
a(I0
g145
tp673
a(I1
g143
tp674
a(I2
g125
tp675
a(I3
g143
tp676
a(I0
g127
tp677
a(I1
g145
tp678
a(I2
g127
tp679
a(I3
g143
tp680
a(I0
g127
tp681
a(I1
g143
tp682
a(I2
g125
tp683
a(I3
g143
tp684
a(I0
g145
tp685
a(I1
g145
tp686
a(I2
g127
tp687
a(I3
g127
tp688
a(I0
g145
tp689
a(I1
g143
tp690
a(I2
g125
tp691
a(I3
g127
tp692
a(I0
g125
tp693
a(I1
g145
tp694
a(I2
g127
tp695
a(I3
g145
tp696
a(I0
g127
tp697
a(I1
g143
tp698
a(I2
g125
tp699
a(I3
g143
tp700
a(I0
g125
tp701
a(I1
g145
tp702
a(I2
g127
tp703
a(I3
g145
tp704
a(I0
g127
tp705
a(I1
g143
tp706
a(I2
g125
tp707
a(I3
g143
tp708
a(I0
g125
tp709
a(I1
g145
tp710
a(I2
g127
tp711
a(I3
g145
tp712
a(I0
g127
tp713
a(I1
g143
tp714
a(I2
g125
tp715
a(I3
g143
tp716
a(I0
g125
tp717
a(I1
g145
tp718
a(I2
g127
tp719
a(I3
g145
tp720
a(I0
g127
tp721
a(I1
g143
tp722
a(I2
g125
tp723
a(I3
g143
tp724
a(I0
g125
tp725
a(I1
g145
tp726
a(I2
g127
tp727
a(I3
g145
tp728
a(I0
g127
tp729
a(I1
g143
tp730
a(I2
g125
tp731
a(I3
g143
tp732
a(I0
g125
tp733
a(I1
g145
tp734
a(I2
g127
tp735
a(I3
g145
tp736
a(I0
g127
tp737
a(I1
g143
tp738
a(I2
g125
tp739
a(I3
g143
tp740
a(I0
g125
tp741
a(I1
g145
tp742
a(I2
g127
tp743
a(I3
g145
tp744
a(I0
g127
tp745
a(I1
g143
tp746
a(I2
g125
tp747
a(I3
g143
tp748
a(I0
g125
tp749
a(I1
g145
tp750
a(I2
g127
tp751
a(I3
g145
tp752
a(I0
g127
tp753
a(I1
g143
tp754
a(I2
g125
tp755
a(I3
g143
tp756
a(I0
g125
tp757
a(I1
g145
tp758
a(I2
g127
tp759
a(I3
g145
tp760
a(I0
g127
tp761
a(I1
g143
tp762
a(I2
g125
tp763
a(I3
g143
tp764
a(I0
g125
tp765
a(I1
g145
tp766
a(I2
g127
tp767
a(I3
g145
tp768
a(I0
g127
tp769
a(I1
g143
tp770
a(I2
g125
tp771
a(I3
g143
tp772
a(I0
g125
tp773
a(I1
g145
tp774
a(I2
g127
tp775
a(I3
g145
tp776
a(I0
g127
tp777
a(I1
g143
tp778
a(I2
g125
tp779
a(I3
g143
tp780
a(I0
g125
tp781
a(I1
g145
tp782
a(I2
g127
tp783
a(I3
g145
tp784
a(I0
g127
tp785
a(I1
g143
tp786
a(I2
g125
tp787
a(I3
g143
tp788
a(I0
g125
tp789
a(I1
g145
tp790
a(I2
g127
tp791
a(I3
g145
tp792
a(I0
g127
tp793
a(I1
g143
tp794
a(I2
g125
tp795
a(I3
g143
tp796
a(I0
g125
tp797
a(I1
g145
tp798
a(I2
g127
tp799
a(I3
g145
tp800
a(I0
g127
tp801
a(I1
g143
tp802
a(I2
g125
tp803
a(I3
g143
tp804
a(I0
g125
tp805
a(I1
g145
tp806
a(I2
g127
tp807
a(I3
g145
tp808
a(I0
g127
tp809
a(I1
g143
tp810
a(I2
g125
tp811
a(I3
g143
tp812
a(I0
g125
tp813
a(I1
g145
tp814
a(I2
g127
tp815
a(I3
g145
tp816
a(I0
g127
tp817
a(I1
g143
tp818
a(I2
g125
tp819
a(I3
g143
tp820
a(I0
g125
tp821
a(I1
g145
tp822
a(I2
g127
tp823
a(I3
g145
tp824
a(I0
g127
tp825
a(I1
g143
tp826
a(I2
g125
tp827
a(I3
g143
tp828
a(I0
g125
tp829
a(I1
g145
tp830
a(I2
g127
tp831
a(I3
g145
tp832
a(I0
g127
tp833
a(I1
g143
tp834
a(I2
g125
tp835
a(I3
g143
tp836
a(I0
g125
tp837
a(I1
g145
tp838
a(I2
g127
tp839
a(I3
g145
tp840
a(I0
g127
tp841
a(I1
g143
tp842
a(I2
g125
tp843
a(I3
g143
tp844
a(I0
g125
tp845
a(I1
g145
tp846
a(I2
g127
tp847
a(I3
g145
tp848
a(I0
g127
tp849
a(I1
g143
tp850
a(I2
g125
tp851
a(I3
g143
tp852
a(I0
g125
tp853
a(I1
g145
tp854
a(I2
g127
tp855
a(I3
g145
tp856
a(I0
g127
tp857
a(I1
g143
tp858
a(I2
g125
tp859
a(I3
g143
tp860
a(I0
g125
tp861
a(I1
g145
tp862
a(I2
g127
tp863
a(I3
g145
tp864
a(I0
g127
tp865
a(I1
g143
tp866
a(I2
g125
tp867
a(I3
g143
tp868
a(I0
g125
tp869
a(I1
g145
tp870
a(I2
g127
tp871
a(I3
g145
tp872
a(I0
g127
tp873
a(I1
g143
tp874
a(I2
g125
tp875
a(I3
g143
tp876
a(I0
g125
tp877
a(I1
g145
tp878
a(I2
g127
tp879
a(I3
g145
tp880
a(I0
g127
tp881
a(I1
g143
tp882
a(I2
g125
tp883
a(I3
g143
tp884
a(I0
g125
tp885
a(I1
g145
tp886
a(I2
g127
tp887
a(I3
g145
tp888
a(I0
g127
tp889
a(I1
g143
tp890
a(I2
g125
tp891
a(I3
g143
tp892
a(I0
g125
tp893
a(I1
g145
tp894
a(I2
g127
tp895
a(I3
g145
tp896
a(I0
g127
tp897
a(I1
g143
tp898
a(I2
g125
tp899
a(I3
g143
tp900
a(I0
g125
tp901
a(I1
g145
tp902
a(I2
g127
tp903
a(I3
g145
tp904
a(I0
g127
tp905
a(I1
g143
tp906
a(I2
g125
tp907
a(I3
g143
tp908
a(I0
g125
tp909
a(I1
g145
tp910
a(I2
g127
tp911
a(I3
g145
tp912
a(I0
g127
tp913
a(I1
g143
tp914
a(I2
g125
tp915
a(I3
g143
tp916
a(I0
g125
tp917
a(I1
g145
tp918
a(I2
g127
tp919
a(I3
g145
tp920
a(I0
g127
tp921
a(I1
g143
tp922
a(I2
g125
tp923
a(I3
g143
tp924
a(I0
g125
tp925
a(I1
g145
tp926
a(I2
g127
tp927
a(I3
g145
tp928
a(I0
g127
tp929
a(I1
g143
tp930
a(I2
g125
tp931
a(I3
g143
tp932
a(I0
g125
tp933
a(I1
g145
tp934
a(I2
g127
tp935
a(I3
g145
tp936
a(I0
g127
tp937
a(I1
g143
tp938
a(I2
g125
tp939
a(I3
g143
tp940
a(I0
g125
tp941
a(I1
g145
tp942
a(I2
g127
tp943
a(I3
g145
tp944
a(I0
g127
tp945
a(I1
g143
tp946
a(I2
g125
tp947
a(I3
g143
tp948
a(I0
g125
tp949
a(I1
g145
tp950
a(I2
g127
tp951
a(I3
g145
tp952
a(I0
g127
tp953
a(I1
g143
tp954
a(I2
g125
tp955
a(I3
g143
tp956
a(I0
g125
tp957
a(I1
g145
tp958
a(I2
g127
tp959
a(I3
g145
tp960
a(I0
g127
tp961
a(I1
g143
tp962
a(I2
g125
tp963
a(I3
g143
tp964
a(I0
g125
tp965
a(I1
g145
tp966
a(I2
g127
tp967
a(I3
g145
tp968
a(I0
g127
tp969
a(I1
g143
tp970
a(I2
g125
tp971
a(I3
g143
tp972
a(I0
g125
tp973
a(I1
g145
tp974
a(I2
g127
tp975
a(I3
g145
tp976
a(I0
g127
tp977
a(I1
g143
tp978
a(I2
g125
tp979
a(I3
g143
tp980
a(I0
g125
tp981
a(I1
g145
tp982
a(I2
g127
tp983
a(I3
g145
tp984
a(I0
g127
tp985
a(I1
g143
tp986
a(I2
g125
tp987
a(I3
g143
tp988
a(I0
g125
tp989
a(I1
g145
tp990
a(I2
g127
tp991
a(I3
g145
tp992
a(I0
g127
tp993
a(I1
g143
tp994
a(I2
g125
tp995
a(I3
g143
tp996
a(I0
g125
tp997
a(I1
g145
tp998
a(I2
g127
tp999
a(I3
g145
tp1000
a(I0
g127
tp1001
a(I1
g143
tp1002
a(I2
g125
tp1003
a(I3
g143
tp1004
a(I0
g125
tp1005
a(I1
g145
tp1006
a(I2
g127
tp1007
a(I3
g145
tp1008
a(I0
g127
tp1009
a(I1
g143
tp1010
a(I2
g125
tp1011
a(I3
g143
tp1012
a(I0
g125
tp1013
a(I1
g145
tp1014
a(I2
g127
tp1015
a(I3
g145
tp1016
a(I0
g127
tp1017
a(I1
g143
tp1018
a(I2
g125
tp1019
a(I3
g143
tp1020
a(I0
g125
tp1021
a(I1
g145
tp1022
a(I2
g127
tp1023
a(I3
g145
tp1024
a(I0
g127
tp1025
a(I1
g143
tp1026
a(I2
g125
tp1027
a(I3
g143
tp1028
a(I0
g125
tp1029
a(I1
g145
tp1030
a(I2
g127
tp1031
a(I3
g145
tp1032
a(I0
g127
tp1033
a(I1
g143
tp1034
a(I2
g125
tp1035
a(I3
g143
tp1036
a(I0
g125
tp1037
a(I1
g145
tp1038
a(I2
g127
tp1039
a(I3
g145
tp1040
a(I0
g127
tp1041
a(I1
g143
tp1042
a(I2
g125
tp1043
a(I3
g143
tp1044
a(I0
g125
tp1045
a(I1
g145
tp1046
a(I2
g127
tp1047
a(I3
g145
tp1048
a(I0
g127
tp1049
a(I1
g143
tp1050
a(I2
g125
tp1051
a(I3
g143
tp1052
a(I0
g125
tp1053
a(I1
g145
tp1054
a(I2
g127
tp1055
a(I3
g145
tp1056
a(I0
g127
tp1057
a(I1
g143
tp1058
a(I2
g125
tp1059
a(I3
g143
tp1060
a(I0
g125
tp1061
a(I1
g145
tp1062
a(I2
g127
tp1063
a(I3
g145
tp1064
a(I0
g127
tp1065
a(I1
g143
tp1066
a(I2
g125
tp1067
a(I3
g143
tp1068
a(I0
g125
tp1069
a(I1
g145
tp1070
a(I2
g127
tp1071
a(I3
g145
tp1072
a(I0
g127
tp1073
a(I1
g143
tp1074
a(I2
g125
tp1075
a(I3
g143
tp1076
a(I0
g125
tp1077
a(I1
g145
tp1078
a(I2
g127
tp1079
a(I3
g145
tp1080
a(I0
g127
tp1081
a(I1
g143
tp1082
a(I2
g125
tp1083
a(I3
g143
tp1084
a(I0
g125
tp1085
a(I1
g145
tp1086
a(I2
g127
tp1087
a(I3
g145
tp1088
a(I0
g127
tp1089
a(I1
g143
tp1090
a(I2
g125
tp1091
a(I3
g143
tp1092
a(I0
g125
tp1093
a(I1
g145
tp1094
a(I2
g127
tp1095
a(I3
g145
tp1096
a(I0
g127
tp1097
a(I1
g143
tp1098
a(I2
g125
tp1099
a(I3
g143
tp1100
a(I0
g125
tp1101
a(I1
g145
tp1102
a(I2
g127
tp1103
a(I3
g145
tp1104
a(I0
g127
tp1105
a(I1
g143
tp1106
a(I2
g125
tp1107
a(I3
g143
tp1108
a(I0
g125
tp1109
a(I1
g145
tp1110
a(I2
g127
tp1111
a(I3
g145
tp1112
a(I0
g127
tp1113
a(I1
g143
tp1114
a(I2
g125
tp1115
a(I3
g143
tp1116
a(I0
g125
tp1117
a(I1
g145
tp1118
a(I2
g127
tp1119
a(I3
g145
tp1120
a(I0
g127
tp1121
a(I1
g143
tp1122
a(I2
g125
tp1123
a(I3
g143
tp1124
a(I0
g125
tp1125
a(I1
g145
tp1126
a(I2
g127
tp1127
a(I3
g145
tp1128
a(I0
g127
tp1129
a(I1
g143
tp1130
a(I2
g125
tp1131
a(I3
g143
tp1132
a(I0
g125
tp1133
a(I1
g145
tp1134
a(I2
g127
tp1135
a(I3
g145
tp1136
a(I0
g127
tp1137
a(I1
g143
tp1138
a(I2
g125
tp1139
a(I3
g143
tp1140
a(I0
g125
tp1141
a(I1
g145
tp1142
a(I2
g127
tp1143
a(I3
g145
tp1144
a(I0
g127
tp1145
a(I1
g143
tp1146
a(I2
g125
tp1147
a(I3
g143
tp1148
a(I0
g125
tp1149
a(I1
g145
tp1150
a(I2
g127
tp1151
a(I3
g145
tp1152
a(I0
g127
tp1153
a(I1
g143
tp1154
a(I2
g125
tp1155
a(I3
g143
tp1156
a(I0
g125
tp1157
a(I1
g145
tp1158
a(I2
g127
tp1159
a(I3
g145
tp1160
a(I0
g127
tp1161
a(I1
g143
tp1162
a(I2
g125
tp1163
a(I3
g143
tp1164
a(I0
g125
tp1165
a(I1
g145
tp1166
a(I2
g127
tp1167
a(I3
g145
tp1168
a(I0
g127
tp1169
a(I1
g143
tp1170
a(I2
g125
tp1171
a(I3
g143
tp1172
a(I0
g125
tp1173
a(I1
g145
tp1174
a(I2
g127
tp1175
a(I3
g145
tp1176
a(I0
g127
tp1177
a(I1
g143
tp1178
a(I2
g125
tp1179
a(I3
g143
tp1180
a(I0
g125
tp1181
a(I1
g145
tp1182
a(I2
g127
tp1183
a(I3
g145
tp1184
a(I0
g127
tp1185
a(I1
g143
tp1186
a(I2
g125
tp1187
a(I3
g143
tp1188
a(I0
g125
tp1189
a(I1
g145
tp1190
a(I2
g127
tp1191
a(I3
g145
tp1192
a(I0
g127
tp1193
a(I1
g143
tp1194
a(I2
g125
tp1195
a(I3
g143
tp1196
a(I0
g125
tp1197
a(I1
g145
tp1198
a(I2
g127
tp1199
a(I3
g145
tp1200
a(I0
g127
tp1201
a(I1
g143
tp1202
a(I2
g125
tp1203
a(I3
g143
tp1204
a(I0
g125
tp1205
a(I1
g145
tp1206
a(I2
g127
tp1207
a(I3
g145
tp1208
a(I0
g127
tp1209
a(I1
g143
tp1210
a(I2
g125
tp1211
a(I3
g143
tp1212
a(I0
g125
tp1213
a(I1
g145
tp1214
a(I2
g127
tp1215
a(I3
g145
tp1216
a(I0
g127
tp1217
a(I1
g143
tp1218
a(I2
g125
tp1219
a(I3
g143
tp1220
a(I0
g125
tp1221
a(I1
g145
tp1222
a(I2
g127
tp1223
a(I3
g145
tp1224
a(I0
g127
tp1225
a(I1
g143
tp1226
a(I2
g125
tp1227
a(I3
g143
tp1228
a(I0
g125
tp1229
a(I1
g145
tp1230
a(I2
g127
tp1231
a(I3
g145
tp1232
a(I0
g127
tp1233
a(I1
g143
tp1234
a(I2
g125
tp1235
a(I3
g143
tp1236
a(I0
g125
tp1237
a(I1
g145
tp1238
a(I2
g127
tp1239
a(I3
g145
tp1240
a(I0
g127
tp1241
a(I1
g143
tp1242
a(I2
g125
tp1243
a(I3
g143
tp1244
a(I0
g125
tp1245
a(I1
g145
tp1246
a(I2
g127
tp1247
a(I3
g145
tp1248
a(I0
g127
tp1249
a(I1
g143
tp1250
a(I2
g125
tp1251
a(I3
g143
tp1252
a(I0
g125
tp1253
a(I1
g145
tp1254
a(I2
g127
tp1255
a(I3
g145
tp1256
a(I0
g127
tp1257
a(I1
g143
tp1258
a(I2
g125
tp1259
a(I3
g143
tp1260
a(I0
g125
tp1261
a(I1
g145
tp1262
a(I2
g127
tp1263
a(I3
g145
tp1264
a(I0
g127
tp1265
a(I1
g143
tp1266
a(I2
g125
tp1267
a(I3
g143
tp1268
a(I0
g125
tp1269
a(I1
g145
tp1270
a(I2
g127
tp1271
a(I3
g145
tp1272
a(I0
g127
tp1273
a(I1
g143
tp1274
a(I2
g125
tp1275
a(I3
g143
tp1276
a(I0
g125
tp1277
a(I1
g145
tp1278
a(I2
g127
tp1279
a(I3
g145
tp1280
a(I0
g127
tp1281
a(I1
g143
tp1282
a(I2
g125
tp1283
a(I3
g143
tp1284
a(I0
g125
tp1285
a(I1
g145
tp1286
a(I2
g127
tp1287
a(I3
g145
tp1288
a(I0
g127
tp1289
a(I1
g143
tp1290
a(I2
g125
tp1291
a(I3
g143
tp1292
a(I0
g125
tp1293
a(I1
g145
tp1294
a(I2
g127
tp1295
a(I3
g145
tp1296
a(I0
g127
tp1297
a(I1
g143
tp1298
a(I2
g125
tp1299
a(I3
g143
tp1300
a(I0
g125
tp1301
a(I1
g145
tp1302
a(I2
g127
tp1303
a(I3
g145
tp1304
a(I0
g127
tp1305
a(I1
g143
tp1306
a(I2
g125
tp1307
a(I3
g143
tp1308
a(I0
g125
tp1309
a(I1
g145
tp1310
a(I2
g127
tp1311
a(I3
g145
tp1312
a(I0
g127
tp1313
a(I1
g143
tp1314
a(I2
g125
tp1315
a(I3
g143
tp1316
a(I0
g125
tp1317
a(I1
g145
tp1318
a(I2
g127
tp1319
a(I3
g145
tp1320
a(I0
g127
tp1321
a(I1
g143
tp1322
a(I2
g125
tp1323
a(I3
g143
tp1324
a(I0
g125
tp1325
a(I1
g145
tp1326
a(I2
g127
tp1327
a(I3
g145
tp1328
asS'length'
p1329
I1200
sS'agents'
p1330
(lp1331
(igame
Agent
p1332
(dp1333
S'index'
p1334
I0
sba(igame
Agent
p1335
(dp1336
g1334
I0
sba(igame
Agent
p1337
(dp1338
g1334
I0
sba(igame
Agent
p1339
(dp1340
g1334
I0
sbasS'redTeamName'
p1341
S'Red'
p1342
s.