(dp1
S'layout'
p2
(ilayout
Layout
p3
(dp4
S'capsules'
p5
(lp6
(I8
I8
tp7
a(I28
I8
tp8
a(I5
I9
tp9
a(I25
I9
tp10
asS'numGhosts'
p11
I4
sS'food'
p12
(igame
Grid
p13
(dp14
S'CELLS_PER_INT'
p15
I30
sS'width'
p16
I34
sS'data'
p17
(lp18
(lp19
I00
aI00
aI00
aI00
aI00
aI00
aI00
aI00
aI00
aI00
aI00
aI00
aI00
aI00
aI00
aI00
aI00
aI00
aa(lp20
I00
aI00
aI00
aI00
aI00
aI01
aI00
aI00
aI00
aI00
aI00
aI00
aI00
aI00
aI00
aI00
aI01
aI00
aa(lp21
I00
aI00
aI00
aI00
aI00
aI00
aI00
aI00
aI00
aI00
aI00
aI00
aI00
aI01
aI00
aI00
aI00
aI00
aa(lp22
I00
aI00
aI00
aI00
aI00
aI00
aI00
aI00
aI00
aI00
aI00
aI00
aI00
aI00
aI00
aI00
aI00
aI00
aa(lp23
I00
aI00
aI00
aI00
aI00
aI01
aI00
aI01
aI00
aI01
aI00
aI00
aI00
aI00
aI00
aI00
aI00
aI00
aa(lp24
I00
aI00
aI00
aI00
aI00
aI01
aI00
aI00
aI00
aI00
aI00
aI00
aI00
aI00
aI00
aI00
aI00
aI00
aa(lp25
I00
aI00
aI00
aI00
aI00
aI00
aI00
aI00
aI00
aI00
aI00
aI01
aI00
aI00
aI00
aI01
aI01
aI00
aa(lp26
I00
aI00
aI00
aI00
aI01
aI01
aI00
aI01
aI00
aI00
aI00
aI00
aI00
aI00
aI00
aI00
aI00
aI00
aa(lp27
I00
aI00
aI00
aI00
aI00
aI00
aI00
aI00
aI00
aI00
aI00
aI00
aI00
aI01
aI01
aI00
aI01
aI00
aa(lp28
I00
aI00
aI01
aI00
aI00
aI00
aI00
aI00
aI00
aI00
aI00
aI00
aI00
aI00
aI00
aI00
aI01
aI00
aa(lp29
I00
aI01
aI00
aI00
aI00
aI00
aI00
aI01
aI00
aI01
aI00
aI00
aI00
aI00
aI01
aI00
aI00
aI00
aa(lp30
I00
aI00
aI00
aI00
aI00
aI00
aI00
aI01
aI00
aI00
aI00
aI00
aI01
aI00
aI00
aI00
aI00
aI00
aa(lp31
I00
aI01
aI01
aI00
aI00
aI00
aI00
aI00
aI00
aI00
aI00
aI00
aI00
aI00
aI00
aI00
aI00
aI00
aa(lp32
I00
aI00
aI01
aI00
aI00
aI00
aI00
aI00
aI01
aI00
aI00
aI00
aI00
aI00
aI00
aI00
aI00
aI00
aa(lp33
I00
aI01
aI00
aI00
aI00
aI00
aI01
aI00
aI00
aI00
aI00
aI00
aI00
aI00
aI00
aI00
aI00
aI00
aa(lp34
I00
aI00
aI00
aI00
aI00
aI00
aI00
aI00
aI00
aI00
aI00
aI00
aI00
aI00
aI00
aI00
aI00
aI00
aa(lp35
I00
aI00
aI00
aI00
aI00
aI00
aI00
aI00
aI00
aI00
aI00
aI00
aI00
aI00
aI00
aI00
aI00
aI00
aa(lp36
I00
aI00
aI00
aI00
aI00
aI00
aI00
aI00
aI00
aI00
aI00
aI00
aI00
aI00
aI00
aI00
aI00
aI00
aa(lp37
I00
aI00
aI00
aI00
aI00
aI00
aI00
aI00
aI00
aI00
aI00
aI00
aI00
aI00
aI00
aI00
aI00
aI00
aa(lp38
I00
aI00
aI00
aI00
aI00
aI00
aI00
aI00
aI00
aI00
aI00
aI01
aI00
aI00
aI00
aI00
aI01
aI00
aa(lp39
I00
aI00
aI00
aI00
aI00
aI00
aI00
aI00
aI00
aI01
aI00
aI00
aI00
aI00
aI00
aI01
aI00
aI00
aa(lp40
I00
aI00
aI00
aI00
aI00
aI00
aI00
aI00
aI00
aI00
aI00
aI00
aI00
aI00
aI00
aI01
aI01
aI00
aa(lp41
I00
aI00
aI00
aI00
aI00
aI01
aI00
aI00
aI00
aI00
aI01
aI00
aI00
aI00
aI00
aI00
aI00
aI00
aa(lp42
I00
aI00
aI00
aI01
aI00
aI00
aI00
aI00
aI01
aI00
aI01
aI00
aI00
aI00
aI00
aI00
aI01
aI00
aa(lp43
I00
aI01
aI00
aI00
aI00
aI00
aI00
aI00
aI00
aI00
aI00
aI00
aI00
aI00
aI00
aI01
aI00
aI00
aa(lp44
I00
aI01
aI00
aI01
aI01
aI00
aI00
aI00
aI00
aI00
aI00
aI00
aI00
aI00
aI00
aI00
aI00
aI00
aa(lp45
I00
aI00
aI00
aI00
aI00
aI00
aI00
aI00
aI00
aI00
aI01
aI00
aI01
aI01
aI00
aI00
aI00
aI00
aa(lp46
I00
aI01
aI01
aI00
aI00
aI00
aI01
aI00
aI00
aI00
aI00
aI00
aI00
aI00
aI00
aI00
aI00
aI00
aa(lp47
I00
aI00
aI00
aI00
aI00
aI00
aI00
aI00
aI00
aI00
aI00
aI00
aI01
aI00
aI00
aI00
aI00
aI00
aa(lp48
I00
aI00
aI00
aI00
aI00
aI00
aI00
aI00
aI01
aI00
aI01
aI00
aI01
aI00
aI00
aI00
aI00
aI00
aa(lp49
I00
aI00
aI00
aI00
aI00
aI00
aI00
aI00
aI00
aI00
aI00
aI00
aI00
aI00
aI00
aI00
aI00
aI00
aa(lp50
I00
aI00
aI00
aI00
aI01
aI00
aI00
aI00
aI00
aI00
aI00
aI00
aI00
aI00
aI00
aI00
aI00
aI00
aa(lp51
I00
aI01
aI00
aI00
aI00
aI00
aI00
aI00
aI00
aI00
aI00
aI00
aI01
aI00
aI00
aI00
aI00
aI00
aa(lp52
I00
aI00
aI00
aI00
aI00
aI00
aI00
aI00
aI00
aI00
aI00
aI00
aI00
aI00
aI00
aI00
aI00
aI00
aasS'height'
p53
I18
sbsS'agentPositions'
p54
(lp55
(I00
(I1
I2
tp56
tp57
a(I00
(I32
I15
tp58
tp59
a(I00
(I1
I1
tp60
tp61
a(I00
(I32
I16
tp62
tp63
asg53
I18
sg16
I34
sS'walls'
p64
(igame
Grid
p65
(dp66
g15
I30
sg16
I34
sg17
(lp67
(lp68
I01
aI01
aI01
aI01
aI01
aI01
aI01
aI01
aI01
aI01
aI01
aI01
aI01
aI01
aI01
aI01
aI01
aI01
aa(lp69
I01
aI00
aI00
aI00
aI00
aI00
aI00
aI01
aI00
aI00
aI00
aI00
aI00
aI00
aI00
aI00
aI00
aI01
aa(lp70
I01
aI00
aI00
aI00
aI00
aI01
aI00
aI00
aI00
aI01
aI00
aI00
aI01
aI00
aI00
aI00
aI00
aI01
aa(lp71
I01
aI01
aI01
aI00
aI01
aI01
aI01
aI01
aI01
aI01
aI01
aI01
aI01
aI01
aI01
aI00
aI00
aI01
aa(lp72
I01
aI00
aI00
aI00
aI00
aI00
aI01
aI00
aI00
aI00
aI01
aI00
aI00
aI00
aI00
aI00
aI00
aI01
aa(lp73
I01
aI00
aI00
aI00
aI01
aI00
aI01
aI01
aI00
aI00
aI00
aI00
aI01
aI01
aI00
aI01
aI01
aI01
aa(lp74
I01
aI01
aI00
aI01
aI01
aI01
aI01
aI00
aI00
aI00
aI01
aI00
aI00
aI00
aI00
aI00
aI00
aI01
aa(lp75
I01
aI00
aI00
aI01
aI00
aI00
aI01
aI00
aI01
aI01
aI01
aI01
aI01
aI01
aI01
aI01
aI01
aI01
aa(lp76
I01
aI00
aI00
aI01
aI00
aI01
aI01
aI00
aI00
aI00
aI00
aI00
aI00
aI00
aI00
aI01
aI00
aI01
aa(lp77
I01
aI01
aI00
aI01
aI00
aI00
aI01
aI01
aI01
aI01
aI01
aI00
aI01
aI00
aI01
aI01
aI00
aI01
aa(lp78
I01
aI00
aI00
aI01
aI01
aI00
aI01
aI00
aI01
aI00
aI01
aI00
aI01
aI00
aI00
aI01
aI00
aI01
aa(lp79
I01
aI01
aI00
aI01
aI00
aI00
aI01
aI00
aI00
aI00
aI00
aI00
aI00
aI00
aI00
aI01
aI00
aI01
aa(lp80
I01
aI00
aI00
aI01
aI00
aI01
aI01
aI01
aI01
aI01
aI01
aI01
aI00
aI01
aI00
aI00
aI00
aI01
aa(lp81
I01
aI01
aI00
aI01
aI00
aI00
aI01
aI00
aI00
aI00
aI00
aI01
aI00
aI01
aI00
aI01
aI00
aI01
aa(lp82
I01
aI00
aI00
aI00
aI00
aI00
aI00
aI00
aI00
aI01
aI00
aI00
aI00
aI00
aI00
aI01
aI00
aI01
aa(lp83
I01
aI00
aI01
aI01
aI00
aI00
aI01
aI00
aI01
aI01
aI01
aI01
aI01
aI01
aI00
aI01
aI00
aI01
aa(lp84
I01
aI00
aI00
aI01
aI00
aI00
aI01
aI00
aI00
aI00
aI00
aI00
aI00
aI01
aI00
aI01
aI00
aI01
aa(lp85
I01
aI00
aI01
aI00
aI01
aI00
aI00
aI00
aI00
aI00
aI00
aI01
aI00
aI00
aI01
aI00
aI00
aI01
aa(lp86
I01
aI00
aI01
aI00
aI01
aI01
aI01
aI01
aI01
aI01
aI00
aI01
aI00
aI00
aI01
aI01
aI00
aI01
aa(lp87
I01
aI00
aI01
aI00
aI00
aI00
aI00
aI00
aI01
aI00
aI00
aI00
aI00
aI00
aI00
aI00
aI00
aI01
aa(lp88
I01
aI00
aI01
aI00
aI01
aI00
aI01
aI00
aI00
aI00
aI00
aI01
aI00
aI00
aI01
aI00
aI01
aI01
aa(lp89
I01
aI00
aI00
aI00
aI01
aI00
aI01
aI01
aI01
aI01
aI01
aI01
aI01
aI00
aI01
aI00
aI00
aI01
aa(lp90
I01
aI00
aI01
aI00
aI00
aI00
aI00
aI00
aI00
aI00
aI00
aI01
aI00
aI00
aI01
aI00
aI01
aI01
aa(lp91
I01
aI00
aI01
aI00
aI00
aI01
aI00
aI01
aI00
aI01
aI00
aI01
aI00
aI01
aI01
aI00
aI00
aI01
aa(lp92
I01
aI00
aI01
aI01
aI00
aI01
aI00
aI01
aI01
aI01
aI01
aI01
aI00
aI00
aI01
aI00
aI01
aI01
aa(lp93
I01
aI00
aI01
aI00
aI00
aI00
aI00
aI00
aI00
aI00
aI00
aI01
aI01
aI00
aI01
aI00
aI00
aI01
aa(lp94
I01
aI01
aI01
aI01
aI01
aI01
aI01
aI01
aI01
aI01
aI00
aI01
aI00
aI00
aI01
aI00
aI00
aI01
aa(lp95
I01
aI00
aI00
aI00
aI00
aI00
aI00
aI01
aI00
aI00
aI00
aI01
aI01
aI01
aI01
aI00
aI01
aI01
aa(lp96
I01
aI01
aI01
aI00
aI01
aI01
aI00
aI00
aI00
aI00
aI01
aI01
aI00
aI01
aI00
aI00
aI00
aI01
aa(lp97
I01
aI00
aI00
aI00
aI00
aI00
aI00
aI01
aI00
aI00
aI00
aI01
aI00
aI00
aI00
aI00
aI00
aI01
aa(lp98
I01
aI00
aI00
aI01
aI01
aI01
aI01
aI01
aI01
aI01
aI01
aI01
aI01
aI01
aI00
aI01
aI01
aI01
aa(lp99
I01
aI00
aI00
aI00
aI00
aI01
aI00
aI00
aI01
aI00
aI00
aI00
aI01
aI00
aI00
aI00
aI00
aI01
aa(lp100
I01
aI00
aI00
aI00
aI00
aI00
aI00
aI00
aI00
aI00
aI01
aI00
aI00
aI00
aI00
aI00
aI00
aI01
aa(lp101
I01
aI01
aI01
aI01
aI01
aI01
aI01
aI01
aI01
aI01
aI01
aI01
aI01
aI01
aI01
aI01
aI01
aI01
aasg53
I18
sbsS'totalFood'
p102
I60
sS'layoutText'
p103
(lp104
S'%%%%%%%%%%%%%%%%%%%%%%%%%%%%%%%%%%'
p105
aS'%.   %.%..         .%.%.%  %  % 4%'
p106
aS'%    %.%%%%% %%%% % ..  .     % 2%'
p107
aS'%  %   %.%.      %% %%%%%%%%     %'
p108
aS'% .% % %.   %% %%      %  .%% %  %'
p109
aS'% %% % % %%.   %     %   %.%..%%.%'
p110
aS'%  %  .%    %% % %%.%%%%%%%%%%%  %'
p111
aS'%  %% %% %% %  %     %..% . %.% %%'
p112
aS'% %%.o % %. % %%  % .% %%o%   %  %'
p113
aS'%  %   %o%% %. %  %% % .% % o.%% %'
p114
aS'%% %.% . %..%     %  % %% %% %%  %'
p115
aS'%  %%%%%%%%%%%.%% % %%    %.  %  %'
p116
aS'%.%%..%.%   %     %   .%% % % %% %'
p117
aS'%  % %%.  %      %% %%   .% % %. %'
p118
aS'%     %%%%%%%% %%      .%.%   %  %'
p119
aS'%1 %     .  .. % %%%% %%%%%.%    %'
p120
aS'%3 %  %  %.%.%.         ..%.%   .%'
p121
aS'%%%%%%%%%%%%%%%%%%%%%%%%%%%%%%%%%%'
p122
asbsS'blueTeamName'
p123
S'Blue'
p124
sS'actions'
p125
(lp126
(I1
S'Stop'
p127
tp128
a(I2
S'East'
p129
tp130
a(I3
g127
tp131
a(I0
g129
tp132
a(I1
g127
tp133
a(I2
S'North'
p134
tp135
a(I3
g127
tp136
a(I0
g134
tp137
a(I1
S'West'
p138
tp139
a(I2
g134
tp140
a(I3
g127
tp141
a(I0
g129
tp142
a(I1
g127
tp143
a(I2
g129
tp144
a(I3
g127
tp145
a(I0
g129
tp146
a(I1
S'South'
p147
tp148
a(I2
g129
tp149
a(I3
g127
tp150
a(I0
g129
tp151
a(I1
g127
tp152
a(I2
g129
tp153
a(I3
g127
tp154
a(I0
g147
tp155
a(I1
g134
tp156
a(I2
g147
tp157
a(I3
g127
tp158
a(I0
g129
tp159
a(I1
g127
tp160
a(I2
g129
tp161
a(I3
g127
tp162
a(I0
g129
tp163
a(I1
g127
tp164
a(I2
g129
tp165
a(I3
g127
tp166
a(I0
g129
tp167
a(I1
g129
tp168
a(I2
g129
tp169
a(I3
g127
tp170
a(I0
g129
tp171
a(I1
g127
tp172
a(I2
g129
tp173
a(I3
g127
tp174
a(I0
g129
tp175
a(I1
g127
tp176
a(I2
g129
tp177
a(I3
g127
tp178
a(I0
g129
tp179
a(I1
g127
tp180
a(I2
g129
tp181
a(I3
g127
tp182
a(I0
g129
tp183
a(I1
g147
tp184
a(I2
g129
tp185
a(I3
g127
tp186
a(I0
g129
tp187
a(I1
g127
tp188
a(I2
g129
tp189
a(I3
g127
tp190
a(I0
g129
tp191
a(I1
g134
tp192
a(I2
g129
tp193
a(I3
g127
tp194
a(I0
g147
tp195
a(I1
g127
tp196
a(I2
g134
tp197
a(I3
g127
tp198
a(I0
g129
tp199
a(I1
g127
tp200
a(I2
g134
tp201
a(I3
g127
tp202
a(I0
g129
tp203
a(I1
g138
tp204
a(I2
g129
tp205
a(I3
g127
tp206
a(I0
g129
tp207
a(I1
g127
tp208
a(I2
g129
tp209
a(I3
g127
tp210
a(I0
g129
tp211
a(I1
g127
tp212
a(I2
g134
tp213
a(I3
g127
tp214
a(I0
g129
tp215
a(I1
g129
tp216
a(I2
g129
tp217
a(I3
g127
tp218
a(I0
g129
tp219
a(I1
g127
tp220
a(I2
g134
tp221
a(I3
g127
tp222
a(I0
g129
tp223
a(I1
g134
tp224
a(I2
g134
tp225
a(I3
g127
tp226
a(I0
g129
tp227
a(I1
g127
tp228
a(I2
g134
tp229
a(I3
g127
tp230
a(I0
g129
tp231
a(I1
g127
tp232
a(I2
g134
tp233
a(I3
g127
tp234
a(I0
g129
tp235
a(I1
g138
tp236
a(I2
g134
tp237
a(I3
g127
tp238
a(I0
g129
tp239
a(I1
g127
tp240
a(I2
g129
tp241
a(I3
g127
tp242
a(I0
g138
tp243
a(I1
g129
tp244
a(I2
g129
tp245
a(I3
g127
tp246
a(I0
g138
tp247
a(I1
g127
tp248
a(I2
g134
tp249
a(I3
g127
tp250
a(I0
g138
tp251
a(I1
g127
tp252
a(I2
g134
tp253
a(I3
g127
tp254
a(I0
g138
tp255
a(I1
g147
tp256
a(I2
g134
tp257
a(I3
g127
tp258
a(I0
g134
tp259
a(I1
g127
tp260
a(I2
g134
tp261
a(I3
g127
tp262
a(I0
g134
tp263
a(I1
g138
tp264
a(I2
g134
tp265
a(I3
g127
tp266
a(I0
g129
tp267
a(I1
g127
tp268
a(I2
g134
tp269
a(I3
g127
tp270
a(I0
g129
tp271
a(I1
g127
tp272
a(I2
g147
tp273
a(I3
g127
tp274
a(I0
g134
tp275
a(I1
g129
tp276
a(I2
g129
tp277
a(I3
g127
tp278
a(I0
g129
tp279
a(I1
g127
tp280
a(I2
g138
tp281
a(I3
g127
tp282
a(I0
g129
tp283
a(I1
g134
tp284
a(I2
g134
tp285
a(I3
g127
tp286
a(I0
g134
tp287
a(I1
g127
tp288
a(I2
g138
tp289
a(I3
g127
tp290
a(I0
g134
tp291
a(I1
g138
tp292
a(I2
g138
tp293
a(I3
g127
tp294
a(I0
g134
tp295
a(I1
g127
tp296
a(I2
g138
tp297
a(I3
g127
tp298
a(I0
g134
tp299
a(I1
g129
tp300
a(I2
g129
tp301
a(I3
g127
tp302
a(I0
g134
tp303
a(I1
g127
tp304
a(I2
g129
tp305
a(I3
g127
tp306
a(I0
g134
tp307
a(I1
g138
tp308
a(I2
g129
tp309
a(I3
g127
tp310
a(I0
g129
tp311
a(I1
g127
tp312
a(I2
g147
tp313
a(I3
g127
tp314
a(I0
g129
tp315
a(I1
g147
tp316
a(I2
g129
tp317
a(I3
g127
tp318
a(I0
g147
tp319
a(I1
g127
tp320
a(I2
g129
tp321
a(I3
g127
tp322
a(I0
g129
tp323
a(I1
g147
tp324
a(I2
g134
tp325
a(I3
g127
tp326
a(I0
g129
tp327
a(I1
g127
tp328
a(I2
g147
tp329
a(I3
g127
tp330
a(I0
g134
tp331
a(I1
g134
tp332
a(I2
g129
tp333
a(I3
g127
tp334
a(I0
g147
tp335
a(I1
g127
tp336
a(I2
g129
tp337
a(I3
g127
tp338
a(I0
g147
tp339
a(I1
g147
tp340
a(I2
g134
tp341
a(I3
g127
tp342
a(I0
g138
tp343
a(I1
g127
tp344
a(I2
g147
tp345
a(I3
g127
tp346
a(I0
g147
tp347
a(I1
g147
tp348
a(I2
g129
tp349
a(I3
g127
tp350
a(I0
g147
tp351
a(I1
g127
tp352
a(I2
g129
tp353
a(I3
g127
tp354
a(I0
g138
tp355
a(I1
g134
tp356
a(I2
g129
tp357
a(I3
g127
tp358
a(I0
g147
tp359
a(I1
g127
tp360
a(I2
g129
tp361
a(I3
g127
tp362
a(I0
g147
tp363
a(I1
g127
tp364
a(I2
g129
tp365
a(I3
g127
tp366
a(I0
g147
tp367
a(I1
g138
tp368
a(I2
g138
tp369
a(I3
g127
tp370
a(I0
g147
tp371
a(I1
g127
tp372
a(I2
g129
tp373
a(I3
g127
tp374
a(I0
g147
tp375
a(I1
g138
tp376
a(I2
g129
tp377
a(I3
g127
tp378
a(I0
g134
tp379
a(I1
g127
tp380
a(I2
g138
tp381
a(I3
g127
tp382
a(I0
g134
tp383
a(I1
g134
tp384
a(I2
g147
tp385
a(I3
g127
tp386
a(I0
g134
tp387
a(I1
g127
tp388
a(I2
g129
tp389
a(I3
g127
tp390
a(I0
g134
tp391
a(I1
g127
tp392
a(I2
g147
tp393
a(I3
g127
tp394
a(I0
g134
tp395
a(I1
g138
tp396
a(I2
g134
tp397
a(I3
g127
tp398
a(I0
g129
tp399
a(I1
g127
tp400
a(I2
g147
tp401
a(I3
g127
tp402
a(I0
g134
tp403
a(I1
g129
tp404
a(I2
g147
tp405
a(I3
g127
tp406
a(I0
g134
tp407
a(I1
g127
tp408
a(I2
g134
tp409
a(I3
g127
tp410
a(I0
g138
tp411
a(I1
g134
tp412
a(I2
g147
tp413
a(I3
g127
tp414
a(I0
g134
tp415
a(I1
g127
tp416
a(I2
g134
tp417
a(I3
g127
tp418
a(I0
g134
tp419
a(I1
g127
tp420
a(I2
g134
tp421
a(I3
g127
tp422
a(I0
g138
tp423
a(I1
g138
tp424
a(I2
g147
tp425
a(I3
g127
tp426
a(I0
g138
tp427
a(I1
g127
tp428
a(I2
g134
tp429
a(I3
g127
tp430
a(I0
g147
tp431
a(I1
g127
tp432
a(I2
g147
tp433
a(I3
g127
tp434
a(I0
g147
tp435
a(I1
g127
tp436
a(I2
g134
tp437
a(I3
g127
tp438
a(I0
g147
tp439
a(I1
g129
tp440
a(I2
g147
tp441
a(I3
g127
tp442
a(I0
g147
tp443
a(I1
g127
tp444
a(I2
g134
tp445
a(I3
g127
tp446
a(I0
g147
tp447
a(I1
g147
tp448
a(I2
g147
tp449
a(I3
g127
tp450
a(I0
g147
tp451
a(I1
g127
tp452
a(I2
g134
tp453
a(I3
g127
tp454
a(I0
g147
tp455
a(I1
g147
tp456
a(I2
g147
tp457
a(I3
g127
tp458
a(I0
g134
tp459
a(I1
g127
tp460
a(I2
g134
tp461
a(I3
g127
tp462
a(I0
g138
tp463
a(I1
g134
tp464
a(I2
g147
tp465
a(I3
g127
tp466
a(I0
g138
tp467
a(I1
g127
tp468
a(I2
g134
tp469
a(I3
g127
tp470
a(I0
g138
tp471
a(I1
g127
tp472
a(I2
g147
tp473
a(I3
g127
tp474
a(I0
g134
tp475
a(I1
g127
tp476
a(I2
g134
tp477
a(I3
g127
tp478
a(I0
g134
tp479
a(I1
g127
tp480
a(I2
g147
tp481
a(I3
g127
tp482
a(I0
g134
tp483
a(I1
g127
tp484
a(I2
g134
tp485
a(I3
g127
tp486
a(I0
g134
tp487
a(I1
g127
tp488
a(I2
g147
tp489
a(I3
g127
tp490
a(I0
g129
tp491
a(I1
g127
tp492
a(I2
g134
tp493
a(I3
g127
tp494
a(I0
g138
tp495
a(I1
g147
tp496
a(I2
g147
tp497
a(I3
g127
tp498
a(I0
g134
tp499
a(I1
g127
tp500
a(I2
g134
tp501
a(I3
g127
tp502
a(I0
g134
tp503
a(I1
g138
tp504
a(I2
g147
tp505
a(I3
g127
tp506
a(I0
g129
tp507
a(I1
g127
tp508
a(I2
g134
tp509
a(I3
g127
tp510
a(I0
g138
tp511
a(I1
g127
tp512
a(I2
g147
tp513
a(I3
g127
tp514
a(I0
g147
tp515
a(I1
g129
tp516
a(I2
g134
tp517
a(I3
g127
tp518
a(I0
g147
tp519
a(I1
g127
tp520
a(I2
g147
tp521
a(I3
g127
tp522
a(I0
g147
tp523
a(I1
g147
tp524
a(I2
g134
tp525
a(I3
g127
tp526
a(I0
g147
tp527
a(I1
g127
tp528
a(I2
g147
tp529
a(I3
g127
tp530
a(I0
g147
tp531
a(I1
g147
tp532
a(I2
g134
tp533
a(I3
g127
tp534
a(I0
g147
tp535
a(I1
g127
tp536
a(I2
g147
tp537
a(I3
g127
tp538
a(I0
g147
tp539
a(I1
g127
tp540
a(I2
g134
tp541
a(I3
g127
tp542
a(I0
g138
tp543
a(I1
g147
tp544
a(I2
g147
tp545
a(I3
g127
tp546
a(I0
g147
tp547
a(I1
g127
tp548
a(I2
g134
tp549
a(I3
g127
tp550
a(I0
g147
tp551
a(I1
g147
tp552
a(I2
g147
tp553
a(I3
g127
tp554
a(I0
g138
tp555
a(I1
g127
tp556
a(I2
g134
tp557
a(I3
g127
tp558
a(I0
g138
tp559
a(I1
g127
tp560
a(I2
g147
tp561
a(I3
g127
tp562
a(I0
g138
tp563
a(I1
g134
tp564
a(I2
g134
tp565
a(I3
g127
tp566
a(I0
g138
tp567
a(I1
g127
tp568
a(I2
g147
tp569
a(I3
g127
tp570
a(I0
g138
tp571
a(I1
g134
tp572
a(I2
g134
tp573
a(I3
g127
tp574
a(I0
g129
tp575
a(I1
g127
tp576
a(I2
g147
tp577
a(I3
g127
tp578
a(I0
g129
tp579
a(I1
g134
tp580
a(I2
g134
tp581
a(I3
g127
tp582
a(I0
g129
tp583
a(I1
g127
tp584
a(I2
g129
tp585
a(I3
g127
tp586
a(I0
g129
tp587
a(I1
g138
tp588
a(I2
g138
tp589
a(I3
g127
tp590
a(I0
g129
tp591
a(I1
g127
tp592
a(I2
g147
tp593
a(I3
g127
tp594
a(I0
g134
tp595
a(I1
g127
tp596
a(I2
g134
tp597
a(I3
g127
tp598
a(I0
g134
tp599
a(I1
g138
tp600
a(I2
g147
tp601
a(I3
g127
tp602
a(I0
g138
tp603
a(I1
g127
tp604
a(I2
g147
tp605
a(I3
g127
tp606
a(I0
g138
tp607
a(I1
g127
tp608
a(I2
g134
tp609
a(I3
g127
tp610
a(I0
g134
tp611
a(I1
g129
tp612
a(I2
g134
tp613
a(I3
g127
tp614
a(I0
g134
tp615
a(I1
g127
tp616
a(I2
g147
tp617
a(I3
g127
tp618
a(I0
g134
tp619
a(I1
g129
tp620
a(I2
g134
tp621
a(I3
g127
tp622
a(I0
g134
tp623
a(I1
g127
tp624
a(I2
g147
tp625
a(I3
g127
tp626
a(I0
g129
tp627
a(I1
g127
tp628
a(I2
g134
tp629
a(I3
g127
tp630
a(I0
g134
tp631
a(I1
g138
tp632
a(I2
g147
tp633
a(I3
g127
tp634
a(I0
g134
tp635
a(I1
g127
tp636
a(I2
g134
tp637
a(I3
g127
tp638
a(I0
g138
tp639
a(I1
g138
tp640
a(I2
g147
tp641
a(I3
g127
tp642
a(I0
g134
tp643
a(I1
g127
tp644
a(I2
g147
tp645
a(I3
g127
tp646
a(I0
g138
tp647
a(I1
g138
tp648
a(I2
g134
tp649
a(I3
g127
tp650
a(I0
g138
tp651
a(I1
g127
tp652
a(I2
g134
tp653
a(I3
g127
tp654
a(I0
g138
tp655
a(I1
g138
tp656
a(I2
g129
tp657
a(I3
g127
tp658
a(I0
g129
tp659
a(I1
g127
tp660
a(I2
g134
tp661
a(I3
g127
tp662
a(I0
g129
tp663
a(I1
g134
tp664
a(I2
g134
tp665
a(I3
g127
tp666
a(I0
g129
tp667
a(I1
g127
tp668
a(I2
g129
tp669
a(I3
g127
tp670
a(I0
g134
tp671
a(I1
g138
tp672
a(I2
g129
tp673
a(I3
g127
tp674
a(I0
g134
tp675
a(I1
g127
tp676
a(I2
g129
tp677
a(I3
g127
tp678
a(I0
g129
tp679
a(I1
g138
tp680
a(I2
g147
tp681
a(I3
g127
tp682
a(I0
g134
tp683
a(I1
g127
tp684
a(I2
g129
tp685
a(I3
g127
tp686
a(I0
g129
tp687
a(I1
g129
tp688
a(I2
g129
tp689
a(I3
g127
tp690
a(I0
g129
tp691
a(I1
g127
tp692
a(I2
g129
tp693
a(I3
g127
tp694
a(I0
g147
tp695
a(I1
g127
tp696
a(I2
g129
tp697
a(I3
g127
tp698
a(I0
g129
tp699
a(I1
g127
tp700
a(I2
g129
tp701
a(I3
g127
tp702
a(I0
g129
tp703
a(I1
g129
tp704
a(I2
g129
tp705
a(I3
g127
tp706
a(I0
g134
tp707
a(I1
g127
tp708
a(I2
g129
tp709
a(I3
g127
tp710
a(I0
g129
tp711
a(I1
g147
tp712
a(I2
g129
tp713
a(I3
g127
tp714
a(I0
g129
tp715
a(I1
g127
tp716
a(I2
g129
tp717
a(I3
g127
tp718
a(I0
g147
tp719
a(I1
g129
tp720
a(I2
g134
tp721
a(I3
g127
tp722
a(I0
g134
tp723
a(I1
g127
tp724
a(I2
g134
tp725
a(I3
g127
tp726
a(I0
g138
tp727
a(I1
g147
tp728
a(I2
g129
tp729
a(I3
g127
tp730
a(I0
g138
tp731
a(I1
g127
tp732
a(I2
g129
tp733
a(I3
g127
tp734
a(I0
g147
tp735
a(I1
g147
tp736
a(I2
g134
tp737
a(I3
g127
tp738
a(I0
g138
tp739
a(I1
g127
tp740
a(I2
g129
tp741
a(I3
g127
tp742
a(I0
g138
tp743
a(I1
g134
tp744
a(I2
g134
tp745
a(I3
g127
tp746
a(I0
g134
tp747
a(I1
g127
tp748
a(I2
g134
tp749
a(I3
g127
tp750
a(I0
g138
tp751
a(I1
g147
tp752
a(I2
g134
tp753
a(I3
g127
tp754
a(I0
g138
tp755
a(I1
g127
tp756
a(I2
g134
tp757
a(I3
g127
tp758
a(I0
g138
tp759
a(I1
g127
tp760
a(I2
g134
tp761
a(I3
g127
tp762
a(I0
g134
tp763
a(I1
g138
tp764
a(I2
g129
tp765
a(I3
g127
tp766
a(I0
g134
tp767
a(I1
g127
tp768
a(I2
g129
tp769
a(I3
g127
tp770
a(I0
g129
tp771
a(I1
g127
tp772
a(I2
g134
tp773
a(I3
g127
tp774
a(I0
g138
tp775
a(I1
g129
tp776
a(I2
g134
tp777
a(I3
g127
tp778
a(I0
g129
tp779
a(I1
g127
tp780
a(I2
g134
tp781
a(I3
g127
tp782
a(I0
g138
tp783
a(I1
g134
tp784
a(I2
g134
tp785
a(I3
g127
tp786
a(I0
g134
tp787
a(I1
g127
tp788
a(I2
g134
tp789
a(I3
g127
tp790
a(I0
g138
tp791
a(I1
g134
tp792
a(I2
g129
tp793
a(I3
g127
tp794
a(I0
g138
tp795
a(I1
g127
tp796
a(I2
g129
tp797
a(I3
g127
tp798
a(I0
g138
tp799
a(I1
g127
tp800
a(I2
g129
tp801
a(I3
g127
tp802
a(I0
g129
tp803
a(I1
g134
tp804
a(I2
g129
tp805
a(I3
g127
tp806
a(I0
g129
tp807
a(I1
g127
tp808
a(I2
g129
tp809
a(I3
g127
tp810
a(I0
g129
tp811
a(I1
g147
tp812
a(I2
g129
tp813
a(I3
g127
tp814
a(I0
g147
tp815
a(I1
g127
tp816
a(I2
g129
tp817
a(I3
g127
tp818
a(I0
g129
tp819
a(I1
g134
tp820
a(I2
g138
tp821
a(I3
g127
tp822
a(I0
g129
tp823
a(I1
g127
tp824
a(I2
g129
tp825
a(I3
g127
tp826
a(I0
g129
tp827
a(I1
g147
tp828
a(I2
g129
tp829
a(I3
g127
tp830
a(I0
g129
tp831
a(I1
g127
tp832
a(I2
g129
tp833
a(I3
g127
tp834
a(I0
g129
tp835
a(I1
g138
tp836
a(I2
g129
tp837
a(I3
g127
tp838
a(I0
g129
tp839
a(I1
g127
tp840
a(I2
g134
tp841
a(I3
g127
tp842
a(I0
g138
tp843
a(I1
g127
tp844
a(I2
g147
tp845
a(I3
g127
tp846
a(I0
g129
tp847
a(I1
g134
tp848
a(I2
g147
tp849
a(I3
g127
tp850
a(I0
g138
tp851
a(I1
g127
tp852
a(I2
g147
tp853
a(I3
g127
tp854
a(I0
g138
tp855
a(I1
g129
tp856
a(I2
g147
tp857
a(I3
g127
tp858
a(I0
g129
tp859
a(I1
g127
tp860
a(I2
g134
tp861
a(I3
g127
tp862
a(I0
g129
tp863
a(I1
g138
tp864
a(I2
g134
tp865
a(I3
g127
tp866
a(I0
g138
tp867
a(I1
g127
tp868
a(I2
g129
tp869
a(I3
g127
tp870
a(I0
g138
tp871
a(I1
g127
tp872
a(I2
g138
tp873
a(I3
g127
tp874
a(I0
g138
tp875
a(I1
g127
tp876
a(I2
g129
tp877
a(I3
g127
tp878
a(I0
g129
tp879
a(I1
g134
tp880
a(I2
g138
tp881
a(I3
g127
tp882
a(I0
g138
tp883
a(I1
g127
tp884
a(I2
g147
tp885
a(I3
g127
tp886
a(I0
g129
tp887
a(I1
g127
tp888
a(I2
g134
tp889
a(I3
g127
tp890
a(I0
g138
tp891
a(I1
g129
tp892
a(I2
g147
tp893
a(I3
g127
tp894
a(I0
g129
tp895
a(I1
g127
tp896
a(I2
g134
tp897
a(I3
g127
tp898
a(I0
g129
tp899
a(I1
g138
tp900
a(I2
g147
tp901
a(I3
g127
tp902
a(I0
g129
tp903
a(I1
g127
tp904
a(I2
g134
tp905
a(I3
g127
tp906
a(I0
g138
tp907
a(I1
g127
tp908
a(I2
g147
tp909
a(I3
g127
tp910
a(I0
g129
tp911
a(I1
g129
tp912
a(I2
g134
tp913
a(I3
g127
tp914
a(I0
g129
tp915
a(I1
g127
tp916
a(I2
g138
tp917
a(I3
g127
tp918
a(I0
g129
tp919
a(I1
g147
tp920
a(I2
g134
tp921
a(I3
g127
tp922
a(I0
g138
tp923
a(I1
g127
tp924
a(I2
g138
tp925
a(I3
g127
tp926
a(I0
g129
tp927
a(I1
g147
tp928
a(I2
g129
tp929
a(I3
g127
tp930
a(I0
g129
tp931
a(I1
g127
tp932
a(I2
g134
tp933
a(I3
g127
tp934
a(I0
g134
tp935
a(I1
g134
tp936
a(I2
g147
tp937
a(I3
g127
tp938
a(I0
g147
tp939
a(I1
g127
tp940
a(I2
g138
tp941
a(I3
g127
tp942
a(I0
g138
tp943
a(I1
g147
tp944
a(I2
g129
tp945
a(I3
g127
tp946
a(I0
g129
tp947
a(I1
g127
tp948
a(I2
g134
tp949
a(I3
g127
tp950
a(I0
g134
tp951
a(I1
g127
tp952
a(I2
g129
tp953
a(I3
g127
tp954
a(I0
g129
tp955
a(I1
g147
tp956
a(I2
g147
tp957
a(I3
g127
tp958
a(I0
g147
tp959
a(I1
g127
tp960
a(I2
g138
tp961
a(I3
g127
tp962
a(I0
g138
tp963
a(I1
g134
tp964
a(I2
g134
tp965
a(I3
g127
tp966
a(I0
g134
tp967
a(I1
g127
tp968
a(I2
g129
tp969
a(I3
g127
tp970
a(I0
g129
tp971
a(I1
g127
tp972
a(I2
g138
tp973
a(I3
g127
tp974
a(I0
g138
tp975
a(I1
g134
tp976
a(I2
g147
tp977
a(I3
g127
tp978
a(I0
g147
tp979
a(I1
g127
tp980
a(I2
g138
tp981
a(I3
g127
tp982
a(I0
g138
tp983
a(I1
g127
tp984
a(I2
g138
tp985
a(I3
g127
tp986
a(I0
g138
tp987
a(I1
g134
tp988
a(I2
g129
tp989
a(I3
g127
tp990
a(I0
g129
tp991
a(I1
g127
tp992
a(I2
g129
tp993
a(I3
g127
tp994
a(I0
g129
tp995
a(I1
g138
tp996
a(I2
g129
tp997
a(I3
g127
tp998
a(I0
g129
tp999
a(I1
g127
tp1000
a(I2
g147
tp1001
a(I3
g127
tp1002
a(I0
g147
tp1003
a(I1
g127
tp1004
a(I2
g129
tp1005
a(I3
g127
tp1006
a(I0
g147
tp1007
a(I1
g129
tp1008
a(I2
g129
tp1009
a(I3
g127
tp1010
a(I0
g147
tp1011
a(I1
g127
tp1012
a(I2
g129
tp1013
a(I3
g127
tp1014
a(I0
g138
tp1015
a(I1
g127
tp1016
a(I2
g147
tp1017
a(I3
g127
tp1018
a(I0
g129
tp1019
a(I1
g138
tp1020
a(I2
g147
tp1021
a(I3
g127
tp1022
a(I0
g134
tp1023
a(I1
g127
tp1024
a(I2
g134
tp1025
a(I3
g127
tp1026
a(I0
g134
tp1027
a(I1
g147
tp1028
a(I2
g138
tp1029
a(I3
g127
tp1030
a(I0
g138
tp1031
a(I1
g127
tp1032
a(I2
g134
tp1033
a(I3
g127
tp1034
a(I0
g134
tp1035
a(I1
g147
tp1036
a(I2
g129
tp1037
a(I3
g127
tp1038
a(I0
g129
tp1039
a(I1
g127
tp1040
a(I2
g147
tp1041
a(I3
g127
tp1042
a(I0
g134
tp1043
a(I1
g127
tp1044
a(I2
g147
tp1045
a(I3
g127
tp1046
a(I0
g129
tp1047
a(I1
g129
tp1048
a(I2
g147
tp1049
a(I3
g127
tp1050
a(I0
g129
tp1051
a(I1
g127
tp1052
a(I2
g138
tp1053
a(I3
g127
tp1054
a(I0
g129
tp1055
a(I1
g147
tp1056
a(I2
g147
tp1057
a(I3
g127
tp1058
a(I0
g147
tp1059
a(I1
g127
tp1060
a(I2
g147
tp1061
a(I3
g127
tp1062
a(I0
g129
tp1063
a(I1
g147
tp1064
a(I2
g129
tp1065
a(I3
g127
tp1066
a(I0
g129
tp1067
a(I1
g127
tp1068
a(I2
g147
tp1069
a(I3
g127
tp1070
a(I0
g129
tp1071
a(I1
g127
tp1072
a(I2
g147
tp1073
a(I3
g127
tp1074
a(I0
g129
tp1075
a(I1
g127
tp1076
a(I2
g147
tp1077
a(I3
g127
tp1078
a(I0
g129
tp1079
a(I1
g138
tp1080
a(I2
g147
tp1081
a(I3
g127
tp1082
a(I0
g129
tp1083
a(I1
g127
tp1084
a(I2
g147
tp1085
a(I3
g127
tp1086
a(I0
g129
tp1087
a(I1
g129
tp1088
a(I2
g138
tp1089
a(I3
g127
tp1090
a(I0
g138
tp1091
a(I1
g127
tp1092
a(I2
g147
tp1093
a(I3
g127
tp1094
a(I0
g138
tp1095
a(I1
g127
tp1096
a(I2
g147
tp1097
a(I3
g127
tp1098
a(I0
g138
tp1099
a(I1
g127
tp1100
a(I2
g138
tp1101
a(I3
g127
tp1102
a(I0
g138
tp1103
a(I1
g127
tp1104
a(I2
g138
tp1105
a(I3
g127
tp1106
a(I0
g138
tp1107
a(I1
g134
tp1108
a(I2
g134
tp1109
a(I3
g127
tp1110
a(I0
g138
tp1111
a(I1
g127
tp1112
a(I2
g134
tp1113
a(I3
g127
tp1114
a(I0
g138
tp1115
a(I1
g134
tp1116
a(I2
g134
tp1117
a(I3
g127
tp1118
a(I0
g138
tp1119
a(I1
g127
tp1120
a(I2
g134
tp1121
a(I3
g127
tp1122
a(I0
g134
tp1123
a(I1
g129
tp1124
a(I2
g138
tp1125
a(I3
g127
tp1126
a(I0
g138
tp1127
a(I1
g127
tp1128
a(I2
g134
tp1129
a(I3
g127
tp1130
a(I0
g138
tp1131
a(I1
g138
tp1132
a(I2
g134
tp1133
a(I3
g127
tp1134
a(I0
g138
tp1135
a(I1
g127
tp1136
a(I2
g138
tp1137
a(I3
g127
tp1138
a(I0
g147
tp1139
a(I1
g127
tp1140
a(I2
g134
tp1141
a(I3
g127
tp1142
a(I0
g127
tp1143
a(I1
g129
tp1144
a(I2
g134
tp1145
a(I3
g127
tp1146
a(I0
g127
tp1147
a(I1
g127
tp1148
a(I2
g138
tp1149
a(I3
g127
tp1150
a(I0
g127
tp1151
a(I1
g127
tp1152
a(I2
g138
tp1153
a(I3
g127
tp1154
a(I0
g127
tp1155
a(I1
g129
tp1156
a(I2
g147
tp1157
a(I3
g127
tp1158
a(I0
g127
tp1159
a(I1
g127
tp1160
a(I2
g147
tp1161
a(I3
g127
tp1162
a(I0
g127
tp1163
a(I1
g127
tp1164
a(I2
g147
tp1165
a(I3
g127
tp1166
a(I0
g127
tp1167
a(I1
g138
tp1168
a(I2
g147
tp1169
a(I3
g127
tp1170
a(I0
g127
tp1171
a(I1
g127
tp1172
a(I2
g138
tp1173
a(I3
g127
tp1174
a(I0
g127
tp1175
a(I1
g127
tp1176
a(I2
g138
tp1177
a(I3
g127
tp1178
a(I0
g127
tp1179
a(I1
g138
tp1180
a(I2
g138
tp1181
a(I3
g127
tp1182
a(I0
g127
tp1183
a(I1
g127
tp1184
a(I2
g147
tp1185
a(I3
g127
tp1186
a(I0
g127
tp1187
a(I1
g138
tp1188
a(I2
g147
tp1189
a(I3
g127
tp1190
a(I0
g127
tp1191
a(I1
g127
tp1192
a(I2
g147
tp1193
a(I3
g127
tp1194
a(I0
g127
tp1195
a(I1
g134
tp1196
a(I2
g138
tp1197
a(I3
g127
tp1198
a(I0
g127
tp1199
a(I1
g127
tp1200
a(I2
g147
tp1201
a(I3
g127
tp1202
a(I0
g127
tp1203
a(I1
g138
tp1204
a(I2
g147
tp1205
a(I3
g127
tp1206
a(I0
g127
tp1207
a(I1
g127
tp1208
a(I2
g138
tp1209
a(I3
g127
tp1210
a(I0
g127
tp1211
a(I1
g129
tp1212
a(I2
g138
tp1213
a(I3
g127
tp1214
a(I0
g127
tp1215
a(I1
g127
tp1216
a(I2
g138
tp1217
a(I3
g127
tp1218
a(I0
g127
tp1219
a(I1
g147
tp1220
a(I2
g138
tp1221
a(I3
g127
tp1222
a(I0
g127
tp1223
a(I1
g127
tp1224
a(I2
g138
tp1225
asS'length'
p1226
I1200
sS'agents'
p1227
(lp1228
(igame
Agent
p1229
(dp1230
S'index'
p1231
I0
sba(igame
Agent
p1232
(dp1233
g1231
I0
sba(igame
Agent
p1234
(dp1235
g1231
I0
sba(igame
Agent
p1236
(dp1237
g1231
I0
sbasS'redTeamName'
p1238
S'Red'
p1239
s.