(dp1
S'layout'
p2
(ilayout
Layout
p3
(dp4
S'capsules'
p5
(lp6
(I19
I3
tp7
a(I14
I14
tp8
asS'numGhosts'
p9
I4
sS'food'
p10
(igame
Grid
p11
(dp12
S'CELLS_PER_INT'
p13
I30
sS'width'
p14
I34
sS'data'
p15
(lp16
(lp17
I00
aI00
aI00
aI00
aI00
aI00
aI00
aI00
aI00
aI00
aI00
aI00
aI00
aI00
aI00
aI00
aI00
aI00
aa(lp18
I00
aI00
aI00
aI00
aI00
aI00
aI00
aI00
aI01
aI01
aI00
aI00
aI00
aI00
aI01
aI00
aI01
aI00
aa(lp19
I00
aI00
aI00
aI00
aI00
aI00
aI00
aI00
aI00
aI00
aI00
aI00
aI00
aI00
aI01
aI00
aI01
aI00
aa(lp20
I00
aI00
aI00
aI00
aI00
aI00
aI00
aI00
aI00
aI01
aI00
aI00
aI01
aI00
aI00
aI00
aI00
aI00
aa(lp21
I00
aI00
aI00
aI00
aI00
aI00
aI01
aI00
aI00
aI00
aI00
aI00
aI00
aI00
aI01
aI00
aI00
aI00
aa(lp22
I00
aI00
aI00
aI00
aI00
aI00
aI00
aI00
aI00
aI01
aI00
aI01
aI00
aI00
aI00
aI00
aI00
aI00
aa(lp23
I00
aI00
aI00
aI00
aI00
aI00
aI01
aI00
aI00
aI00
aI00
aI01
aI01
aI00
aI00
aI00
aI00
aI00
aa(lp24
I00
aI00
aI00
aI00
aI00
aI00
aI00
aI00
aI00
aI00
aI00
aI00
aI00
aI00
aI00
aI00
aI00
aI00
aa(lp25
I00
aI00
aI00
aI00
aI00
aI00
aI01
aI00
aI01
aI01
aI00
aI00
aI01
aI00
aI00
aI00
aI00
aI00
aa(lp26
I00
aI00
aI00
aI00
aI00
aI01
aI00
aI00
aI00
aI00
aI00
aI00
aI00
aI00
aI00
aI00
aI00
aI00
aa(lp27
I00
aI00
aI01
aI00
aI00
aI00
aI00
aI00
aI00
aI00
aI00
aI00
aI01
aI00
aI00
aI00
aI00
aI00
aa(lp28
I00
aI00
aI00
aI00
aI00
aI00
aI00
aI00
aI00
aI00
aI00
aI00
aI00
aI00
aI00
aI00
aI01
aI00
aa(lp29
I00
aI00
aI00
aI01
aI00
aI00
aI00
aI00
aI01
aI00
aI00
aI00
aI00
aI00
aI00
aI00
aI00
aI00
aa(lp30
I00
aI00
aI00
aI00
aI00
aI00
aI00
aI00
aI00
aI00
aI00
aI00
aI01
aI00
aI00
aI00
aI00
aI00
aa(lp31
I00
aI00
aI00
aI01
aI01
aI00
aI00
aI00
aI00
aI00
aI00
aI00
aI00
aI00
aI00
aI00
aI00
aI00
aa(lp32
I00
aI00
aI00
aI00
aI00
aI00
aI00
aI00
aI00
aI00
aI00
aI00
aI00
aI00
aI00
aI00
aI00
aI00
aa(lp33
I00
aI00
aI00
aI00
aI00
aI01
aI00
aI00
aI00
aI00
aI01
aI00
aI00
aI00
aI00
aI00
aI00
aI00
aa(lp34
I00
aI00
aI00
aI00
aI00
aI00
aI00
aI01
aI00
aI00
aI00
aI00
aI01
aI00
aI00
aI00
aI00
aI00
aa(lp35
I00
aI00
aI00
aI00
aI00
aI00
aI00
aI00
aI00
aI00
aI00
aI00
aI00
aI00
aI00
aI00
aI00
aI00
aa(lp36
I00
aI00
aI00
aI00
aI00
aI00
aI00
aI00
aI00
aI00
aI00
aI00
aI00
aI01
aI01
aI00
aI00
aI00
aa(lp37
I00
aI00
aI00
aI00
aI00
aI01
aI00
aI00
aI00
aI00
aI00
aI00
aI00
aI00
aI00
aI00
aI00
aI00
aa(lp38
I00
aI00
aI00
aI00
aI00
aI00
aI00
aI00
aI00
aI01
aI00
aI00
aI00
aI00
aI01
aI00
aI00
aI00
aa(lp39
I00
aI01
aI00
aI00
aI00
aI00
aI00
aI00
aI00
aI00
aI00
aI00
aI00
aI00
aI00
aI00
aI00
aI00
aa(lp40
I00
aI00
aI00
aI00
aI00
aI01
aI00
aI00
aI00
aI00
aI00
aI00
aI00
aI00
aI00
aI01
aI00
aI00
aa(lp41
I00
aI00
aI00
aI00
aI00
aI00
aI00
aI00
aI00
aI00
aI00
aI00
aI01
aI00
aI00
aI00
aI00
aI00
aa(lp42
I00
aI00
aI00
aI00
aI00
aI01
aI00
aI00
aI01
aI01
aI00
aI01
aI00
aI00
aI00
aI00
aI00
aI00
aa(lp43
I00
aI00
aI00
aI00
aI00
aI00
aI00
aI00
aI00
aI00
aI00
aI00
aI00
aI00
aI00
aI00
aI00
aI00
aa(lp44
I00
aI00
aI00
aI00
aI00
aI01
aI01
aI00
aI00
aI00
aI00
aI01
aI00
aI00
aI00
aI00
aI00
aI00
aa(lp45
I00
aI00
aI00
aI00
aI00
aI00
aI01
aI00
aI01
aI00
aI00
aI00
aI00
aI00
aI00
aI00
aI00
aI00
aa(lp46
I00
aI00
aI00
aI01
aI00
aI00
aI00
aI00
aI00
aI00
aI00
aI01
aI00
aI00
aI00
aI00
aI00
aI00
aa(lp47
I00
aI00
aI00
aI00
aI00
aI01
aI00
aI00
aI01
aI00
aI00
aI00
aI00
aI00
aI00
aI00
aI00
aI00
aa(lp48
I00
aI01
aI00
aI01
aI00
aI00
aI00
aI00
aI00
aI00
aI00
aI00
aI00
aI00
aI00
aI00
aI00
aI00
aa(lp49
I00
aI01
aI00
aI01
aI00
aI00
aI00
aI00
aI01
aI01
aI00
aI00
aI00
aI00
aI00
aI00
aI00
aI00
aa(lp50
I00
aI00
aI00
aI00
aI00
aI00
aI00
aI00
aI00
aI00
aI00
aI00
aI00
aI00
aI00
aI00
aI00
aI00
aasS'height'
p51
I18
sbsS'agentPositions'
p52
(lp53
(I00
(I1
I2
tp54
tp55
a(I00
(I32
I15
tp56
tp57
a(I00
(I1
I1
tp58
tp59
a(I00
(I32
I16
tp60
tp61
asg51
I18
sg14
I34
sS'walls'
p62
(igame
Grid
p63
(dp64
g13
I30
sg14
I34
sg15
(lp65
(lp66
I01
aI01
aI01
aI01
aI01
aI01
aI01
aI01
aI01
aI01
aI01
aI01
aI01
aI01
aI01
aI01
aI01
aI01
aa(lp67
I01
aI00
aI00
aI00
aI00
aI00
aI00
aI00
aI00
aI00
aI01
aI00
aI00
aI01
aI00
aI01
aI00
aI01
aa(lp68
I01
aI01
aI01
aI01
aI01
aI01
aI00
aI01
aI01
aI01
aI01
aI00
aI00
aI01
aI00
aI01
aI00
aI01
aa(lp69
I01
aI00
aI00
aI00
aI00
aI00
aI00
aI01
aI00
aI00
aI01
aI00
aI00
aI01
aI00
aI01
aI00
aI01
aa(lp70
I01
aI01
aI01
aI01
aI00
aI01
aI00
aI00
aI00
aI00
aI00
aI00
aI00
aI01
aI00
aI00
aI00
aI01
aa(lp71
I01
aI00
aI00
aI01
aI00
aI00
aI00
aI01
aI00
aI00
aI01
aI00
aI00
aI01
aI00
aI01
aI00
aI01
aa(lp72
I01
aI00
aI00
aI00
aI00
aI01
aI00
aI01
aI00
aI00
aI01
aI00
aI00
aI00
aI00
aI01
aI00
aI01
aa(lp73
I01
aI01
aI00
aI01
aI01
aI01
aI01
aI01
aI01
aI01
aI01
aI01
aI01
aI01
aI00
aI01
aI00
aI01
aa(lp74
I01
aI00
aI00
aI00
aI00
aI00
aI00
aI01
aI00
aI00
aI00
aI00
aI00
aI01
aI00
aI01
aI00
aI01
aa(lp75
I01
aI00
aI01
aI01
aI01
aI00
aI01
aI01
aI01
aI01
aI01
aI00
aI01
aI01
aI00
aI01
aI00
aI01
aa(lp76
I01
aI00
aI00
aI00
aI00
aI00
aI00
aI00
aI00
aI00
aI00
aI00
aI00
aI01
aI00
aI01
aI00
aI01
aa(lp77
I01
aI00
aI01
aI01
aI01
aI00
aI01
aI01
aI01
aI01
aI01
aI01
aI01
aI01
aI00
aI01
aI00
aI01
aa(lp78
I01
aI00
aI01
aI00
aI00
aI00
aI00
aI00
aI00
aI00
aI00
aI00
aI00
aI00
aI00
aI01
aI00
aI01
aa(lp79
I01
aI00
aI01
aI01
aI00
aI01
aI01
aI01
aI01
aI00
aI01
aI01
aI00
aI00
aI00
aI01
aI00
aI01
aa(lp80
I01
aI00
aI01
aI00
aI00
aI00
aI00
aI00
aI00
aI00
aI00
aI00
aI00
aI01
aI00
aI00
aI00
aI01
aa(lp81
I01
aI00
aI01
aI01
aI01
aI01
aI00
aI00
aI01
aI01
aI00
aI01
aI00
aI01
aI01
aI01
aI00
aI01
aa(lp82
I01
aI00
aI00
aI00
aI00
aI00
aI00
aI00
aI00
aI00
aI00
aI00
aI00
aI00
aI00
aI00
aI00
aI01
aa(lp83
I01
aI00
aI00
aI00
aI00
aI00
aI00
aI00
aI00
aI00
aI00
aI00
aI00
aI00
aI00
aI00
aI00
aI01
aa(lp84
I01
aI00
aI01
aI01
aI01
aI00
aI01
aI00
aI01
aI01
aI00
aI00
aI01
aI01
aI01
aI01
aI00
aI01
aa(lp85
I01
aI00
aI00
aI00
aI01
aI00
aI00
aI00
aI00
aI00
aI00
aI00
aI00
aI00
aI00
aI01
aI00
aI01
aa(lp86
I01
aI00
aI01
aI00
aI00
aI00
aI01
aI01
aI00
aI01
aI01
aI01
aI01
aI00
aI01
aI01
aI00
aI01
aa(lp87
I01
aI00
aI01
aI00
aI00
aI00
aI00
aI00
aI00
aI00
aI00
aI00
aI00
aI00
aI00
aI01
aI00
aI01
aa(lp88
I01
aI00
aI01
aI00
aI01
aI01
aI01
aI01
aI01
aI01
aI01
aI01
aI00
aI01
aI01
aI01
aI00
aI01
aa(lp89
I01
aI00
aI01
aI00
aI01
aI00
aI00
aI00
aI00
aI00
aI00
aI00
aI00
aI00
aI00
aI00
aI00
aI01
aa(lp90
I01
aI00
aI01
aI00
aI01
aI01
aI00
aI01
aI01
aI01
aI01
aI01
aI00
aI01
aI01
aI01
aI00
aI01
aa(lp91
I01
aI00
aI01
aI00
aI01
aI00
aI00
aI00
aI00
aI00
aI01
aI00
aI00
aI00
aI00
aI00
aI00
aI01
aa(lp92
I01
aI00
aI01
aI00
aI01
aI01
aI01
aI01
aI01
aI01
aI01
aI01
aI01
aI01
aI01
aI00
aI01
aI01
aa(lp93
I01
aI00
aI01
aI00
aI00
aI00
aI00
aI01
aI00
aI00
aI01
aI00
aI01
aI00
aI00
aI00
aI00
aI01
aa(lp94
I01
aI00
aI01
aI00
aI01
aI00
aI00
aI01
aI00
aI00
aI01
aI00
aI00
aI00
aI01
aI00
aI00
aI01
aa(lp95
I01
aI00
aI00
aI00
aI01
aI00
aI00
aI00
aI00
aI00
aI00
aI00
aI01
aI00
aI01
aI01
aI01
aI01
aa(lp96
I01
aI00
aI01
aI00
aI01
aI00
aI00
aI01
aI00
aI00
aI01
aI00
aI00
aI00
aI00
aI00
aI00
aI01
aa(lp97
I01
aI00
aI01
aI00
aI01
aI00
aI00
aI01
aI01
aI01
aI01
aI00
aI01
aI01
aI01
aI01
aI01
aI01
aa(lp98
I01
aI00
aI01
aI00
aI01
aI00
aI00
aI01
aI00
aI00
aI00
aI00
aI00
aI00
aI00
aI00
aI00
aI01
aa(lp99
I01
aI01
aI01
aI01
aI01
aI01
aI01
aI01
aI01
aI01
aI01
aI01
aI01
aI01
aI01
aI01
aI01
aI01
aasg51
I18
sbsS'totalFood'
p100
I60
sS'layoutText'
p101
(lp102
S'%%%%%%%%%%%%%%%%%%%%%%%%%%%%%%%%%%'
p103
aS'%..        .              %  % %4%'
p104
aS'%%%% %%%%%%%%% %  %%%%%.%    % %2%'
p105
aS'%.. .         o%  %.%.% % % %% % %'
p106
aS'%%%%%% %%%%%  %%  %.  % % %    % %'
p107
aS'%  .  .%.%.% .   .% %   . %% % % %'
p108
aS'%    ..%   % % %    % % %.%. .   %'
p109
aS'%%%% %%% % % %  .   % % %%%%% %% %'
p110
aS'%.%. . %.% %   %  % %.% %.%    %.%'
p111
aS'%.%    %.% %.% %  %   % %.% . .%.%'
p112
aS'% %% %%%%% % %   .  % % % %%% %%%%'
p113
aS'%   . .%.% % %    % % %   %..    %'
p114
aS'% % % %% .   % %.   . %.%.%.  .  %'
p115
aS'% %    % % %  .%  %%  %%%%% %%%%%%'
p116
aS'% % %% % % %.%.%  %o         . ..%'
p117
aS'%1% %    %.%%%%%  % %%%%%%%%% %%%%'
p118
aS'%3% %  %              .        ..%'
p119
aS'%%%%%%%%%%%%%%%%%%%%%%%%%%%%%%%%%%'
p120
asbsS'blueTeamName'
p121
S'Blue'
p122
sS'actions'
p123
(lp124
(I0
S'North'
p125
tp126
a(I1
S'South'
p127
tp128
a(I2
g125
tp129
a(I3
g127
tp130
a(I0
g125
tp131
a(I1
g127
tp132
a(I2
g125
tp133
a(I3
g127
tp134
a(I0
g125
tp135
a(I1
g127
tp136
a(I2
g125
tp137
a(I3
g127
tp138
a(I0
g125
tp139
a(I1
g127
tp140
a(I2
g125
tp141
a(I3
g127
tp142
a(I0
S'East'
p143
tp144
a(I1
S'West'
p145
tp146
a(I2
g125
tp147
a(I3
g127
tp148
a(I0
g143
tp149
a(I1
g145
tp150
a(I2
g143
tp151
a(I3
g145
tp152
a(I0
g143
tp153
a(I1
g125
tp154
a(I2
g143
tp155
a(I3
g145
tp156
a(I0
g143
tp157
a(I1
g125
tp158
a(I2
g143
tp159
a(I3
g125
tp160
a(I0
g127
tp161
a(I1
g145
tp162
a(I2
g143
tp163
a(I3
g125
tp164
a(I0
g127
tp165
a(I1
g145
tp166
a(I2
g127
tp167
a(I3
g145
tp168
a(I0
g143
tp169
a(I1
g145
tp170
a(I2
g127
tp171
a(I3
g145
tp172
a(I0
g127
tp173
a(I1
g125
tp174
a(I2
g143
tp175
a(I3
g145
tp176
a(I0
g127
tp177
a(I1
g125
tp178
a(I2
g127
tp179
a(I3
g125
tp180
a(I0
g143
tp181
a(I1
g145
tp182
a(I2
g127
tp183
a(I3
g125
tp184
a(I0
g143
tp185
a(I1
g145
tp186
a(I2
g143
tp187
a(I3
g145
tp188
a(I0
g127
tp189
a(I1
g125
tp190
a(I2
g143
tp191
a(I3
g145
tp192
a(I0
g143
tp193
a(I1
g145
tp194
a(I2
g127
tp195
a(I3
g125
tp196
a(I0
g143
tp197
a(I1
g145
tp198
a(I2
g143
tp199
a(I3
g145
tp200
a(I0
g143
tp201
a(I1
g145
tp202
a(I2
g143
tp203
a(I3
g145
tp204
a(I0
g143
tp205
a(I1
g145
tp206
a(I2
g143
tp207
a(I3
g145
tp208
a(I0
g143
tp209
a(I1
g145
tp210
a(I2
g143
tp211
a(I3
g145
tp212
a(I0
g143
tp213
a(I1
g145
tp214
a(I2
g143
tp215
a(I3
g145
tp216
a(I0
g143
tp217
a(I1
g145
tp218
a(I2
g143
tp219
a(I3
g145
tp220
a(I0
g143
tp221
a(I1
g145
tp222
a(I2
g143
tp223
a(I3
g145
tp224
a(I0
g143
tp225
a(I1
g145
tp226
a(I2
g143
tp227
a(I3
g145
tp228
a(I0
g143
tp229
a(I1
g145
tp230
a(I2
g143
tp231
a(I3
g145
tp232
a(I0
g143
tp233
a(I1
g145
tp234
a(I2
g143
tp235
a(I3
g145
tp236
a(I0
g143
tp237
a(I1
g145
tp238
a(I2
g143
tp239
a(I3
g145
tp240
a(I0
g143
tp241
a(I1
g145
tp242
a(I2
g125
tp243
a(I3
g145
tp244
a(I0
g143
tp245
a(I1
g145
tp246
a(I2
g125
tp247
a(I3
g143
tp248
a(I0
g145
tp249
a(I1
g143
tp250
a(I2
g143
tp251
a(I3
g127
tp252
a(I0
g145
tp253
a(I1
g143
tp254
a(I2
g125
tp255
a(I3
g127
tp256
a(I0
g145
tp257
a(I1
g143
tp258
a(I2
g125
tp259
a(I3
g145
tp260
a(I0
g145
tp261
a(I1
g127
tp262
a(I2
g143
tp263
a(I3
g127
tp264
a(I0
g145
tp265
a(I1
g127
tp266
a(I2
g125
tp267
a(I3
g127
tp268
a(I0
g145
tp269
a(I1
g145
tp270
a(I2
g125
tp271
a(I3
g145
tp272
a(I0
g143
tp273
a(I1
g127
tp274
a(I2
g125
tp275
a(I3
g127
tp276
a(I0
g125
tp277
a(I1
g127
tp278
a(I2
g125
tp279
a(I3
g127
tp280
a(I0
g125
tp281
a(I1
g145
tp282
a(I2
g125
tp283
a(I3
g127
tp284
a(I0
g125
tp285
a(I1
g127
tp286
a(I2
g125
tp287
a(I3
g127
tp288
a(I0
g125
tp289
a(I1
g127
tp290
a(I2
g125
tp291
a(I3
g127
tp292
a(I0
g125
tp293
a(I1
g127
tp294
a(I2
g143
tp295
a(I3
g127
tp296
a(I0
g125
tp297
a(I1
g143
tp298
a(I2
g145
tp299
a(I3
g127
tp300
a(I0
g127
tp301
a(I1
g143
tp302
a(I2
g143
tp303
a(I3
g127
tp304
a(I0
g127
tp305
a(I1
g125
tp306
a(I2
g145
tp307
a(I3
g127
tp308
a(I0
g145
tp309
a(I1
g143
tp310
a(I2
g143
tp311
a(I3
g125
tp312
a(I0
g125
tp313
a(I1
g143
tp314
a(I2
g145
tp315
a(I3
g143
tp316
a(I0
g143
tp317
a(I1
g127
tp318
a(I2
g143
tp319
a(I3
g143
tp320
a(I0
g125
tp321
a(I1
g127
tp322
a(I2
g145
tp323
a(I3
g127
tp324
a(I0
g125
tp325
a(I1
g143
tp326
a(I2
g143
tp327
a(I3
g125
tp328
a(I0
g125
tp329
a(I1
g127
tp330
a(I2
g143
tp331
a(I3
g145
tp332
a(I0
g125
tp333
a(I1
g127
tp334
a(I2
g143
tp335
a(I3
g145
tp336
a(I0
g125
tp337
a(I1
g127
tp338
a(I2
g143
tp339
a(I3
g125
tp340
a(I0
g125
tp341
a(I1
g127
tp342
a(I2
g127
tp343
a(I3
g145
tp344
a(I0
g145
tp345
a(I1
g145
tp346
a(I2
g125
tp347
a(I3
g145
tp348
a(I0
g143
tp349
a(I1
g145
tp350
a(I2
g145
tp351
a(I3
g145
tp352
a(I0
g127
tp353
a(I1
g145
tp354
a(I2
g145
tp355
a(I3
g145
tp356
a(I0
g143
tp357
a(I1
g127
tp358
a(I2
g125
tp359
a(I3
g125
tp360
a(I0
g143
tp361
a(I1
g127
tp362
a(I2
g125
tp363
a(I3
g127
tp364
a(I0
g125
tp365
a(I1
g127
tp366
a(I2
g125
tp367
a(I3
g143
tp368
a(I0
g125
tp369
a(I1
g127
tp370
a(I2
g125
tp371
a(I3
g143
tp372
a(I0
g125
tp373
a(I1
g127
tp374
a(I2
g143
tp375
a(I3
g127
tp376
a(I0
g127
tp377
a(I1
g127
tp378
a(I2
g143
tp379
a(I3
g127
tp380
a(I0
g143
tp381
a(I1
g145
tp382
a(I2
g127
tp383
a(I3
g127
tp384
a(I0
g143
tp385
a(I1
g145
tp386
a(I2
g143
tp387
a(I3
g125
tp388
a(I0
g125
tp389
a(I1
g127
tp390
a(I2
g143
tp391
a(I3
g125
tp392
a(I0
g127
tp393
a(I1
g127
tp394
a(I2
g127
tp395
a(I3
g125
tp396
a(I0
g145
tp397
a(I1
g145
tp398
a(I2
g127
tp399
a(I3
g125
tp400
a(I0
g145
tp401
a(I1
g145
tp402
a(I2
g143
tp403
a(I3
g125
tp404
a(I0
g127
tp405
a(I1
g145
tp406
a(I2
g127
tp407
a(I3
g125
tp408
a(I0
g127
tp409
a(I1
g145
tp410
a(I2
g127
tp411
a(I3
g125
tp412
a(I0
g145
tp413
a(I1
g145
tp414
a(I2
g145
tp415
a(I3
g125
tp416
a(I0
g145
tp417
a(I1
g145
tp418
a(I2
g143
tp419
a(I3
g125
tp420
a(I0
g145
tp421
a(I1
g145
tp422
a(I2
g143
tp423
a(I3
g125
tp424
a(I0
g127
tp425
a(I1
g145
tp426
a(I2
g127
tp427
a(I3
g127
tp428
a(I0
g127
tp429
a(I1
g127
tp430
a(I2
g127
tp431
a(I3
g145
tp432
a(I0
g127
tp433
a(I1
g127
tp434
a(I2
g145
tp435
a(I3
g145
tp436
a(I0
g127
tp437
a(I1
g145
tp438
a(I2
g127
tp439
a(I3
g125
tp440
a(I0
g145
tp441
a(I1
g145
tp442
a(I2
g143
tp443
a(I3
g127
tp444
a(I0
g145
tp445
a(I1
g145
tp446
a(I2
g127
tp447
a(I3
g127
tp448
a(I0
g127
tp449
a(I1
g145
tp450
a(I2
g127
tp451
a(I3
g127
tp452
a(I0
g127
tp453
a(I1
g145
tp454
a(I2
g145
tp455
a(I3
g127
tp456
a(I0
g127
tp457
a(I1
g145
tp458
a(I2
g145
tp459
a(I3
g125
tp460
a(I0
g145
tp461
a(I1
g145
tp462
a(I2
g127
tp463
a(I3
g125
tp464
a(I0
g145
tp465
a(I1
g145
tp466
a(I2
g127
tp467
a(I3
g125
tp468
a(I0
g125
tp469
a(I1
g145
tp470
a(I2
g127
tp471
a(I3
g143
tp472
a(I0
g145
tp473
a(I1
g145
tp474
a(I2
g143
tp475
a(I3
g143
tp476
a(I0
g145
tp477
a(I1
g145
tp478
a(I2
g143
tp479
a(I3
g127
tp480
a(I0
g125
tp481
a(I1
g125
tp482
a(I2
g143
tp483
a(I3
S'Stop'
p484
tp485
a(I0
g125
tp486
a(I1
g145
tp487
a(I2
g143
tp488
a(I3
g484
tp489
a(I0
g125
tp490
a(I1
g145
tp491
a(I2
g143
tp492
a(I3
g484
tp493
a(I0
g125
tp494
a(I1
g125
tp495
a(I2
g145
tp496
a(I3
g484
tp497
a(I0
g125
tp498
a(I1
g125
tp499
a(I2
g145
tp500
a(I3
g127
tp501
a(I0
g127
tp502
a(I1
g145
tp503
a(I2
g145
tp504
a(I3
g127
tp505
a(I0
g127
tp506
a(I1
g125
tp507
a(I2
g127
tp508
a(I3
g127
tp509
a(I0
g127
tp510
a(I1
g125
tp511
a(I2
g125
tp512
a(I3
g127
tp513
a(I0
g127
tp514
a(I1
g145
tp515
a(I2
g127
tp516
a(I3
g127
tp517
a(I0
g127
tp518
a(I1
g143
tp519
a(I2
g125
tp520
a(I3
g145
tp521
a(I0
g127
tp522
a(I1
g143
tp523
a(I2
g127
tp524
a(I3
g145
tp525
a(I0
g127
tp526
a(I1
g145
tp527
a(I2
g127
tp528
a(I3
g145
tp529
a(I0
g127
tp530
a(I1
g145
tp531
a(I2
g143
tp532
a(I3
g145
tp533
a(I0
g127
tp534
a(I1
g125
tp535
a(I2
g143
tp536
a(I3
g125
tp537
a(I0
g143
tp538
a(I1
g125
tp539
a(I2
g143
tp540
a(I3
g125
tp541
a(I0
g143
tp542
a(I1
g125
tp543
a(I2
g145
tp544
a(I3
g145
tp545
a(I0
g143
tp546
a(I1
g145
tp547
a(I2
g145
tp548
a(I3
g125
tp549
a(I0
g143
tp550
a(I1
g143
tp551
a(I2
g145
tp552
a(I3
g125
tp553
a(I0
g143
tp554
a(I1
g143
tp555
a(I2
g125
tp556
a(I3
g145
tp557
a(I0
g143
tp558
a(I1
g145
tp559
a(I2
g125
tp560
a(I3
g145
tp561
a(I0
g143
tp562
a(I1
g125
tp563
a(I2
g145
tp564
a(I3
g127
tp565
a(I0
g143
tp566
a(I1
g125
tp567
a(I2
g145
tp568
a(I3
g127
tp569
a(I0
g143
tp570
a(I1
g143
tp571
a(I2
g125
tp572
a(I3
g127
tp573
a(I0
g145
tp574
a(I1
g143
tp575
a(I2
g125
tp576
a(I3
g145
tp577
a(I0
g145
tp578
a(I1
g125
tp579
a(I2
g143
tp580
a(I3
g145
tp581
a(I0
g145
tp582
a(I1
g145
tp583
a(I2
g143
tp584
a(I3
g145
tp585
a(I0
g145
tp586
a(I1
g145
tp587
a(I2
g143
tp588
a(I3
g145
tp589
a(I0
g145
tp590
a(I1
g145
tp591
a(I2
g145
tp592
a(I3
g125
tp593
a(I0
g145
tp594
a(I1
g143
tp595
a(I2
g125
tp596
a(I3
g145
tp597
a(I0
g145
tp598
a(I1
g143
tp599
a(I2
g125
tp600
a(I3
g145
tp601
a(I0
g145
tp602
a(I1
g143
tp603
a(I2
g125
tp604
a(I3
g127
tp605
a(I0
g145
tp606
a(I1
g125
tp607
a(I2
g143
tp608
a(I3
g127
tp609
a(I0
g145
tp610
a(I1
g125
tp611
a(I2
g145
tp612
a(I3
g127
tp613
a(I0
g145
tp614
a(I1
g145
tp615
a(I2
g125
tp616
a(I3
g145
tp617
a(I0
g125
tp618
a(I1
g145
tp619
a(I2
g125
tp620
a(I3
g145
tp621
a(I0
g145
tp622
a(I1
g145
tp623
a(I2
g125
tp624
a(I3
g145
tp625
a(I0
g145
tp626
a(I1
g145
tp627
a(I2
g143
tp628
a(I3
g145
tp629
a(I0
g125
tp630
a(I1
g145
tp631
a(I2
g143
tp632
a(I3
g145
tp633
a(I0
g125
tp634
a(I1
g143
tp635
a(I2
g143
tp636
a(I3
g127
tp637
a(I0
g145
tp638
a(I1
g143
tp639
a(I2
g127
tp640
a(I3
g145
tp641
a(I0
g125
tp642
a(I1
g143
tp643
a(I2
g127
tp644
a(I3
g145
tp645
a(I0
g125
tp646
a(I1
g125
tp647
a(I2
g127
tp648
a(I3
g127
tp649
a(I0
g145
tp650
a(I1
g125
tp651
a(I2
g125
tp652
a(I3
g127
tp653
a(I0
g125
tp654
a(I1
g145
tp655
a(I2
g125
tp656
a(I3
g127
tp657
a(I0
g125
tp658
a(I1
g145
tp659
a(I2
g125
tp660
a(I3
g127
tp661
a(I0
g125
tp662
a(I1
g145
tp663
a(I2
g145
tp664
a(I3
g145
tp665
a(I0
g125
tp666
a(I1
g143
tp667
a(I2
g145
tp668
a(I3
g145
tp669
a(I0
g125
tp670
a(I1
g143
tp671
a(I2
g145
tp672
a(I3
g125
tp673
a(I0
g143
tp674
a(I1
g143
tp675
a(I2
g145
tp676
a(I3
g125
tp677
a(I0
g143
tp678
a(I1
g127
tp679
a(I2
g125
tp680
a(I3
g125
tp681
a(I0
g125
tp682
a(I1
g127
tp683
a(I2
g125
tp684
a(I3
g125
tp685
a(I0
g125
tp686
a(I1
g143
tp687
a(I2
g145
tp688
a(I3
g125
tp689
a(I0
g125
tp690
a(I1
g145
tp691
a(I2
g125
tp692
a(I3
g125
tp693
a(I0
g143
tp694
a(I1
g125
tp695
a(I2
g125
tp696
a(I3
g145
tp697
a(I0
g143
tp698
a(I1
g127
tp699
a(I2
g145
tp700
a(I3
g145
tp701
a(I0
g143
tp702
a(I1
g143
tp703
a(I2
g145
tp704
a(I3
g127
tp705
a(I0
g143
tp706
a(I1
g143
tp707
a(I2
g127
tp708
a(I3
g127
tp709
a(I0
g143
tp710
a(I1
g127
tp711
a(I2
g127
tp712
a(I3
g127
tp713
a(I0
g143
tp714
a(I1
g127
tp715
a(I2
g127
tp716
a(I3
g125
tp717
a(I0
g127
tp718
a(I1
g127
tp719
a(I2
g145
tp720
a(I3
g125
tp721
a(I0
g127
tp722
a(I1
g145
tp723
a(I2
g145
tp724
a(I3
g125
tp725
a(I0
g127
tp726
a(I1
g145
tp727
a(I2
g145
tp728
a(I3
g125
tp729
a(I0
g125
tp730
a(I1
g127
tp731
a(I2
g145
tp732
a(I3
g127
tp733
a(I0
g127
tp734
a(I1
g127
tp735
a(I2
g125
tp736
a(I3
g143
tp737
a(I0
g125
tp738
a(I1
g127
tp739
a(I2
g145
tp740
a(I3
g143
tp741
a(I0
g143
tp742
a(I1
g127
tp743
a(I2
g145
tp744
a(I3
g125
tp745
a(I0
g145
tp746
a(I1
g125
tp747
a(I2
g127
tp748
a(I3
g127
tp749
a(I0
g143
tp750
a(I1
g125
tp751
a(I2
g127
tp752
a(I3
g127
tp753
a(I0
g145
tp754
a(I1
g125
tp755
a(I2
g145
tp756
a(I3
g127
tp757
a(I0
g143
tp758
a(I1
g125
tp759
a(I2
g145
tp760
a(I3
g127
tp761
a(I0
g145
tp762
a(I1
g125
tp763
a(I2
g145
tp764
a(I3
g127
tp765
a(I0
g125
tp766
a(I1
g143
tp767
a(I2
g125
tp768
a(I3
g127
tp769
a(I0
g125
tp770
a(I1
g143
tp771
a(I2
g145
tp772
a(I3
g127
tp773
a(I0
g143
tp774
a(I1
g125
tp775
a(I2
g145
tp776
a(I3
g143
tp777
a(I0
g145
tp778
a(I1
g125
tp779
a(I2
g145
tp780
a(I3
g143
tp781
a(I0
g145
tp782
a(I1
g145
tp783
a(I2
g145
tp784
a(I3
g127
tp785
a(I0
g143
tp786
a(I1
g143
tp787
a(I2
g143
tp788
a(I3
g143
tp789
a(I0
g143
tp790
a(I1
g143
tp791
a(I2
g143
tp792
a(I3
g143
tp793
a(I0
g145
tp794
a(I1
g145
tp795
a(I2
g145
tp796
a(I3
g125
tp797
a(I0
g127
tp798
a(I1
g143
tp799
a(I2
g143
tp800
a(I3
g125
tp801
a(I0
g143
tp802
a(I1
g143
tp803
a(I2
g145
tp804
a(I3
g143
tp805
a(I0
g145
tp806
a(I1
g143
tp807
a(I2
g145
tp808
a(I3
g143
tp809
a(I0
g127
tp810
a(I1
g143
tp811
a(I2
g127
tp812
a(I3
g143
tp813
a(I0
g125
tp814
a(I1
g143
tp815
a(I2
g125
tp816
a(I3
g127
tp817
a(I0
g125
tp818
a(I1
g145
tp819
a(I2
g125
tp820
a(I3
g143
tp821
a(I0
g145
tp822
a(I1
g145
tp823
a(I2
g125
tp824
a(I3
g143
tp825
a(I0
g145
tp826
a(I1
g145
tp827
a(I2
g145
tp828
a(I3
g143
tp829
a(I0
g145
tp830
a(I1
g145
tp831
a(I2
g145
tp832
a(I3
g143
tp833
a(I0
g145
tp834
a(I1
g145
tp835
a(I2
g145
tp836
a(I3
g127
tp837
a(I0
g145
tp838
a(I1
g145
tp839
a(I2
g145
tp840
a(I3
g127
tp841
a(I0
g145
tp842
a(I1
g145
tp843
a(I2
g145
tp844
a(I3
g143
tp845
a(I0
g145
tp846
a(I1
g125
tp847
a(I2
g145
tp848
a(I3
g143
tp849
a(I0
g145
tp850
a(I1
g125
tp851
a(I2
g145
tp852
a(I3
g143
tp853
a(I0
g125
tp854
a(I1
g143
tp855
a(I2
g145
tp856
a(I3
g143
tp857
a(I0
g125
tp858
a(I1
g143
tp859
a(I2
g125
tp860
a(I3
g143
tp861
a(I0
g143
tp862
a(I1
g143
tp863
a(I2
g125
tp864
a(I3
g143
tp865
a(I0
g143
tp866
a(I1
g143
tp867
a(I2
g143
tp868
a(I3
g125
tp869
a(I0
g143
tp870
a(I1
g143
tp871
a(I2
g143
tp872
a(I3
g125
tp873
a(I0
g143
tp874
a(I1
g143
tp875
a(I2
g143
tp876
a(I3
g125
tp877
a(I0
g143
tp878
a(I1
g143
tp879
a(I2
g143
tp880
a(I3
g143
tp881
a(I0
g143
tp882
a(I1
g143
tp883
a(I2
g143
tp884
a(I3
g143
tp885
a(I0
g143
tp886
a(I1
g143
tp887
a(I2
g143
tp888
a(I3
g125
tp889
a(I0
g143
tp890
a(I1
g143
tp891
a(I2
g143
tp892
a(I3
g125
tp893
a(I0
g143
tp894
a(I1
g143
tp895
a(I2
g143
tp896
a(I3
g125
tp897
a(I0
g143
tp898
a(I1
g143
tp899
a(I2
g143
tp900
a(I3
g125
tp901
a(I0
g143
tp902
a(I1
g143
tp903
a(I2
g143
tp904
a(I3
g125
tp905
a(I0
g143
tp906
a(I1
g143
tp907
a(I2
g143
tp908
a(I3
g143
tp909
a(I0
g127
tp910
a(I1
g143
tp911
a(I2
g143
tp912
a(I3
g143
tp913
a(I0
g143
tp914
a(I1
g143
tp915
a(I2
g143
tp916
a(I3
g143
tp917
a(I0
g125
tp918
a(I1
g143
tp919
a(I2
g143
tp920
a(I3
g125
tp921
a(I0
g143
tp922
a(I1
g143
tp923
a(I2
g143
tp924
a(I3
g125
tp925
a(I0
g143
tp926
a(I1
g143
tp927
a(I2
g143
tp928
a(I3
g125
tp929
a(I0
g143
tp930
a(I1
g143
tp931
a(I2
g143
tp932
a(I3
g125
tp933
a(I0
g143
tp934
a(I1
g143
tp935
a(I2
g143
tp936
a(I3
g125
tp937
a(I0
g143
tp938
a(I1
g127
tp939
a(I2
g143
tp940
a(I3
g484
tp941
a(I0
g143
tp942
a(I1
g143
tp943
a(I2
g143
tp944
a(I3
g484
tp945
a(I0
g127
tp946
a(I1
g143
tp947
a(I2
g143
tp948
a(I3
g484
tp949
a(I0
g127
tp950
a(I1
g127
tp951
a(I2
g127
tp952
a(I3
g484
tp953
a(I0
g127
tp954
a(I1
g127
tp955
a(I2
g143
tp956
a(I3
g484
tp957
a(I0
g127
tp958
a(I1
g143
tp959
a(I2
g145
tp960
a(I3
g484
tp961
a(I0
g127
tp962
a(I1
g143
tp963
a(I2
g143
tp964
a(I3
g484
tp965
a(I0
g127
tp966
a(I1
g143
tp967
a(I2
g145
tp968
a(I3
g484
tp969
a(I0
g127
tp970
a(I1
g127
tp971
a(I2
g143
tp972
a(I3
g484
tp973
a(I0
g127
tp974
a(I1
g127
tp975
a(I2
g145
tp976
a(I3
g484
tp977
a(I0
g127
tp978
a(I1
g143
tp979
a(I2
g143
tp980
a(I3
g484
tp981
a(I0
g127
tp982
a(I1
g143
tp983
a(I2
g143
tp984
a(I3
g484
tp985
a(I0
g127
tp986
a(I1
g125
tp987
a(I2
g127
tp988
a(I3
g484
tp989
a(I0
g125
tp990
a(I1
g125
tp991
a(I2
g127
tp992
a(I3
g484
tp993
a(I0
g143
tp994
a(I1
g125
tp995
a(I2
g143
tp996
a(I3
g484
tp997
a(I0
g143
tp998
a(I1
g125
tp999
a(I2
g143
tp1000
a(I3
g484
tp1001
a(I0
g127
tp1002
a(I1
g484
tp1003
a(I2
g145
tp1004
a(I3
g484
tp1005
a(I0
g125
tp1006
a(I1
g484
tp1007
a(I2
g145
tp1008
a(I3
g484
tp1009
a(I0
g145
tp1010
a(I1
g484
tp1011
a(I2
g125
tp1012
a(I3
g484
tp1013
a(I0
g145
tp1014
a(I1
g484
tp1015
a(I2
g125
tp1016
a(I3
g484
tp1017
a(I0
g125
tp1018
a(I1
g484
tp1019
a(I2
g145
tp1020
a(I3
g484
tp1021
a(I0
g125
tp1022
a(I1
g484
tp1023
a(I2
g145
tp1024
a(I3
g484
tp1025
a(I0
g125
tp1026
a(I1
g484
tp1027
a(I2
g125
tp1028
a(I3
g484
tp1029
a(I0
g125
tp1030
a(I1
g484
tp1031
a(I2
g145
tp1032
a(I3
g484
tp1033
a(I0
g125
tp1034
a(I1
g484
tp1035
a(I2
g145
tp1036
a(I3
g484
tp1037
a(I0
g125
tp1038
a(I1
g484
tp1039
a(I2
g145
tp1040
a(I3
g484
tp1041
a(I0
g145
tp1042
a(I1
g484
tp1043
a(I2
g145
tp1044
a(I3
g484
tp1045
a(I0
g145
tp1046
a(I1
g484
tp1047
a(I2
g145
tp1048
a(I3
g484
tp1049
a(I0
g125
tp1050
a(I1
g484
tp1051
a(I2
g145
tp1052
a(I3
g484
tp1053
a(I0
g145
tp1054
a(I1
g484
tp1055
a(I2
g145
tp1056
a(I3
g484
tp1057
a(I0
g145
tp1058
a(I1
g484
tp1059
a(I2
g145
tp1060
a(I3
g484
tp1061
a(I0
g127
tp1062
a(I1
g484
tp1063
a(I2
g145
tp1064
a(I3
g484
tp1065
a(I0
g127
tp1066
a(I1
g484
tp1067
a(I2
g145
tp1068
a(I3
g484
tp1069
a(I0
g145
tp1070
a(I1
g484
tp1071
a(I2
g145
tp1072
a(I3
g484
tp1073
a(I0
g145
tp1074
a(I1
g484
tp1075
a(I2
g127
tp1076
a(I3
g484
tp1077
a(I0
g145
tp1078
asS'length'
p1079
I1200
sS'agents'
p1080
(lp1081
(igame
Agent
p1082
(dp1083
S'index'
p1084
I0
sba(igame
Agent
p1085
(dp1086
g1084
I0
sba(igame
Agent
p1087
(dp1088
g1084
I0
sba(igame
Agent
p1089
(dp1090
g1084
I0
sbasS'redTeamName'
p1091
S'Red'
p1092
s.