(dp1
S'layout'
p2
(ilayout
Layout
p3
(dp4
S'capsules'
p5
(lp6
(I8
I8
tp7
a(I28
I8
tp8
a(I5
I9
tp9
a(I25
I9
tp10
asS'numGhosts'
p11
I4
sS'food'
p12
(igame
Grid
p13
(dp14
S'CELLS_PER_INT'
p15
I30
sS'width'
p16
I34
sS'data'
p17
(lp18
(lp19
I00
aI00
aI00
aI00
aI00
aI00
aI00
aI00
aI00
aI00
aI00
aI00
aI00
aI00
aI00
aI00
aI00
aI00
aa(lp20
I00
aI00
aI00
aI00
aI00
aI01
aI00
aI00
aI00
aI00
aI00
aI00
aI00
aI00
aI00
aI00
aI01
aI00
aa(lp21
I00
aI00
aI00
aI00
aI00
aI00
aI00
aI00
aI00
aI00
aI00
aI00
aI00
aI01
aI00
aI00
aI00
aI00
aa(lp22
I00
aI00
aI00
aI00
aI00
aI00
aI00
aI00
aI00
aI00
aI00
aI00
aI00
aI00
aI00
aI00
aI00
aI00
aa(lp23
I00
aI00
aI00
aI00
aI00
aI01
aI00
aI01
aI00
aI01
aI00
aI00
aI00
aI00
aI00
aI00
aI00
aI00
aa(lp24
I00
aI00
aI00
aI00
aI00
aI01
aI00
aI00
aI00
aI00
aI00
aI00
aI00
aI00
aI00
aI00
aI00
aI00
aa(lp25
I00
aI00
aI00
aI00
aI00
aI00
aI00
aI00
aI00
aI00
aI00
aI01
aI00
aI00
aI00
aI01
aI01
aI00
aa(lp26
I00
aI00
aI00
aI00
aI01
aI01
aI00
aI01
aI00
aI00
aI00
aI00
aI00
aI00
aI00
aI00
aI00
aI00
aa(lp27
I00
aI00
aI00
aI00
aI00
aI00
aI00
aI00
aI00
aI00
aI00
aI00
aI00
aI01
aI01
aI00
aI01
aI00
aa(lp28
I00
aI00
aI01
aI00
aI00
aI00
aI00
aI00
aI00
aI00
aI00
aI00
aI00
aI00
aI00
aI00
aI01
aI00
aa(lp29
I00
aI01
aI00
aI00
aI00
aI00
aI00
aI01
aI00
aI01
aI00
aI00
aI00
aI00
aI01
aI00
aI00
aI00
aa(lp30
I00
aI00
aI00
aI00
aI00
aI00
aI00
aI01
aI00
aI00
aI00
aI00
aI01
aI00
aI00
aI00
aI00
aI00
aa(lp31
I00
aI01
aI01
aI00
aI00
aI00
aI00
aI00
aI00
aI00
aI00
aI00
aI00
aI00
aI00
aI00
aI00
aI00
aa(lp32
I00
aI00
aI01
aI00
aI00
aI00
aI00
aI00
aI01
aI00
aI00
aI00
aI00
aI00
aI00
aI00
aI00
aI00
aa(lp33
I00
aI01
aI00
aI00
aI00
aI00
aI01
aI00
aI00
aI00
aI00
aI00
aI00
aI00
aI00
aI00
aI00
aI00
aa(lp34
I00
aI00
aI00
aI00
aI00
aI00
aI00
aI00
aI00
aI00
aI00
aI00
aI00
aI00
aI00
aI00
aI00
aI00
aa(lp35
I00
aI00
aI00
aI00
aI00
aI00
aI00
aI00
aI00
aI00
aI00
aI00
aI00
aI00
aI00
aI00
aI00
aI00
aa(lp36
I00
aI00
aI00
aI00
aI00
aI00
aI00
aI00
aI00
aI00
aI00
aI00
aI00
aI00
aI00
aI00
aI00
aI00
aa(lp37
I00
aI00
aI00
aI00
aI00
aI00
aI00
aI00
aI00
aI00
aI00
aI00
aI00
aI00
aI00
aI00
aI00
aI00
aa(lp38
I00
aI00
aI00
aI00
aI00
aI00
aI00
aI00
aI00
aI00
aI00
aI01
aI00
aI00
aI00
aI00
aI01
aI00
aa(lp39
I00
aI00
aI00
aI00
aI00
aI00
aI00
aI00
aI00
aI01
aI00
aI00
aI00
aI00
aI00
aI01
aI00
aI00
aa(lp40
I00
aI00
aI00
aI00
aI00
aI00
aI00
aI00
aI00
aI00
aI00
aI00
aI00
aI00
aI00
aI01
aI01
aI00
aa(lp41
I00
aI00
aI00
aI00
aI00
aI01
aI00
aI00
aI00
aI00
aI01
aI00
aI00
aI00
aI00
aI00
aI00
aI00
aa(lp42
I00
aI00
aI00
aI01
aI00
aI00
aI00
aI00
aI01
aI00
aI01
aI00
aI00
aI00
aI00
aI00
aI01
aI00
aa(lp43
I00
aI01
aI00
aI00
aI00
aI00
aI00
aI00
aI00
aI00
aI00
aI00
aI00
aI00
aI00
aI01
aI00
aI00
aa(lp44
I00
aI01
aI00
aI01
aI01
aI00
aI00
aI00
aI00
aI00
aI00
aI00
aI00
aI00
aI00
aI00
aI00
aI00
aa(lp45
I00
aI00
aI00
aI00
aI00
aI00
aI00
aI00
aI00
aI00
aI01
aI00
aI01
aI01
aI00
aI00
aI00
aI00
aa(lp46
I00
aI01
aI01
aI00
aI00
aI00
aI01
aI00
aI00
aI00
aI00
aI00
aI00
aI00
aI00
aI00
aI00
aI00
aa(lp47
I00
aI00
aI00
aI00
aI00
aI00
aI00
aI00
aI00
aI00
aI00
aI00
aI01
aI00
aI00
aI00
aI00
aI00
aa(lp48
I00
aI00
aI00
aI00
aI00
aI00
aI00
aI00
aI01
aI00
aI01
aI00
aI01
aI00
aI00
aI00
aI00
aI00
aa(lp49
I00
aI00
aI00
aI00
aI00
aI00
aI00
aI00
aI00
aI00
aI00
aI00
aI00
aI00
aI00
aI00
aI00
aI00
aa(lp50
I00
aI00
aI00
aI00
aI01
aI00
aI00
aI00
aI00
aI00
aI00
aI00
aI00
aI00
aI00
aI00
aI00
aI00
aa(lp51
I00
aI01
aI00
aI00
aI00
aI00
aI00
aI00
aI00
aI00
aI00
aI00
aI01
aI00
aI00
aI00
aI00
aI00
aa(lp52
I00
aI00
aI00
aI00
aI00
aI00
aI00
aI00
aI00
aI00
aI00
aI00
aI00
aI00
aI00
aI00
aI00
aI00
aasS'height'
p53
I18
sbsS'agentPositions'
p54
(lp55
(I00
(I1
I2
tp56
tp57
a(I00
(I32
I15
tp58
tp59
a(I00
(I1
I1
tp60
tp61
a(I00
(I32
I16
tp62
tp63
asg53
I18
sg16
I34
sS'walls'
p64
(igame
Grid
p65
(dp66
g15
I30
sg16
I34
sg17
(lp67
(lp68
I01
aI01
aI01
aI01
aI01
aI01
aI01
aI01
aI01
aI01
aI01
aI01
aI01
aI01
aI01
aI01
aI01
aI01
aa(lp69
I01
aI00
aI00
aI00
aI00
aI00
aI00
aI01
aI00
aI00
aI00
aI00
aI00
aI00
aI00
aI00
aI00
aI01
aa(lp70
I01
aI00
aI00
aI00
aI00
aI01
aI00
aI00
aI00
aI01
aI00
aI00
aI01
aI00
aI00
aI00
aI00
aI01
aa(lp71
I01
aI01
aI01
aI00
aI01
aI01
aI01
aI01
aI01
aI01
aI01
aI01
aI01
aI01
aI01
aI00
aI00
aI01
aa(lp72
I01
aI00
aI00
aI00
aI00
aI00
aI01
aI00
aI00
aI00
aI01
aI00
aI00
aI00
aI00
aI00
aI00
aI01
aa(lp73
I01
aI00
aI00
aI00
aI01
aI00
aI01
aI01
aI00
aI00
aI00
aI00
aI01
aI01
aI00
aI01
aI01
aI01
aa(lp74
I01
aI01
aI00
aI01
aI01
aI01
aI01
aI00
aI00
aI00
aI01
aI00
aI00
aI00
aI00
aI00
aI00
aI01
aa(lp75
I01
aI00
aI00
aI01
aI00
aI00
aI01
aI00
aI01
aI01
aI01
aI01
aI01
aI01
aI01
aI01
aI01
aI01
aa(lp76
I01
aI00
aI00
aI01
aI00
aI01
aI01
aI00
aI00
aI00
aI00
aI00
aI00
aI00
aI00
aI01
aI00
aI01
aa(lp77
I01
aI01
aI00
aI01
aI00
aI00
aI01
aI01
aI01
aI01
aI01
aI00
aI01
aI00
aI01
aI01
aI00
aI01
aa(lp78
I01
aI00
aI00
aI01
aI01
aI00
aI01
aI00
aI01
aI00
aI01
aI00
aI01
aI00
aI00
aI01
aI00
aI01
aa(lp79
I01
aI01
aI00
aI01
aI00
aI00
aI01
aI00
aI00
aI00
aI00
aI00
aI00
aI00
aI00
aI01
aI00
aI01
aa(lp80
I01
aI00
aI00
aI01
aI00
aI01
aI01
aI01
aI01
aI01
aI01
aI01
aI00
aI01
aI00
aI00
aI00
aI01
aa(lp81
I01
aI01
aI00
aI01
aI00
aI00
aI01
aI00
aI00
aI00
aI00
aI01
aI00
aI01
aI00
aI01
aI00
aI01
aa(lp82
I01
aI00
aI00
aI00
aI00
aI00
aI00
aI00
aI00
aI01
aI00
aI00
aI00
aI00
aI00
aI01
aI00
aI01
aa(lp83
I01
aI00
aI01
aI01
aI00
aI00
aI01
aI00
aI01
aI01
aI01
aI01
aI01
aI01
aI00
aI01
aI00
aI01
aa(lp84
I01
aI00
aI00
aI01
aI00
aI00
aI01
aI00
aI00
aI00
aI00
aI00
aI00
aI01
aI00
aI01
aI00
aI01
aa(lp85
I01
aI00
aI01
aI00
aI01
aI00
aI00
aI00
aI00
aI00
aI00
aI01
aI00
aI00
aI01
aI00
aI00
aI01
aa(lp86
I01
aI00
aI01
aI00
aI01
aI01
aI01
aI01
aI01
aI01
aI00
aI01
aI00
aI00
aI01
aI01
aI00
aI01
aa(lp87
I01
aI00
aI01
aI00
aI00
aI00
aI00
aI00
aI01
aI00
aI00
aI00
aI00
aI00
aI00
aI00
aI00
aI01
aa(lp88
I01
aI00
aI01
aI00
aI01
aI00
aI01
aI00
aI00
aI00
aI00
aI01
aI00
aI00
aI01
aI00
aI01
aI01
aa(lp89
I01
aI00
aI00
aI00
aI01
aI00
aI01
aI01
aI01
aI01
aI01
aI01
aI01
aI00
aI01
aI00
aI00
aI01
aa(lp90
I01
aI00
aI01
aI00
aI00
aI00
aI00
aI00
aI00
aI00
aI00
aI01
aI00
aI00
aI01
aI00
aI01
aI01
aa(lp91
I01
aI00
aI01
aI00
aI00
aI01
aI00
aI01
aI00
aI01
aI00
aI01
aI00
aI01
aI01
aI00
aI00
aI01
aa(lp92
I01
aI00
aI01
aI01
aI00
aI01
aI00
aI01
aI01
aI01
aI01
aI01
aI00
aI00
aI01
aI00
aI01
aI01
aa(lp93
I01
aI00
aI01
aI00
aI00
aI00
aI00
aI00
aI00
aI00
aI00
aI01
aI01
aI00
aI01
aI00
aI00
aI01
aa(lp94
I01
aI01
aI01
aI01
aI01
aI01
aI01
aI01
aI01
aI01
aI00
aI01
aI00
aI00
aI01
aI00
aI00
aI01
aa(lp95
I01
aI00
aI00
aI00
aI00
aI00
aI00
aI01
aI00
aI00
aI00
aI01
aI01
aI01
aI01
aI00
aI01
aI01
aa(lp96
I01
aI01
aI01
aI00
aI01
aI01
aI00
aI00
aI00
aI00
aI01
aI01
aI00
aI01
aI00
aI00
aI00
aI01
aa(lp97
I01
aI00
aI00
aI00
aI00
aI00
aI00
aI01
aI00
aI00
aI00
aI01
aI00
aI00
aI00
aI00
aI00
aI01
aa(lp98
I01
aI00
aI00
aI01
aI01
aI01
aI01
aI01
aI01
aI01
aI01
aI01
aI01
aI01
aI00
aI01
aI01
aI01
aa(lp99
I01
aI00
aI00
aI00
aI00
aI01
aI00
aI00
aI01
aI00
aI00
aI00
aI01
aI00
aI00
aI00
aI00
aI01
aa(lp100
I01
aI00
aI00
aI00
aI00
aI00
aI00
aI00
aI00
aI00
aI01
aI00
aI00
aI00
aI00
aI00
aI00
aI01
aa(lp101
I01
aI01
aI01
aI01
aI01
aI01
aI01
aI01
aI01
aI01
aI01
aI01
aI01
aI01
aI01
aI01
aI01
aI01
aasg53
I18
sbsS'totalFood'
p102
I60
sS'layoutText'
p103
(lp104
S'%%%%%%%%%%%%%%%%%%%%%%%%%%%%%%%%%%'
p105
aS'%.   %.%..         .%.%.%  %  % 4%'
p106
aS'%    %.%%%%% %%%% % ..  .     % 2%'
p107
aS'%  %   %.%.      %% %%%%%%%%     %'
p108
aS'% .% % %.   %% %%      %  .%% %  %'
p109
aS'% %% % % %%.   %     %   %.%..%%.%'
p110
aS'%  %  .%    %% % %%.%%%%%%%%%%%  %'
p111
aS'%  %% %% %% %  %     %..% . %.% %%'
p112
aS'% %%.o % %. % %%  % .% %%o%   %  %'
p113
aS'%  %   %o%% %. %  %% % .% % o.%% %'
p114
aS'%% %.% . %..%     %  % %% %% %%  %'
p115
aS'%  %%%%%%%%%%%.%% % %%    %.  %  %'
p116
aS'%.%%..%.%   %     %   .%% % % %% %'
p117
aS'%  % %%.  %      %% %%   .% % %. %'
p118
aS'%     %%%%%%%% %%      .%.%   %  %'
p119
aS'%1 %     .  .. % %%%% %%%%%.%    %'
p120
aS'%3 %  %  %.%.%.         ..%.%   .%'
p121
aS'%%%%%%%%%%%%%%%%%%%%%%%%%%%%%%%%%%'
p122
asbsS'blueTeamName'
p123
S'Blue'
p124
sS'actions'
p125
(lp126
(I1
S'South'
p127
tp128
a(I2
S'East'
p129
tp130
a(I3
S'West'
p131
tp132
a(I0
g129
tp133
a(I1
g127
tp134
a(I2
S'North'
p135
tp136
a(I3
g127
tp137
a(I0
g135
tp138
a(I1
g127
tp139
a(I2
g135
tp140
a(I3
g127
tp141
a(I0
g129
tp142
a(I1
g127
tp143
a(I2
g129
tp144
a(I3
g131
tp145
a(I0
g129
tp146
a(I1
g131
tp147
a(I2
g129
tp148
a(I3
g131
tp149
a(I0
g129
tp150
a(I1
g127
tp151
a(I2
g129
tp152
a(I3
g135
tp153
a(I0
g127
tp154
a(I1
g127
tp155
a(I2
g127
tp156
a(I3
g131
tp157
a(I0
g129
tp158
a(I1
g129
tp159
a(I2
g129
tp160
a(I3
g131
tp161
a(I0
g129
tp162
a(I1
g127
tp163
a(I2
g129
tp164
a(I3
g131
tp165
a(I0
g129
tp166
a(I1
g127
tp167
a(I2
g129
tp168
a(I3
g131
tp169
a(I0
g129
tp170
a(I1
g127
tp171
a(I2
g129
tp172
a(I3
g131
tp173
a(I0
g129
tp174
a(I1
g127
tp175
a(I2
g129
tp176
a(I3
g131
tp177
a(I0
g129
tp178
a(I1
g127
tp179
a(I2
g129
tp180
a(I3
g131
tp181
a(I0
g129
tp182
a(I1
g131
tp183
a(I2
g129
tp184
a(I3
g131
tp185
a(I0
g129
tp186
a(I1
g127
tp187
a(I2
g129
tp188
a(I3
g131
tp189
a(I0
g129
tp190
a(I1
g127
tp191
a(I2
g129
tp192
a(I3
g131
tp193
a(I0
g127
tp194
a(I1
g131
tp195
a(I2
g127
tp196
a(I3
g135
tp197
a(I0
g129
tp198
a(I1
g131
tp199
a(I2
g129
tp200
a(I3
g131
tp201
a(I0
g129
tp202
a(I1
g135
tp203
a(I2
g129
tp204
a(I3
g131
tp205
a(I0
g129
tp206
a(I1
g135
tp207
a(I2
g129
tp208
a(I3
g131
tp209
a(I0
g129
tp210
a(I1
g135
tp211
a(I2
g129
tp212
a(I3
g131
tp213
a(I0
g129
tp214
a(I1
g135
tp215
a(I2
g129
tp216
a(I3
g131
tp217
a(I0
g129
tp218
a(I1
g131
tp219
a(I2
g129
tp220
a(I3
g131
tp221
a(I0
g129
tp222
a(I1
g135
tp223
a(I2
g129
tp224
a(I3
g131
tp225
a(I0
g129
tp226
a(I1
g135
tp227
a(I2
g135
tp228
a(I3
g131
tp229
a(I0
g129
tp230
a(I1
g131
tp231
a(I2
g135
tp232
a(I3
g131
tp233
a(I0
g129
tp234
a(I1
g135
tp235
a(I2
g129
tp236
a(I3
g131
tp237
a(I0
g129
tp238
a(I1
g135
tp239
a(I2
g129
tp240
a(I3
g131
tp241
a(I0
g131
tp242
a(I1
g131
tp243
a(I2
g135
tp244
a(I3
g129
tp245
a(I0
g131
tp246
a(I1
g131
tp247
a(I2
g131
tp248
a(I3
g129
tp249
a(I0
g131
tp250
a(I1
g127
tp251
a(I2
g135
tp252
a(I3
g129
tp253
a(I0
g131
tp254
a(I1
g127
tp255
a(I2
g131
tp256
a(I3
g129
tp257
a(I0
g135
tp258
a(I1
g127
tp259
a(I2
g131
tp260
a(I3
g127
tp261
a(I0
g135
tp262
a(I1
g127
tp263
a(I2
g131
tp264
a(I3
g127
tp265
a(I0
g129
tp266
a(I1
g127
tp267
a(I2
g135
tp268
a(I3
g129
tp269
a(I0
g129
tp270
a(I1
g127
tp271
a(I2
g135
tp272
a(I3
g131
tp273
a(I0
g131
tp274
a(I1
g131
tp275
a(I2
g129
tp276
a(I3
g129
tp277
a(I0
g135
tp278
a(I1
g131
tp279
a(I2
g135
tp280
a(I3
g129
tp281
a(I0
g135
tp282
a(I1
g131
tp283
a(I2
g135
tp284
a(I3
g131
tp285
a(I0
g135
tp286
a(I1
g135
tp287
a(I2
g131
tp288
a(I3
g131
tp289
a(I0
g135
tp290
a(I1
g135
tp291
a(I2
g135
tp292
a(I3
g129
tp293
a(I0
g135
tp294
a(I1
g135
tp295
a(I2
g131
tp296
a(I3
g129
tp297
a(I0
g135
tp298
a(I1
g135
tp299
a(I2
g131
tp300
a(I3
g127
tp301
a(I0
g127
tp302
a(I1
g127
tp303
a(I2
g131
tp304
a(I3
g135
tp305
a(I0
g129
tp306
a(I1
g127
tp307
a(I2
g129
tp308
a(I3
g131
tp309
a(I0
g135
tp310
a(I1
g127
tp311
a(I2
g129
tp312
a(I3
g131
tp313
a(I0
g129
tp314
a(I1
g127
tp315
a(I2
g129
tp316
a(I3
g135
tp317
a(I0
g129
tp318
a(I1
g127
tp319
a(I2
g135
tp320
a(I3
g135
tp321
a(I0
g129
tp322
a(I1
g131
tp323
a(I2
g135
tp324
a(I3
g129
tp325
a(I0
g127
tp326
a(I1
g127
tp327
a(I2
g135
tp328
a(I3
g129
tp329
a(I0
g129
tp330
a(I1
g127
tp331
a(I2
g135
tp332
a(I3
g129
tp333
a(I0
g129
tp334
a(I1
g131
tp335
a(I2
g135
tp336
a(I3
g129
tp337
a(I0
g129
tp338
a(I1
g129
tp339
a(I2
g129
tp340
a(I3
g129
tp341
a(I0
g129
tp342
a(I1
g135
tp343
a(I2
g129
tp344
a(I3
g129
tp345
a(I0
g129
tp346
a(I1
g135
tp347
a(I2
g131
tp348
a(I3
g129
tp349
a(I0
g129
tp350
a(I1
g129
tp351
a(I2
g129
tp352
a(I3
g127
tp353
a(I0
g129
tp354
a(I1
g129
tp355
a(I2
g129
tp356
a(I3
g129
tp357
a(I0
g129
tp358
a(I1
g135
tp359
a(I2
g129
tp360
a(I3
g129
tp361
a(I0
g129
tp362
a(I1
g129
tp363
a(I2
g129
tp364
a(I3
g129
tp365
a(I0
g127
tp366
a(I1
g129
tp367
a(I2
g129
tp368
a(I3
g129
tp369
a(I0
g129
tp370
a(I1
g135
tp371
a(I2
g129
tp372
a(I3
g129
tp373
a(I0
g129
tp374
a(I1
g135
tp375
a(I2
g129
tp376
a(I3
g129
tp377
a(I0
g129
tp378
a(I1
g135
tp379
a(I2
g129
tp380
a(I3
g129
tp381
a(I0
g129
tp382
a(I1
g135
tp383
a(I2
g129
tp384
a(I3
g129
tp385
a(I0
g129
tp386
a(I1
g135
tp387
a(I2
g127
tp388
a(I3
g129
tp389
a(I0
g129
tp390
a(I1
g135
tp391
a(I2
g127
tp392
a(I3
g129
tp393
a(I0
g129
tp394
a(I1
g129
tp395
a(I2
g127
tp396
a(I3
g127
tp397
a(I0
g135
tp398
a(I1
g131
tp399
a(I2
g135
tp400
a(I3
g127
tp401
a(I0
g135
tp402
a(I1
g127
tp403
a(I2
g129
tp404
a(I3
g135
tp405
a(I0
g129
tp406
a(I1
g127
tp407
a(I2
g135
tp408
a(I3
g135
tp409
a(I0
g129
tp410
a(I1
g127
tp411
a(I2
g135
tp412
a(I3
g131
tp413
a(I0
g135
tp414
a(I1
g127
tp415
a(I2
g129
tp416
a(I3
g131
tp417
a(I0
g131
tp418
a(I1
g127
tp419
a(I2
g129
tp420
a(I3
g131
tp421
a(I0
g135
tp422
a(I1
g127
tp423
a(I2
g129
tp424
a(I3
g131
tp425
a(I0
g135
tp426
a(I1
g131
tp427
a(I2
g127
tp428
a(I3
g131
tp429
a(I0
g135
tp430
a(I1
g131
tp431
a(I2
g129
tp432
a(I3
g131
tp433
a(I0
g135
tp434
a(I1
g131
tp435
a(I2
g129
tp436
a(I3
g129
tp437
a(I0
g129
tp438
a(I1
g135
tp439
a(I2
g129
tp440
a(I3
g131
tp441
a(I0
g131
tp442
a(I1
g135
tp443
a(I2
g129
tp444
a(I3
g131
tp445
a(I0
g135
tp446
a(I1
g135
tp447
a(I2
g129
tp448
a(I3
g131
tp449
a(I0
g135
tp450
a(I1
g135
tp451
a(I2
g129
tp452
a(I3
g131
tp453
a(I0
g127
tp454
a(I1
g135
tp455
a(I2
g129
tp456
a(I3
g131
tp457
a(I0
g129
tp458
a(I1
g127
tp459
a(I2
g129
tp460
a(I3
g135
tp461
a(I0
g135
tp462
a(I1
g127
tp463
a(I2
g129
tp464
a(I3
g131
tp465
a(I0
g129
tp466
a(I1
g127
tp467
a(I2
g127
tp468
a(I3
g131
tp469
a(I0
g129
tp470
a(I1
g127
tp471
a(I2
g129
tp472
a(I3
g131
tp473
a(I0
g129
tp474
a(I1
g127
tp475
a(I2
g131
tp476
a(I3
g131
tp477
a(I0
g127
tp478
a(I1
g127
tp479
a(I2
g135
tp480
a(I3
g131
tp481
a(I0
g129
tp482
a(I1
g131
tp483
a(I2
g135
tp484
a(I3
g131
tp485
a(I0
g129
tp486
a(I1
g127
tp487
a(I2
g135
tp488
a(I3
g131
tp489
a(I0
g129
tp490
a(I1
g127
tp491
a(I2
g129
tp492
a(I3
g127
tp493
a(I0
g129
tp494
a(I1
g131
tp495
a(I2
g129
tp496
a(I3
g127
tp497
a(I0
g129
tp498
a(I1
g131
tp499
a(I2
g135
tp500
a(I3
g131
tp501
a(I0
g129
tp502
a(I1
g131
tp503
a(I2
g129
tp504
a(I3
g127
tp505
a(I0
g129
tp506
a(I1
g131
tp507
a(I2
g135
tp508
a(I3
g127
tp509
a(I0
g129
tp510
a(I1
g129
tp511
a(I2
g135
tp512
a(I3
g135
tp513
a(I0
g129
tp514
a(I1
g131
tp515
a(I2
g135
tp516
a(I3
g135
tp517
a(I0
g127
tp518
a(I1
g129
tp519
a(I2
g135
tp520
a(I3
g131
tp521
a(I0
g129
tp522
a(I1
g129
tp523
a(I2
g135
tp524
a(I3
g127
tp525
a(I0
g131
tp526
a(I1
g129
tp527
a(I2
g129
tp528
a(I3
g131
tp529
a(I0
g129
tp530
a(I1
g129
tp531
a(I2
g129
tp532
a(I3
g131
tp533
a(I0
g131
tp534
a(I1
g131
tp535
a(I2
g129
tp536
a(I3
g135
tp537
a(I0
g129
tp538
a(I1
g129
tp539
a(I2
g127
tp540
a(I3
g127
tp541
a(I0
g131
tp542
a(I1
g131
tp543
a(I2
g127
tp544
a(I3
g127
tp545
a(I0
g129
tp546
a(I1
g129
tp547
a(I2
g127
tp548
a(I3
g127
tp549
a(I0
g131
tp550
a(I1
g131
tp551
a(I2
g135
tp552
a(I3
g127
tp553
a(I0
g129
tp554
a(I1
g129
tp555
a(I2
g135
tp556
a(I3
g127
tp557
a(I0
g131
tp558
a(I1
g131
tp559
a(I2
g131
tp560
a(I3
g127
tp561
a(I0
g129
tp562
a(I1
g131
tp563
a(I2
g135
tp564
a(I3
g127
tp565
a(I0
g129
tp566
a(I1
g131
tp567
a(I2
g131
tp568
a(I3
g135
tp569
a(I0
g129
tp570
a(I1
g131
tp571
a(I2
g131
tp572
a(I3
g135
tp573
a(I0
g129
tp574
a(I1
g131
tp575
a(I2
g131
tp576
a(I3
g135
tp577
a(I0
g135
tp578
a(I1
g131
tp579
a(I2
g129
tp580
a(I3
g135
tp581
a(I0
g129
tp582
a(I1
g131
tp583
a(I2
g129
tp584
a(I3
g129
tp585
a(I0
g129
tp586
a(I1
g135
tp587
a(I2
g129
tp588
a(I3
g129
tp589
a(I0
g129
tp590
a(I1
g131
tp591
a(I2
g129
tp592
a(I3
g129
tp593
a(I0
g127
tp594
a(I1
g131
tp595
a(I2
g127
tp596
a(I3
g135
tp597
a(I0
g129
tp598
a(I1
g127
tp599
a(I2
g127
tp600
a(I3
g135
tp601
a(I0
g129
tp602
a(I1
g135
tp603
a(I2
g127
tp604
a(I3
g135
tp605
a(I0
g129
tp606
a(I1
g131
tp607
a(I2
g131
tp608
a(I3
g129
tp609
a(I0
g129
tp610
a(I1
g129
tp611
a(I2
g127
tp612
a(I3
g135
tp613
a(I0
g129
tp614
a(I1
g129
tp615
a(I2
g127
tp616
a(I3
g135
tp617
a(I0
g129
tp618
a(I1
g129
tp619
a(I2
g129
tp620
a(I3
g129
tp621
a(I0
g129
tp622
a(I1
g135
tp623
a(I2
g129
tp624
a(I3
g129
tp625
a(I0
g129
tp626
a(I1
g135
tp627
a(I2
g129
tp628
a(I3
g129
tp629
a(I0
g129
tp630
a(I1
g135
tp631
a(I2
g135
tp632
a(I3
g129
tp633
a(I0
g127
tp634
a(I1
g135
tp635
a(I2
g135
tp636
a(I3
g129
tp637
a(I0
g129
tp638
a(I1
g135
tp639
a(I2
g135
tp640
a(I3
g131
tp641
a(I0
g129
tp642
a(I1
g131
tp643
a(I2
g129
tp644
a(I3
g131
tp645
a(I0
g129
tp646
a(I1
g135
tp647
a(I2
g131
tp648
a(I3
g131
tp649
a(I0
g129
tp650
a(I1
g127
tp651
a(I2
g129
tp652
a(I3
g131
tp653
a(I0
g129
tp654
a(I1
g129
tp655
a(I2
g131
tp656
a(I3
g131
tp657
a(I0
g129
tp658
a(I1
g127
tp659
a(I2
g129
tp660
a(I3
g127
tp661
a(I0
g129
tp662
a(I1
g127
tp663
a(I2
g131
tp664
a(I3
g127
tp665
a(I0
g135
tp666
a(I1
g127
tp667
a(I2
g129
tp668
a(I3
g131
tp669
a(I0
g135
tp670
a(I1
g127
tp671
a(I2
g131
tp672
a(I3
g127
tp673
a(I0
g129
tp674
a(I1
g127
tp675
a(I2
g129
tp676
a(I3
g127
tp677
a(I0
g129
tp678
a(I1
g131
tp679
a(I2
g131
tp680
a(I3
g127
tp681
a(I0
g135
tp682
a(I1
g131
tp683
a(I2
g129
tp684
a(I3
g127
tp685
a(I0
g129
tp686
a(I1
g131
tp687
a(I2
g131
tp688
a(I3
g127
tp689
a(I0
g129
tp690
a(I1
g131
tp691
a(I2
g129
tp692
a(I3
g131
tp693
a(I0
g127
tp694
a(I1
g131
tp695
a(I2
g131
tp696
a(I3
g129
tp697
a(I0
g135
tp698
a(I1
g129
tp699
a(I2
g129
tp700
a(I3
g127
tp701
a(I0
g131
tp702
a(I1
g127
tp703
a(I2
g131
tp704
a(I3
g127
tp705
a(I0
g131
tp706
a(I1
g135
tp707
a(I2
g135
tp708
a(I3
g131
tp709
a(I0
g131
tp710
a(I1
g131
tp711
a(I2
g135
tp712
a(I3
g129
tp713
a(I0
g129
tp714
a(I1
g131
tp715
a(I2
g129
tp716
a(I3
g135
tp717
a(I0
g129
tp718
a(I1
g131
tp719
a(I2
g131
tp720
a(I3
g135
tp721
a(I0
g129
tp722
a(I1
g131
tp723
a(I2
g127
tp724
a(I3
g135
tp725
a(I0
g131
tp726
a(I1
g131
tp727
a(I2
g127
tp728
a(I3
g135
tp729
a(I0
g131
tp730
a(I1
g131
tp731
a(I2
g127
tp732
a(I3
g131
tp733
a(I0
g131
tp734
a(I1
g135
tp735
a(I2
g127
tp736
a(I3
g131
tp737
a(I0
g129
tp738
a(I1
g135
tp739
a(I2
g127
tp740
a(I3
g131
tp741
a(I0
g131
tp742
a(I1
g135
tp743
a(I2
g127
tp744
a(I3
g127
tp745
a(I0
g127
tp746
a(I1
g129
tp747
a(I2
g127
tp748
a(I3
g127
tp749
a(I0
g131
tp750
a(I1
g131
tp751
a(I2
g131
tp752
a(I3
g127
tp753
a(I0
g127
tp754
a(I1
g127
tp755
a(I2
g127
tp756
a(I3
g127
tp757
a(I0
g127
tp758
a(I1
g127
tp759
a(I2
g127
tp760
a(I3
g131
tp761
a(I0
g131
tp762
a(I1
g131
tp763
a(I2
g131
tp764
a(I3
g131
tp765
a(I0
g131
tp766
a(I1
g131
tp767
a(I2
g131
tp768
a(I3
g135
tp769
a(I0
g131
tp770
a(I1
g131
tp771
a(I2
g131
tp772
a(I3
g135
tp773
a(I0
g131
tp774
a(I1
g135
tp775
a(I2
g131
tp776
a(I3
g131
tp777
a(I0
g131
tp778
a(I1
g135
tp779
a(I2
g131
tp780
a(I3
g131
tp781
a(I0
g129
tp782
a(I1
g135
tp783
a(I2
g129
tp784
a(I3
g129
tp785
a(I0
g129
tp786
a(I1
g129
tp787
a(I2
g129
tp788
a(I3
g131
tp789
a(I0
g129
tp790
a(I1
g135
tp791
a(I2
g129
tp792
a(I3
g129
tp793
a(I0
g129
tp794
a(I1
g135
tp795
a(I2
g129
tp796
a(I3
g131
tp797
a(I0
g129
tp798
a(I1
g131
tp799
a(I2
g129
tp800
a(I3
g129
tp801
a(I0
g135
tp802
a(I1
g135
tp803
a(I2
g135
tp804
a(I3
g129
tp805
a(I0
g135
tp806
a(I1
g135
tp807
a(I2
g135
tp808
a(I3
g127
tp809
a(I0
g129
tp810
a(I1
g135
tp811
a(I2
g129
tp812
a(I3
g131
tp813
a(I0
g129
tp814
a(I1
g135
tp815
a(I2
g129
tp816
a(I3
g131
tp817
a(I0
g135
tp818
a(I1
g135
tp819
a(I2
g135
tp820
a(I3
g127
tp821
a(I0
g129
tp822
a(I1
g129
tp823
a(I2
g129
tp824
a(I3
g135
tp825
a(I0
g129
tp826
a(I1
g135
tp827
a(I2
g129
tp828
a(I3
g129
tp829
a(I0
g135
tp830
a(I1
g135
tp831
a(I2
g135
tp832
a(I3
g135
tp833
a(I0
g135
tp834
a(I1
g135
tp835
a(I2
g135
tp836
a(I3
g135
tp837
a(I0
g131
tp838
a(I1
g131
tp839
a(I2
g135
tp840
a(I3
g135
tp841
a(I0
g129
tp842
a(I1
g127
tp843
a(I2
g135
tp844
a(I3
g129
tp845
a(I0
g135
tp846
a(I1
g129
tp847
a(I2
g135
tp848
a(I3
g135
tp849
a(I0
g135
tp850
a(I1
g135
tp851
a(I2
g135
tp852
a(I3
g135
tp853
a(I0
g135
tp854
a(I1
g129
tp855
a(I2
g129
tp856
a(I3
g135
tp857
a(I0
g135
tp858
a(I1
g129
tp859
a(I2
g129
tp860
a(I3
g135
tp861
a(I0
g129
tp862
a(I1
g131
tp863
a(I2
g127
tp864
a(I3
g135
tp865
a(I0
g129
tp866
a(I1
g131
tp867
a(I2
g129
tp868
a(I3
g127
tp869
a(I0
g127
tp870
a(I1
g131
tp871
a(I2
g127
tp872
a(I3
g127
tp873
a(I0
g129
tp874
a(I1
g127
tp875
a(I2
g127
tp876
a(I3
g127
tp877
a(I0
g127
tp878
a(I1
g127
tp879
a(I2
g127
tp880
a(I3
g127
tp881
a(I0
g129
tp882
a(I1
g127
tp883
a(I2
g131
tp884
a(I3
g127
tp885
a(I0
g135
tp886
a(I1
g127
tp887
a(I2
g127
tp888
a(I3
g131
tp889
a(I0
g135
tp890
a(I1
g127
tp891
a(I2
g127
tp892
a(I3
g127
tp893
a(I0
g127
tp894
a(I1
g127
tp895
a(I2
g135
tp896
a(I3
g127
tp897
a(I0
g131
tp898
a(I1
g127
tp899
a(I2
g127
tp900
a(I3
g129
tp901
a(I0
g127
tp902
a(I1
g127
tp903
a(I2
g127
tp904
a(I3
g127
tp905
a(I0
g127
tp906
a(I1
g129
tp907
a(I2
g129
tp908
a(I3
g127
tp909
a(I0
g127
tp910
a(I1
g127
tp911
a(I2
g131
tp912
a(I3
g129
tp913
a(I0
g129
tp914
a(I1
g127
tp915
a(I2
g129
tp916
a(I3
g129
tp917
a(I0
g131
tp918
a(I1
g131
tp919
a(I2
g131
tp920
a(I3
g135
tp921
a(I0
g129
tp922
a(I1
g127
tp923
a(I2
g127
tp924
a(I3
g135
tp925
a(I0
g131
tp926
a(I1
g127
tp927
a(I2
g127
tp928
a(I3
g135
tp929
a(I0
g135
tp930
a(I1
g127
tp931
a(I2
g135
tp932
a(I3
g135
tp933
a(I0
g135
tp934
a(I1
g129
tp935
a(I2
g135
tp936
a(I3
g135
tp937
a(I0
g131
tp938
a(I1
g129
tp939
a(I2
g129
tp940
a(I3
g135
tp941
a(I0
g135
tp942
a(I1
g129
tp943
a(I2
g131
tp944
a(I3
g129
tp945
a(I0
g135
tp946
a(I1
g127
tp947
a(I2
g135
tp948
a(I3
g129
tp949
a(I0
g131
tp950
a(I1
g129
tp951
a(I2
g135
tp952
a(I3
g135
tp953
a(I0
g131
tp954
a(I1
g129
tp955
a(I2
g135
tp956
a(I3
g129
tp957
a(I0
g127
tp958
a(I1
g129
tp959
a(I2
g129
tp960
a(I3
g129
tp961
a(I0
g127
tp962
a(I1
g129
tp963
a(I2
g135
tp964
a(I3
g135
tp965
a(I0
g127
tp966
a(I1
g129
tp967
a(I2
g135
tp968
a(I3
g135
tp969
a(I0
g127
tp970
a(I1
g129
tp971
a(I2
g131
tp972
a(I3
g129
tp973
a(I0
g131
tp974
a(I1
g129
tp975
a(I2
g135
tp976
a(I3
g129
tp977
a(I0
g131
tp978
a(I1
g129
tp979
a(I2
g135
tp980
a(I3
g129
tp981
a(I0
g131
tp982
a(I1
g129
tp983
a(I2
g131
tp984
a(I3
g129
tp985
a(I0
g127
tp986
a(I1
g129
tp987
a(I2
g131
tp988
a(I3
g129
tp989
a(I0
g131
tp990
a(I1
g127
tp991
a(I2
g127
tp992
a(I3
g129
tp993
a(I0
g129
tp994
a(I1
g129
tp995
a(I2
g127
tp996
a(I3
g129
tp997
a(I0
g127
tp998
a(I1
g129
tp999
a(I2
g127
tp1000
a(I3
g127
tp1001
a(I0
g127
tp1002
a(I1
g129
tp1003
asS'length'
p1004
I1200
sS'agents'
p1005
(lp1006
(igame
Agent
p1007
(dp1008
S'index'
p1009
I0
sba(igame
Agent
p1010
(dp1011
g1009
I0
sba(igame
Agent
p1012
(dp1013
g1009
I0
sba(igame
Agent
p1014
(dp1015
g1009
I0
sbasS'redTeamName'
p1016
S'Red'
p1017
s.