(dp1
S'layout'
p2
(ilayout
Layout
p3
(dp4
S'capsules'
p5
(lp6
(I19
I3
tp7
a(I14
I14
tp8
asS'numGhosts'
p9
I4
sS'food'
p10
(igame
Grid
p11
(dp12
S'CELLS_PER_INT'
p13
I30
sS'width'
p14
I34
sS'data'
p15
(lp16
(lp17
I00
aI00
aI00
aI00
aI00
aI00
aI00
aI00
aI00
aI00
aI00
aI00
aI00
aI00
aI00
aI00
aI00
aI00
aa(lp18
I00
aI00
aI00
aI00
aI00
aI00
aI00
aI00
aI01
aI01
aI00
aI00
aI00
aI00
aI01
aI00
aI01
aI00
aa(lp19
I00
aI00
aI00
aI00
aI00
aI00
aI00
aI00
aI00
aI00
aI00
aI00
aI00
aI00
aI01
aI00
aI01
aI00
aa(lp20
I00
aI00
aI00
aI00
aI00
aI00
aI00
aI00
aI00
aI01
aI00
aI00
aI01
aI00
aI00
aI00
aI00
aI00
aa(lp21
I00
aI00
aI00
aI00
aI00
aI00
aI01
aI00
aI00
aI00
aI00
aI00
aI00
aI00
aI01
aI00
aI00
aI00
aa(lp22
I00
aI00
aI00
aI00
aI00
aI00
aI00
aI00
aI00
aI01
aI00
aI01
aI00
aI00
aI00
aI00
aI00
aI00
aa(lp23
I00
aI00
aI00
aI00
aI00
aI00
aI01
aI00
aI00
aI00
aI00
aI01
aI01
aI00
aI00
aI00
aI00
aI00
aa(lp24
I00
aI00
aI00
aI00
aI00
aI00
aI00
aI00
aI00
aI00
aI00
aI00
aI00
aI00
aI00
aI00
aI00
aI00
aa(lp25
I00
aI00
aI00
aI00
aI00
aI00
aI01
aI00
aI01
aI01
aI00
aI00
aI01
aI00
aI00
aI00
aI00
aI00
aa(lp26
I00
aI00
aI00
aI00
aI00
aI01
aI00
aI00
aI00
aI00
aI00
aI00
aI00
aI00
aI00
aI00
aI00
aI00
aa(lp27
I00
aI00
aI01
aI00
aI00
aI00
aI00
aI00
aI00
aI00
aI00
aI00
aI01
aI00
aI00
aI00
aI00
aI00
aa(lp28
I00
aI00
aI00
aI00
aI00
aI00
aI00
aI00
aI00
aI00
aI00
aI00
aI00
aI00
aI00
aI00
aI01
aI00
aa(lp29
I00
aI00
aI00
aI01
aI00
aI00
aI00
aI00
aI01
aI00
aI00
aI00
aI00
aI00
aI00
aI00
aI00
aI00
aa(lp30
I00
aI00
aI00
aI00
aI00
aI00
aI00
aI00
aI00
aI00
aI00
aI00
aI01
aI00
aI00
aI00
aI00
aI00
aa(lp31
I00
aI00
aI00
aI01
aI01
aI00
aI00
aI00
aI00
aI00
aI00
aI00
aI00
aI00
aI00
aI00
aI00
aI00
aa(lp32
I00
aI00
aI00
aI00
aI00
aI00
aI00
aI00
aI00
aI00
aI00
aI00
aI00
aI00
aI00
aI00
aI00
aI00
aa(lp33
I00
aI00
aI00
aI00
aI00
aI01
aI00
aI00
aI00
aI00
aI01
aI00
aI00
aI00
aI00
aI00
aI00
aI00
aa(lp34
I00
aI00
aI00
aI00
aI00
aI00
aI00
aI01
aI00
aI00
aI00
aI00
aI01
aI00
aI00
aI00
aI00
aI00
aa(lp35
I00
aI00
aI00
aI00
aI00
aI00
aI00
aI00
aI00
aI00
aI00
aI00
aI00
aI00
aI00
aI00
aI00
aI00
aa(lp36
I00
aI00
aI00
aI00
aI00
aI00
aI00
aI00
aI00
aI00
aI00
aI00
aI00
aI01
aI01
aI00
aI00
aI00
aa(lp37
I00
aI00
aI00
aI00
aI00
aI01
aI00
aI00
aI00
aI00
aI00
aI00
aI00
aI00
aI00
aI00
aI00
aI00
aa(lp38
I00
aI00
aI00
aI00
aI00
aI00
aI00
aI00
aI00
aI01
aI00
aI00
aI00
aI00
aI01
aI00
aI00
aI00
aa(lp39
I00
aI01
aI00
aI00
aI00
aI00
aI00
aI00
aI00
aI00
aI00
aI00
aI00
aI00
aI00
aI00
aI00
aI00
aa(lp40
I00
aI00
aI00
aI00
aI00
aI01
aI00
aI00
aI00
aI00
aI00
aI00
aI00
aI00
aI00
aI01
aI00
aI00
aa(lp41
I00
aI00
aI00
aI00
aI00
aI00
aI00
aI00
aI00
aI00
aI00
aI00
aI01
aI00
aI00
aI00
aI00
aI00
aa(lp42
I00
aI00
aI00
aI00
aI00
aI01
aI00
aI00
aI01
aI01
aI00
aI01
aI00
aI00
aI00
aI00
aI00
aI00
aa(lp43
I00
aI00
aI00
aI00
aI00
aI00
aI00
aI00
aI00
aI00
aI00
aI00
aI00
aI00
aI00
aI00
aI00
aI00
aa(lp44
I00
aI00
aI00
aI00
aI00
aI01
aI01
aI00
aI00
aI00
aI00
aI01
aI00
aI00
aI00
aI00
aI00
aI00
aa(lp45
I00
aI00
aI00
aI00
aI00
aI00
aI01
aI00
aI01
aI00
aI00
aI00
aI00
aI00
aI00
aI00
aI00
aI00
aa(lp46
I00
aI00
aI00
aI01
aI00
aI00
aI00
aI00
aI00
aI00
aI00
aI01
aI00
aI00
aI00
aI00
aI00
aI00
aa(lp47
I00
aI00
aI00
aI00
aI00
aI01
aI00
aI00
aI01
aI00
aI00
aI00
aI00
aI00
aI00
aI00
aI00
aI00
aa(lp48
I00
aI01
aI00
aI01
aI00
aI00
aI00
aI00
aI00
aI00
aI00
aI00
aI00
aI00
aI00
aI00
aI00
aI00
aa(lp49
I00
aI01
aI00
aI01
aI00
aI00
aI00
aI00
aI01
aI01
aI00
aI00
aI00
aI00
aI00
aI00
aI00
aI00
aa(lp50
I00
aI00
aI00
aI00
aI00
aI00
aI00
aI00
aI00
aI00
aI00
aI00
aI00
aI00
aI00
aI00
aI00
aI00
aasS'height'
p51
I18
sbsS'agentPositions'
p52
(lp53
(I00
(I1
I2
tp54
tp55
a(I00
(I32
I15
tp56
tp57
a(I00
(I1
I1
tp58
tp59
a(I00
(I32
I16
tp60
tp61
asg51
I18
sg14
I34
sS'walls'
p62
(igame
Grid
p63
(dp64
g13
I30
sg14
I34
sg15
(lp65
(lp66
I01
aI01
aI01
aI01
aI01
aI01
aI01
aI01
aI01
aI01
aI01
aI01
aI01
aI01
aI01
aI01
aI01
aI01
aa(lp67
I01
aI00
aI00
aI00
aI00
aI00
aI00
aI00
aI00
aI00
aI01
aI00
aI00
aI01
aI00
aI01
aI00
aI01
aa(lp68
I01
aI01
aI01
aI01
aI01
aI01
aI00
aI01
aI01
aI01
aI01
aI00
aI00
aI01
aI00
aI01
aI00
aI01
aa(lp69
I01
aI00
aI00
aI00
aI00
aI00
aI00
aI01
aI00
aI00
aI01
aI00
aI00
aI01
aI00
aI01
aI00
aI01
aa(lp70
I01
aI01
aI01
aI01
aI00
aI01
aI00
aI00
aI00
aI00
aI00
aI00
aI00
aI01
aI00
aI00
aI00
aI01
aa(lp71
I01
aI00
aI00
aI01
aI00
aI00
aI00
aI01
aI00
aI00
aI01
aI00
aI00
aI01
aI00
aI01
aI00
aI01
aa(lp72
I01
aI00
aI00
aI00
aI00
aI01
aI00
aI01
aI00
aI00
aI01
aI00
aI00
aI00
aI00
aI01
aI00
aI01
aa(lp73
I01
aI01
aI00
aI01
aI01
aI01
aI01
aI01
aI01
aI01
aI01
aI01
aI01
aI01
aI00
aI01
aI00
aI01
aa(lp74
I01
aI00
aI00
aI00
aI00
aI00
aI00
aI01
aI00
aI00
aI00
aI00
aI00
aI01
aI00
aI01
aI00
aI01
aa(lp75
I01
aI00
aI01
aI01
aI01
aI00
aI01
aI01
aI01
aI01
aI01
aI00
aI01
aI01
aI00
aI01
aI00
aI01
aa(lp76
I01
aI00
aI00
aI00
aI00
aI00
aI00
aI00
aI00
aI00
aI00
aI00
aI00
aI01
aI00
aI01
aI00
aI01
aa(lp77
I01
aI00
aI01
aI01
aI01
aI00
aI01
aI01
aI01
aI01
aI01
aI01
aI01
aI01
aI00
aI01
aI00
aI01
aa(lp78
I01
aI00
aI01
aI00
aI00
aI00
aI00
aI00
aI00
aI00
aI00
aI00
aI00
aI00
aI00
aI01
aI00
aI01
aa(lp79
I01
aI00
aI01
aI01
aI00
aI01
aI01
aI01
aI01
aI00
aI01
aI01
aI00
aI00
aI00
aI01
aI00
aI01
aa(lp80
I01
aI00
aI01
aI00
aI00
aI00
aI00
aI00
aI00
aI00
aI00
aI00
aI00
aI01
aI00
aI00
aI00
aI01
aa(lp81
I01
aI00
aI01
aI01
aI01
aI01
aI00
aI00
aI01
aI01
aI00
aI01
aI00
aI01
aI01
aI01
aI00
aI01
aa(lp82
I01
aI00
aI00
aI00
aI00
aI00
aI00
aI00
aI00
aI00
aI00
aI00
aI00
aI00
aI00
aI00
aI00
aI01
aa(lp83
I01
aI00
aI00
aI00
aI00
aI00
aI00
aI00
aI00
aI00
aI00
aI00
aI00
aI00
aI00
aI00
aI00
aI01
aa(lp84
I01
aI00
aI01
aI01
aI01
aI00
aI01
aI00
aI01
aI01
aI00
aI00
aI01
aI01
aI01
aI01
aI00
aI01
aa(lp85
I01
aI00
aI00
aI00
aI01
aI00
aI00
aI00
aI00
aI00
aI00
aI00
aI00
aI00
aI00
aI01
aI00
aI01
aa(lp86
I01
aI00
aI01
aI00
aI00
aI00
aI01
aI01
aI00
aI01
aI01
aI01
aI01
aI00
aI01
aI01
aI00
aI01
aa(lp87
I01
aI00
aI01
aI00
aI00
aI00
aI00
aI00
aI00
aI00
aI00
aI00
aI00
aI00
aI00
aI01
aI00
aI01
aa(lp88
I01
aI00
aI01
aI00
aI01
aI01
aI01
aI01
aI01
aI01
aI01
aI01
aI00
aI01
aI01
aI01
aI00
aI01
aa(lp89
I01
aI00
aI01
aI00
aI01
aI00
aI00
aI00
aI00
aI00
aI00
aI00
aI00
aI00
aI00
aI00
aI00
aI01
aa(lp90
I01
aI00
aI01
aI00
aI01
aI01
aI00
aI01
aI01
aI01
aI01
aI01
aI00
aI01
aI01
aI01
aI00
aI01
aa(lp91
I01
aI00
aI01
aI00
aI01
aI00
aI00
aI00
aI00
aI00
aI01
aI00
aI00
aI00
aI00
aI00
aI00
aI01
aa(lp92
I01
aI00
aI01
aI00
aI01
aI01
aI01
aI01
aI01
aI01
aI01
aI01
aI01
aI01
aI01
aI00
aI01
aI01
aa(lp93
I01
aI00
aI01
aI00
aI00
aI00
aI00
aI01
aI00
aI00
aI01
aI00
aI01
aI00
aI00
aI00
aI00
aI01
aa(lp94
I01
aI00
aI01
aI00
aI01
aI00
aI00
aI01
aI00
aI00
aI01
aI00
aI00
aI00
aI01
aI00
aI00
aI01
aa(lp95
I01
aI00
aI00
aI00
aI01
aI00
aI00
aI00
aI00
aI00
aI00
aI00
aI01
aI00
aI01
aI01
aI01
aI01
aa(lp96
I01
aI00
aI01
aI00
aI01
aI00
aI00
aI01
aI00
aI00
aI01
aI00
aI00
aI00
aI00
aI00
aI00
aI01
aa(lp97
I01
aI00
aI01
aI00
aI01
aI00
aI00
aI01
aI01
aI01
aI01
aI00
aI01
aI01
aI01
aI01
aI01
aI01
aa(lp98
I01
aI00
aI01
aI00
aI01
aI00
aI00
aI01
aI00
aI00
aI00
aI00
aI00
aI00
aI00
aI00
aI00
aI01
aa(lp99
I01
aI01
aI01
aI01
aI01
aI01
aI01
aI01
aI01
aI01
aI01
aI01
aI01
aI01
aI01
aI01
aI01
aI01
aasg51
I18
sbsS'totalFood'
p100
I60
sS'layoutText'
p101
(lp102
S'%%%%%%%%%%%%%%%%%%%%%%%%%%%%%%%%%%'
p103
aS'%..        .              %  % %4%'
p104
aS'%%%% %%%%%%%%% %  %%%%%.%    % %2%'
p105
aS'%.. .         o%  %.%.% % % %% % %'
p106
aS'%%%%%% %%%%%  %%  %.  % % %    % %'
p107
aS'%  .  .%.%.% .   .% %   . %% % % %'
p108
aS'%    ..%   % % %    % % %.%. .   %'
p109
aS'%%%% %%% % % %  .   % % %%%%% %% %'
p110
aS'%.%. . %.% %   %  % %.% %.%    %.%'
p111
aS'%.%    %.% %.% %  %   % %.% . .%.%'
p112
aS'% %% %%%%% % %   .  % % % %%% %%%%'
p113
aS'%   . .%.% % %    % % %   %..    %'
p114
aS'% % % %% .   % %.   . %.%.%.  .  %'
p115
aS'% %    % % %  .%  %%  %%%%% %%%%%%'
p116
aS'% % %% % % %.%.%  %o         . ..%'
p117
aS'%1% %    %.%%%%%  % %%%%%%%%% %%%%'
p118
aS'%3% %  %              .        ..%'
p119
aS'%%%%%%%%%%%%%%%%%%%%%%%%%%%%%%%%%%'
p120
asbsS'blueTeamName'
p121
S'Blue'
p122
sS'actions'
p123
(lp124
(I0
S'North'
p125
tp126
a(I1
S'South'
p127
tp128
a(I2
g125
tp129
a(I3
g127
tp130
a(I0
g125
tp131
a(I1
g127
tp132
a(I2
g125
tp133
a(I3
g127
tp134
a(I0
g125
tp135
a(I1
g127
tp136
a(I2
g125
tp137
a(I3
g127
tp138
a(I0
g125
tp139
a(I1
g127
tp140
a(I2
g125
tp141
a(I3
g127
tp142
a(I0
S'East'
p143
tp144
a(I1
S'West'
p145
tp146
a(I2
g125
tp147
a(I3
g127
tp148
a(I0
g143
tp149
a(I1
g145
tp150
a(I2
g143
tp151
a(I3
g145
tp152
a(I0
g143
tp153
a(I1
g125
tp154
a(I2
g143
tp155
a(I3
g145
tp156
a(I0
g143
tp157
a(I1
g125
tp158
a(I2
g143
tp159
a(I3
g125
tp160
a(I0
g127
tp161
a(I1
g145
tp162
a(I2
g143
tp163
a(I3
g125
tp164
a(I0
g127
tp165
a(I1
g145
tp166
a(I2
g127
tp167
a(I3
g145
tp168
a(I0
g143
tp169
a(I1
g145
tp170
a(I2
g127
tp171
a(I3
g145
tp172
a(I0
g127
tp173
a(I1
g125
tp174
a(I2
g143
tp175
a(I3
g145
tp176
a(I0
g127
tp177
a(I1
g125
tp178
a(I2
g127
tp179
a(I3
g125
tp180
a(I0
g143
tp181
a(I1
g145
tp182
a(I2
g127
tp183
a(I3
g125
tp184
a(I0
g143
tp185
a(I1
g145
tp186
a(I2
g143
tp187
a(I3
g145
tp188
a(I0
g127
tp189
a(I1
g125
tp190
a(I2
g143
tp191
a(I3
g145
tp192
a(I0
g143
tp193
a(I1
g145
tp194
a(I2
g127
tp195
a(I3
g125
tp196
a(I0
g143
tp197
a(I1
g145
tp198
a(I2
g143
tp199
a(I3
g145
tp200
a(I0
g143
tp201
a(I1
g145
tp202
a(I2
g143
tp203
a(I3
g145
tp204
a(I0
g143
tp205
a(I1
g145
tp206
a(I2
g143
tp207
a(I3
g145
tp208
a(I0
g143
tp209
a(I1
g145
tp210
a(I2
g143
tp211
a(I3
g145
tp212
a(I0
g143
tp213
a(I1
g145
tp214
a(I2
g143
tp215
a(I3
g145
tp216
a(I0
g143
tp217
a(I1
g145
tp218
a(I2
g143
tp219
a(I3
g145
tp220
a(I0
g143
tp221
a(I1
g145
tp222
a(I2
g143
tp223
a(I3
g145
tp224
a(I0
g143
tp225
a(I1
g145
tp226
a(I2
g143
tp227
a(I3
g143
tp228
a(I0
g143
tp229
a(I1
g145
tp230
a(I2
g143
tp231
a(I3
g143
tp232
a(I0
g143
tp233
a(I1
g145
tp234
a(I2
g145
tp235
a(I3
g143
tp236
a(I0
g125
tp237
a(I1
g145
tp238
a(I2
g143
tp239
a(I3
g143
tp240
a(I0
g125
tp241
a(I1
g145
tp242
a(I2
g125
tp243
a(I3
g143
tp244
a(I0
g143
tp245
a(I1
g145
tp246
a(I2
g125
tp247
a(I3
g127
tp248
a(I0
g125
tp249
a(I1
g143
tp250
a(I2
g145
tp251
a(I3
g127
tp252
a(I0
g125
tp253
a(I1
g143
tp254
a(I2
g127
tp255
a(I3
g127
tp256
a(I0
g145
tp257
a(I1
g143
tp258
a(I2
g127
tp259
a(I3
g127
tp260
a(I0
g145
tp261
a(I1
g127
tp262
a(I2
g145
tp263
a(I3
g127
tp264
a(I0
g145
tp265
a(I1
g127
tp266
a(I2
g143
tp267
a(I3
g127
tp268
a(I0
g125
tp269
a(I1
g145
tp270
a(I2
g143
tp271
a(I3
g127
tp272
a(I0
g125
tp273
a(I1
g127
tp274
a(I2
g143
tp275
a(I3
g127
tp276
a(I0
g145
tp277
a(I1
g127
tp278
a(I2
g143
tp279
a(I3
g127
tp280
a(I0
g143
tp281
a(I1
g143
tp282
a(I2
g143
tp283
a(I3
g127
tp284
a(I0
g125
tp285
a(I1
g143
tp286
a(I2
g143
tp287
a(I3
g143
tp288
a(I0
g125
tp289
a(I1
g143
tp290
a(I2
g143
tp291
a(I3
g145
tp292
a(I0
g125
tp293
a(I1
g143
tp294
a(I2
g143
tp295
a(I3
g125
tp296
a(I0
g125
tp297
a(I1
g145
tp298
a(I2
g143
tp299
a(I3
g125
tp300
a(I0
g125
tp301
a(I1
g127
tp302
a(I2
g143
tp303
a(I3
g125
tp304
a(I0
g145
tp305
a(I1
g125
tp306
a(I2
g143
tp307
a(I3
g127
tp308
a(I0
g125
tp309
a(I1
g127
tp310
a(I2
g143
tp311
a(I3
g127
tp312
a(I0
g125
tp313
a(I1
g127
tp314
a(I2
g143
tp315
a(I3
g127
tp316
a(I0
g125
tp317
a(I1
g143
tp318
a(I2
g143
tp319
a(I3
g143
tp320
a(I0
g125
tp321
a(I1
g145
tp322
a(I2
g125
tp323
a(I3
g143
tp324
a(I0
g143
tp325
a(I1
g127
tp326
a(I2
g125
tp327
a(I3
g125
tp328
a(I0
g143
tp329
a(I1
g127
tp330
a(I2
g145
tp331
a(I3
g125
tp332
a(I0
g143
tp333
a(I1
g127
tp334
a(I2
g145
tp335
a(I3
g125
tp336
a(I0
g143
tp337
a(I1
g127
tp338
a(I2
g125
tp339
a(I3
g127
tp340
a(I0
g127
tp341
a(I1
g127
tp342
a(I2
g125
tp343
a(I3
g127
tp344
a(I0
g127
tp345
a(I1
g143
tp346
a(I2
g125
tp347
a(I3
g127
tp348
a(I0
g143
tp349
a(I1
g125
tp350
a(I2
g143
tp351
a(I3
g145
tp352
a(I0
g127
tp353
a(I1
g145
tp354
a(I2
g143
tp355
a(I3
g145
tp356
a(I0
g127
tp357
a(I1
g145
tp358
a(I2
g125
tp359
a(I3
g143
tp360
a(I0
g143
tp361
a(I1
g145
tp362
a(I2
g125
tp363
a(I3
g143
tp364
a(I0
g143
tp365
a(I1
g127
tp366
a(I2
g143
tp367
a(I3
g125
tp368
a(I0
g127
tp369
a(I1
g127
tp370
a(I2
g145
tp371
a(I3
g127
tp372
a(I0
g143
tp373
a(I1
g127
tp374
a(I2
g145
tp375
a(I3
g145
tp376
a(I0
g143
tp377
a(I1
g125
tp378
a(I2
g143
tp379
a(I3
g143
tp380
a(I0
g143
tp381
a(I1
g145
tp382
a(I2
g125
tp383
a(I3
g125
tp384
a(I0
g145
tp385
a(I1
g145
tp386
a(I2
g125
tp387
a(I3
g125
tp388
a(I0
g125
tp389
a(I1
g127
tp390
a(I2
g125
tp391
a(I3
g127
tp392
a(I0
g125
tp393
a(I1
g125
tp394
a(I2
g143
tp395
a(I3
g125
tp396
a(I0
g125
tp397
a(I1
g125
tp398
a(I2
g143
tp399
a(I3
g125
tp400
a(I0
g125
tp401
a(I1
g125
tp402
a(I2
g145
tp403
a(I3
g127
tp404
a(I0
g143
tp405
a(I1
g125
tp406
a(I2
g143
tp407
a(I3
g125
tp408
a(I0
g143
tp409
a(I1
g125
tp410
a(I2
g143
tp411
a(I3
g127
tp412
a(I0
g125
tp413
a(I1
g125
tp414
a(I2
g127
tp415
a(I3
g125
tp416
a(I0
g125
tp417
a(I1
g125
tp418
a(I2
g127
tp419
a(I3
g127
tp420
a(I0
g125
tp421
a(I1
g125
tp422
a(I2
g127
tp423
a(I3
S'Stop'
p424
tp425
a(I0
g125
tp426
a(I1
g125
tp427
a(I2
g125
tp428
a(I3
g424
tp429
a(I0
g125
tp430
a(I1
g125
tp431
a(I2
g125
tp432
a(I3
g125
tp433
a(I0
g125
tp434
a(I1
g143
tp435
a(I2
g125
tp436
a(I3
g424
tp437
a(I0
g125
tp438
a(I1
g125
tp439
a(I2
g125
tp440
a(I3
g127
tp441
a(I0
g143
tp442
a(I1
g143
tp443
a(I2
g127
tp444
a(I3
g127
tp445
a(I0
g143
tp446
a(I1
g145
tp447
a(I2
g145
tp448
a(I3
g125
tp449
a(I0
g143
tp450
a(I1
g127
tp451
a(I2
g145
tp452
a(I3
g424
tp453
a(I0
g143
tp454
a(I1
g127
tp455
a(I2
g145
tp456
a(I3
g424
tp457
a(I0
g143
tp458
a(I1
g145
tp459
a(I2
g145
tp460
a(I3
g127
tp461
a(I0
g127
tp462
a(I1
g125
tp463
a(I2
g145
tp464
a(I3
g125
tp465
a(I0
g143
tp466
a(I1
g125
tp467
a(I2
g143
tp468
a(I3
g125
tp469
a(I0
g143
tp470
a(I1
g145
tp471
a(I2
g125
tp472
a(I3
g127
tp473
a(I0
g125
tp474
a(I1
g145
tp475
a(I2
g125
tp476
a(I3
g125
tp477
a(I0
g125
tp478
a(I1
g145
tp479
a(I2
g145
tp480
a(I3
g424
tp481
a(I0
g125
tp482
a(I1
g145
tp483
a(I2
g125
tp484
a(I3
g127
tp485
a(I0
g127
tp486
a(I1
g145
tp487
a(I2
g125
tp488
a(I3
g424
tp489
a(I0
g143
tp490
a(I1
g145
tp491
a(I2
g145
tp492
a(I3
g125
tp493
a(I0
g143
tp494
a(I1
g127
tp495
a(I2
g145
tp496
a(I3
g127
tp497
a(I0
g125
tp498
a(I1
g127
tp499
a(I2
g125
tp500
a(I3
g125
tp501
a(I0
g127
tp502
a(I1
g127
tp503
a(I2
g145
tp504
a(I3
g127
tp505
a(I0
g127
tp506
a(I1
g145
tp507
a(I2
g145
tp508
a(I3
g125
tp509
a(I0
g127
tp510
a(I1
g125
tp511
a(I2
g127
tp512
a(I3
g127
tp513
a(I0
g127
tp514
a(I1
g145
tp515
a(I2
g127
tp516
a(I3
g424
tp517
a(I0
g127
tp518
a(I1
g145
tp519
a(I2
g127
tp520
a(I3
g127
tp521
a(I0
g127
tp522
a(I1
g143
tp523
a(I2
g127
tp524
a(I3
g127
tp525
a(I0
g145
tp526
a(I1
g127
tp527
a(I2
g143
tp528
a(I3
g125
tp529
a(I0
g145
tp530
a(I1
g127
tp531
a(I2
g143
tp532
a(I3
g127
tp533
a(I0
g125
tp534
a(I1
g127
tp535
a(I2
g127
tp536
a(I3
g145
tp537
a(I0
g125
tp538
a(I1
g145
tp539
a(I2
g125
tp540
a(I3
g143
tp541
a(I0
g145
tp542
a(I1
g143
tp543
a(I2
g145
tp544
a(I3
g125
tp545
a(I0
g145
tp546
a(I1
g143
tp547
a(I2
g145
tp548
a(I3
g125
tp549
a(I0
g145
tp550
a(I1
g127
tp551
a(I2
g125
tp552
a(I3
g424
tp553
a(I0
g145
tp554
a(I1
g145
tp555
a(I2
g125
tp556
a(I3
g125
tp557
a(I0
g145
tp558
a(I1
g127
tp559
a(I2
g125
tp560
a(I3
g127
tp561
a(I0
g125
tp562
a(I1
g127
tp563
a(I2
g125
tp564
a(I3
g125
tp565
a(I0
g125
tp566
a(I1
g143
tp567
a(I2
g145
tp568
a(I3
g424
tp569
a(I0
g145
tp570
a(I1
g143
tp571
a(I2
g145
tp572
a(I3
g127
tp573
a(I0
g145
tp574
a(I1
g145
tp575
a(I2
g145
tp576
a(I3
g127
tp577
a(I0
g125
tp578
a(I1
g145
tp579
a(I2
g145
tp580
a(I3
g125
tp581
a(I0
g125
tp582
a(I1
g145
tp583
a(I2
g145
tp584
a(I3
g125
tp585
a(I0
g145
tp586
a(I1
g145
tp587
a(I2
g145
tp588
a(I3
g127
tp589
a(I0
g145
tp590
a(I1
g145
tp591
a(I2
g145
tp592
a(I3
g127
tp593
a(I0
g145
tp594
a(I1
g125
tp595
a(I2
g145
tp596
a(I3
g127
tp597
a(I0
g145
tp598
a(I1
g125
tp599
a(I2
g145
tp600
a(I3
g145
tp601
a(I0
g145
tp602
a(I1
g125
tp603
a(I2
g127
tp604
a(I3
g145
tp605
a(I0
g145
tp606
a(I1
g127
tp607
a(I2
g127
tp608
a(I3
g125
tp609
a(I0
g127
tp610
a(I1
g127
tp611
a(I2
g145
tp612
a(I3
g125
tp613
a(I0
g127
tp614
a(I1
g127
tp615
a(I2
g145
tp616
a(I3
g125
tp617
a(I0
g145
tp618
a(I1
g143
tp619
a(I2
g145
tp620
a(I3
g125
tp621
a(I0
g145
tp622
a(I1
g143
tp623
a(I2
g145
tp624
a(I3
g125
tp625
a(I0
g127
tp626
a(I1
g143
tp627
a(I2
g145
tp628
a(I3
g125
tp629
a(I0
g127
tp630
a(I1
g125
tp631
a(I2
g145
tp632
a(I3
g145
tp633
a(I0
g127
tp634
a(I1
g127
tp635
a(I2
g145
tp636
a(I3
g145
tp637
a(I0
g127
tp638
a(I1
g143
tp639
a(I2
g145
tp640
a(I3
g125
tp641
a(I0
g127
tp642
a(I1
g127
tp643
a(I2
g127
tp644
a(I3
g145
tp645
a(I0
g127
tp646
a(I1
g127
tp647
a(I2
g127
tp648
a(I3
g145
tp649
a(I0
g143
tp650
a(I1
g143
tp651
a(I2
g145
tp652
a(I3
g127
tp653
a(I0
g127
tp654
a(I1
g127
tp655
a(I2
g145
tp656
a(I3
g127
tp657
a(I0
g127
tp658
a(I1
g127
tp659
a(I2
g127
tp660
a(I3
g127
tp661
a(I0
g143
tp662
a(I1
g143
tp663
a(I2
g127
tp664
a(I3
g145
tp665
a(I0
g127
tp666
a(I1
g143
tp667
a(I2
g127
tp668
a(I3
g145
tp669
a(I0
g127
tp670
a(I1
g127
tp671
a(I2
g127
tp672
a(I3
g127
tp673
a(I0
g143
tp674
a(I1
g143
tp675
a(I2
g127
tp676
a(I3
g127
tp677
a(I0
g143
tp678
a(I1
g143
tp679
a(I2
g127
tp680
a(I3
g127
tp681
a(I0
g127
tp682
a(I1
g143
tp683
a(I2
g143
tp684
a(I3
g127
tp685
a(I0
g143
tp686
a(I1
g143
tp687
a(I2
g127
tp688
a(I3
g127
tp689
a(I0
g143
tp690
a(I1
g143
tp691
a(I2
g127
tp692
a(I3
g127
tp693
a(I0
g143
tp694
a(I1
g143
tp695
a(I2
g143
tp696
a(I3
g127
tp697
a(I0
g143
tp698
a(I1
g143
tp699
a(I2
g127
tp700
a(I3
g127
tp701
a(I0
g143
tp702
a(I1
g143
tp703
a(I2
g127
tp704
a(I3
g127
tp705
a(I0
g143
tp706
a(I1
g143
tp707
a(I2
g143
tp708
a(I3
g143
tp709
a(I0
g143
tp710
a(I1
g143
tp711
a(I2
g143
tp712
a(I3
g145
tp713
a(I0
g143
tp714
a(I1
g143
tp715
a(I2
g127
tp716
a(I3
g424
tp717
a(I0
g125
tp718
a(I1
g145
tp719
a(I2
g143
tp720
a(I3
g125
tp721
a(I0
g127
tp722
a(I1
g143
tp723
a(I2
g143
tp724
a(I3
g127
tp725
a(I0
g125
tp726
a(I1
g125
tp727
a(I2
g143
tp728
a(I3
g125
tp729
a(I0
g125
tp730
a(I1
g125
tp731
a(I2
g143
tp732
a(I3
g125
tp733
a(I0
g127
tp734
a(I1
g127
tp735
a(I2
g143
tp736
a(I3
g127
tp737
a(I0
g127
tp738
a(I1
g125
tp739
a(I2
g143
tp740
a(I3
g127
tp741
a(I0
g125
tp742
a(I1
g143
tp743
a(I2
g143
tp744
a(I3
g125
tp745
a(I0
g127
tp746
a(I1
g143
tp747
a(I2
g143
tp748
a(I3
g127
tp749
a(I0
g125
tp750
a(I1
g145
tp751
a(I2
g125
tp752
a(I3
g125
tp753
a(I0
g127
tp754
a(I1
g143
tp755
a(I2
g127
tp756
a(I3
g127
tp757
a(I0
g125
tp758
a(I1
g143
tp759
a(I2
g125
tp760
a(I3
g125
tp761
a(I0
g127
tp762
a(I1
g143
tp763
a(I2
g125
tp764
a(I3
g127
tp765
a(I0
g125
tp766
a(I1
g145
tp767
a(I2
g143
tp768
a(I3
g125
tp769
a(I0
g127
tp770
a(I1
g143
tp771
a(I2
g145
tp772
a(I3
g127
tp773
a(I0
g125
tp774
a(I1
g143
tp775
a(I2
g143
tp776
a(I3
g125
tp777
a(I0
g127
tp778
a(I1
g143
tp779
a(I2
g145
tp780
a(I3
g127
tp781
a(I0
g125
tp782
a(I1
g145
tp783
a(I2
g143
tp784
a(I3
g125
tp785
a(I0
g127
tp786
a(I1
g143
tp787
a(I2
g145
tp788
a(I3
g127
tp789
a(I0
g125
tp790
a(I1
g145
tp791
a(I2
g143
tp792
a(I3
g125
tp793
a(I0
g127
tp794
a(I1
g143
tp795
a(I2
g145
tp796
a(I3
g127
tp797
a(I0
g125
tp798
a(I1
g145
tp799
a(I2
g143
tp800
a(I3
g125
tp801
a(I0
g127
tp802
a(I1
g143
tp803
a(I2
g145
tp804
a(I3
g127
tp805
a(I0
g125
tp806
a(I1
g145
tp807
a(I2
g143
tp808
a(I3
g125
tp809
a(I0
g127
tp810
a(I1
g143
tp811
a(I2
g145
tp812
a(I3
g127
tp813
a(I0
g125
tp814
a(I1
g145
tp815
a(I2
g143
tp816
a(I3
g125
tp817
a(I0
g127
tp818
a(I1
g143
tp819
a(I2
g145
tp820
a(I3
g127
tp821
a(I0
g125
tp822
a(I1
g145
tp823
a(I2
g143
tp824
a(I3
g125
tp825
a(I0
g127
tp826
a(I1
g143
tp827
a(I2
g145
tp828
a(I3
g127
tp829
a(I0
g125
tp830
a(I1
g145
tp831
a(I2
g143
tp832
a(I3
g125
tp833
a(I0
g127
tp834
a(I1
g143
tp835
a(I2
g145
tp836
a(I3
g127
tp837
a(I0
g125
tp838
a(I1
g145
tp839
a(I2
g143
tp840
a(I3
g125
tp841
a(I0
g127
tp842
a(I1
g143
tp843
a(I2
g145
tp844
a(I3
g127
tp845
a(I0
g125
tp846
a(I1
g145
tp847
a(I2
g143
tp848
a(I3
g125
tp849
a(I0
g127
tp850
a(I1
g143
tp851
a(I2
g145
tp852
a(I3
g127
tp853
a(I0
g125
tp854
a(I1
g145
tp855
a(I2
g143
tp856
a(I3
g125
tp857
a(I0
g127
tp858
a(I1
g143
tp859
a(I2
g145
tp860
a(I3
g127
tp861
a(I0
g125
tp862
a(I1
g145
tp863
a(I2
g143
tp864
a(I3
g125
tp865
a(I0
g127
tp866
a(I1
g143
tp867
a(I2
g145
tp868
a(I3
g127
tp869
a(I0
g125
tp870
a(I1
g145
tp871
a(I2
g143
tp872
a(I3
g125
tp873
a(I0
g127
tp874
a(I1
g143
tp875
a(I2
g145
tp876
a(I3
g127
tp877
a(I0
g125
tp878
a(I1
g145
tp879
a(I2
g143
tp880
a(I3
g125
tp881
a(I0
g127
tp882
a(I1
g143
tp883
a(I2
g145
tp884
a(I3
g127
tp885
a(I0
g125
tp886
a(I1
g145
tp887
a(I2
g143
tp888
a(I3
g125
tp889
a(I0
g127
tp890
a(I1
g143
tp891
a(I2
g145
tp892
a(I3
g127
tp893
a(I0
g125
tp894
a(I1
g145
tp895
a(I2
g143
tp896
a(I3
g125
tp897
a(I0
g127
tp898
a(I1
g143
tp899
a(I2
g145
tp900
a(I3
g127
tp901
a(I0
g125
tp902
a(I1
g145
tp903
a(I2
g143
tp904
a(I3
g125
tp905
a(I0
g127
tp906
a(I1
g143
tp907
a(I2
g145
tp908
a(I3
g127
tp909
a(I0
g125
tp910
a(I1
g145
tp911
a(I2
g143
tp912
a(I3
g125
tp913
a(I0
g127
tp914
a(I1
g143
tp915
a(I2
g145
tp916
a(I3
g127
tp917
a(I0
g125
tp918
a(I1
g145
tp919
a(I2
g143
tp920
a(I3
g125
tp921
a(I0
g127
tp922
a(I1
g143
tp923
a(I2
g145
tp924
a(I3
g127
tp925
a(I0
g125
tp926
a(I1
g145
tp927
a(I2
g143
tp928
a(I3
g125
tp929
a(I0
g127
tp930
a(I1
g143
tp931
a(I2
g145
tp932
a(I3
g127
tp933
a(I0
g125
tp934
a(I1
g145
tp935
a(I2
g143
tp936
a(I3
g125
tp937
a(I0
g127
tp938
a(I1
g143
tp939
a(I2
g145
tp940
a(I3
g127
tp941
a(I0
g125
tp942
a(I1
g145
tp943
a(I2
g143
tp944
a(I3
g125
tp945
a(I0
g127
tp946
a(I1
g143
tp947
a(I2
g145
tp948
a(I3
g127
tp949
a(I0
g125
tp950
a(I1
g145
tp951
a(I2
g143
tp952
a(I3
g125
tp953
a(I0
g127
tp954
a(I1
g143
tp955
a(I2
g145
tp956
a(I3
g127
tp957
a(I0
g125
tp958
a(I1
g145
tp959
a(I2
g143
tp960
a(I3
g125
tp961
a(I0
g127
tp962
a(I1
g143
tp963
a(I2
g145
tp964
a(I3
g127
tp965
a(I0
g125
tp966
a(I1
g145
tp967
a(I2
g143
tp968
a(I3
g125
tp969
a(I0
g127
tp970
a(I1
g143
tp971
a(I2
g145
tp972
a(I3
g127
tp973
a(I0
g125
tp974
a(I1
g145
tp975
a(I2
g143
tp976
a(I3
g125
tp977
a(I0
g127
tp978
a(I1
g143
tp979
a(I2
g145
tp980
a(I3
g127
tp981
a(I0
g125
tp982
a(I1
g145
tp983
a(I2
g143
tp984
a(I3
g125
tp985
a(I0
g127
tp986
a(I1
g143
tp987
a(I2
g145
tp988
a(I3
g127
tp989
a(I0
g125
tp990
a(I1
g145
tp991
a(I2
g143
tp992
a(I3
g125
tp993
a(I0
g127
tp994
a(I1
g143
tp995
a(I2
g145
tp996
a(I3
g127
tp997
a(I0
g125
tp998
a(I1
g145
tp999
a(I2
g143
tp1000
a(I3
g125
tp1001
a(I0
g127
tp1002
a(I1
g143
tp1003
a(I2
g145
tp1004
a(I3
g127
tp1005
a(I0
g125
tp1006
a(I1
g145
tp1007
a(I2
g143
tp1008
a(I3
g125
tp1009
a(I0
g127
tp1010
a(I1
g143
tp1011
a(I2
g145
tp1012
a(I3
g127
tp1013
a(I0
g125
tp1014
a(I1
g145
tp1015
a(I2
g143
tp1016
a(I3
g125
tp1017
a(I0
g127
tp1018
a(I1
g143
tp1019
a(I2
g145
tp1020
a(I3
g127
tp1021
a(I0
g125
tp1022
a(I1
g145
tp1023
a(I2
g143
tp1024
a(I3
g125
tp1025
a(I0
g127
tp1026
a(I1
g143
tp1027
a(I2
g145
tp1028
a(I3
g127
tp1029
a(I0
g125
tp1030
a(I1
g145
tp1031
a(I2
g143
tp1032
a(I3
g125
tp1033
a(I0
g127
tp1034
a(I1
g143
tp1035
a(I2
g145
tp1036
a(I3
g127
tp1037
a(I0
g125
tp1038
a(I1
g145
tp1039
a(I2
g143
tp1040
a(I3
g125
tp1041
a(I0
g127
tp1042
a(I1
g143
tp1043
a(I2
g145
tp1044
a(I3
g127
tp1045
a(I0
g125
tp1046
a(I1
g145
tp1047
a(I2
g143
tp1048
a(I3
g125
tp1049
a(I0
g127
tp1050
a(I1
g143
tp1051
a(I2
g145
tp1052
a(I3
g127
tp1053
a(I0
g125
tp1054
a(I1
g145
tp1055
a(I2
g143
tp1056
a(I3
g125
tp1057
a(I0
g127
tp1058
a(I1
g143
tp1059
a(I2
g145
tp1060
a(I3
g127
tp1061
a(I0
g125
tp1062
a(I1
g145
tp1063
a(I2
g143
tp1064
a(I3
g125
tp1065
a(I0
g127
tp1066
a(I1
g143
tp1067
a(I2
g145
tp1068
a(I3
g127
tp1069
a(I0
g125
tp1070
a(I1
g145
tp1071
a(I2
g143
tp1072
a(I3
g125
tp1073
a(I0
g127
tp1074
a(I1
g143
tp1075
a(I2
g145
tp1076
a(I3
g127
tp1077
a(I0
g125
tp1078
a(I1
g145
tp1079
a(I2
g143
tp1080
a(I3
g125
tp1081
a(I0
g127
tp1082
a(I1
g143
tp1083
a(I2
g145
tp1084
a(I3
g127
tp1085
a(I0
g125
tp1086
a(I1
g145
tp1087
a(I2
g143
tp1088
a(I3
g125
tp1089
a(I0
g127
tp1090
a(I1
g143
tp1091
a(I2
g145
tp1092
a(I3
g127
tp1093
a(I0
g125
tp1094
a(I1
g145
tp1095
a(I2
g143
tp1096
a(I3
g125
tp1097
a(I0
g127
tp1098
a(I1
g143
tp1099
a(I2
g145
tp1100
a(I3
g127
tp1101
a(I0
g125
tp1102
a(I1
g145
tp1103
a(I2
g143
tp1104
a(I3
g125
tp1105
a(I0
g127
tp1106
a(I1
g143
tp1107
a(I2
g145
tp1108
a(I3
g127
tp1109
a(I0
g125
tp1110
a(I1
g145
tp1111
a(I2
g143
tp1112
a(I3
g125
tp1113
a(I0
g127
tp1114
a(I1
g143
tp1115
a(I2
g145
tp1116
a(I3
g127
tp1117
a(I0
g125
tp1118
a(I1
g145
tp1119
a(I2
g143
tp1120
a(I3
g125
tp1121
a(I0
g127
tp1122
a(I1
g143
tp1123
a(I2
g145
tp1124
a(I3
g127
tp1125
a(I0
g125
tp1126
a(I1
g145
tp1127
a(I2
g143
tp1128
a(I3
g125
tp1129
a(I0
g127
tp1130
a(I1
g143
tp1131
a(I2
g145
tp1132
a(I3
g127
tp1133
a(I0
g125
tp1134
a(I1
g145
tp1135
a(I2
g143
tp1136
a(I3
g125
tp1137
a(I0
g127
tp1138
a(I1
g143
tp1139
a(I2
g145
tp1140
a(I3
g127
tp1141
a(I0
g125
tp1142
a(I1
g145
tp1143
a(I2
g143
tp1144
a(I3
g125
tp1145
a(I0
g127
tp1146
a(I1
g143
tp1147
a(I2
g145
tp1148
a(I3
g127
tp1149
a(I0
g125
tp1150
a(I1
g145
tp1151
a(I2
g143
tp1152
a(I3
g125
tp1153
a(I0
g127
tp1154
a(I1
g143
tp1155
a(I2
g145
tp1156
a(I3
g127
tp1157
a(I0
g125
tp1158
a(I1
g145
tp1159
a(I2
g143
tp1160
a(I3
g125
tp1161
a(I0
g127
tp1162
a(I1
g143
tp1163
a(I2
g145
tp1164
a(I3
g127
tp1165
a(I0
g125
tp1166
a(I1
g145
tp1167
a(I2
g143
tp1168
a(I3
g125
tp1169
a(I0
g127
tp1170
a(I1
g143
tp1171
a(I2
g145
tp1172
a(I3
g127
tp1173
a(I0
g125
tp1174
a(I1
g145
tp1175
a(I2
g143
tp1176
a(I3
g125
tp1177
a(I0
g127
tp1178
a(I1
g143
tp1179
a(I2
g145
tp1180
a(I3
g127
tp1181
a(I0
g125
tp1182
a(I1
g145
tp1183
a(I2
g143
tp1184
a(I3
g125
tp1185
a(I0
g127
tp1186
a(I1
g143
tp1187
a(I2
g145
tp1188
a(I3
g127
tp1189
a(I0
g125
tp1190
a(I1
g145
tp1191
a(I2
g143
tp1192
a(I3
g125
tp1193
a(I0
g127
tp1194
a(I1
g143
tp1195
a(I2
g145
tp1196
a(I3
g127
tp1197
a(I0
g125
tp1198
a(I1
g145
tp1199
a(I2
g143
tp1200
a(I3
g125
tp1201
a(I0
g127
tp1202
a(I1
g143
tp1203
a(I2
g145
tp1204
a(I3
g127
tp1205
a(I0
g125
tp1206
a(I1
g145
tp1207
a(I2
g143
tp1208
a(I3
g125
tp1209
a(I0
g127
tp1210
a(I1
g143
tp1211
a(I2
g145
tp1212
a(I3
g127
tp1213
a(I0
g125
tp1214
a(I1
g145
tp1215
a(I2
g143
tp1216
a(I3
g125
tp1217
a(I0
g127
tp1218
a(I1
g143
tp1219
a(I2
g145
tp1220
a(I3
g127
tp1221
a(I0
g125
tp1222
a(I1
g145
tp1223
a(I2
g143
tp1224
a(I3
g125
tp1225
a(I0
g127
tp1226
a(I1
g143
tp1227
a(I2
g145
tp1228
a(I3
g127
tp1229
a(I0
g125
tp1230
a(I1
g145
tp1231
a(I2
g143
tp1232
a(I3
g125
tp1233
a(I0
g127
tp1234
a(I1
g143
tp1235
a(I2
g145
tp1236
a(I3
g127
tp1237
a(I0
g125
tp1238
a(I1
g145
tp1239
a(I2
g143
tp1240
a(I3
g125
tp1241
a(I0
g127
tp1242
a(I1
g143
tp1243
a(I2
g145
tp1244
a(I3
g127
tp1245
a(I0
g125
tp1246
a(I1
g145
tp1247
a(I2
g143
tp1248
a(I3
g125
tp1249
a(I0
g127
tp1250
a(I1
g143
tp1251
a(I2
g145
tp1252
a(I3
g127
tp1253
a(I0
g125
tp1254
a(I1
g145
tp1255
a(I2
g143
tp1256
a(I3
g125
tp1257
a(I0
g127
tp1258
a(I1
g143
tp1259
a(I2
g145
tp1260
a(I3
g127
tp1261
a(I0
g125
tp1262
a(I1
g145
tp1263
a(I2
g143
tp1264
a(I3
g125
tp1265
a(I0
g127
tp1266
a(I1
g143
tp1267
a(I2
g145
tp1268
a(I3
g127
tp1269
a(I0
g125
tp1270
a(I1
g145
tp1271
a(I2
g143
tp1272
a(I3
g125
tp1273
a(I0
g127
tp1274
a(I1
g143
tp1275
a(I2
g145
tp1276
a(I3
g127
tp1277
a(I0
g125
tp1278
a(I1
g145
tp1279
a(I2
g143
tp1280
a(I3
g125
tp1281
a(I0
g127
tp1282
a(I1
g143
tp1283
a(I2
g145
tp1284
a(I3
g127
tp1285
a(I0
g125
tp1286
a(I1
g145
tp1287
a(I2
g143
tp1288
a(I3
g125
tp1289
a(I0
g127
tp1290
a(I1
g143
tp1291
a(I2
g145
tp1292
a(I3
g127
tp1293
a(I0
g125
tp1294
a(I1
g145
tp1295
a(I2
g143
tp1296
a(I3
g125
tp1297
a(I0
g127
tp1298
a(I1
g143
tp1299
a(I2
g145
tp1300
a(I3
g127
tp1301
a(I0
g125
tp1302
a(I1
g145
tp1303
a(I2
g143
tp1304
a(I3
g125
tp1305
a(I0
g127
tp1306
a(I1
g143
tp1307
a(I2
g145
tp1308
a(I3
g127
tp1309
a(I0
g125
tp1310
a(I1
g145
tp1311
a(I2
g143
tp1312
a(I3
g125
tp1313
a(I0
g127
tp1314
a(I1
g143
tp1315
a(I2
g145
tp1316
a(I3
g127
tp1317
a(I0
g125
tp1318
a(I1
g145
tp1319
a(I2
g143
tp1320
a(I3
g125
tp1321
a(I0
g127
tp1322
a(I1
g143
tp1323
a(I2
g145
tp1324
a(I3
g127
tp1325
a(I0
g125
tp1326
a(I1
g145
tp1327
a(I2
g143
tp1328
a(I3
g125
tp1329
asS'length'
p1330
I1200
sS'agents'
p1331
(lp1332
(igame
Agent
p1333
(dp1334
S'index'
p1335
I0
sba(igame
Agent
p1336
(dp1337
g1335
I0
sba(igame
Agent
p1338
(dp1339
g1335
I0
sba(igame
Agent
p1340
(dp1341
g1335
I0
sbasS'redTeamName'
p1342
S'Red'
p1343
s.