(dp1
S'layout'
p2
(ilayout
Layout
p3
(dp4
S'capsules'
p5
(lp6
(I8
I8
tp7
a(I28
I8
tp8
a(I5
I9
tp9
a(I25
I9
tp10
asS'numGhosts'
p11
I4
sS'food'
p12
(igame
Grid
p13
(dp14
S'CELLS_PER_INT'
p15
I30
sS'width'
p16
I34
sS'data'
p17
(lp18
(lp19
I00
aI00
aI00
aI00
aI00
aI00
aI00
aI00
aI00
aI00
aI00
aI00
aI00
aI00
aI00
aI00
aI00
aI00
aa(lp20
I00
aI00
aI00
aI00
aI00
aI01
aI00
aI00
aI00
aI00
aI00
aI00
aI00
aI00
aI00
aI00
aI01
aI00
aa(lp21
I00
aI00
aI00
aI00
aI00
aI00
aI00
aI00
aI00
aI00
aI00
aI00
aI00
aI01
aI00
aI00
aI00
aI00
aa(lp22
I00
aI00
aI00
aI00
aI00
aI00
aI00
aI00
aI00
aI00
aI00
aI00
aI00
aI00
aI00
aI00
aI00
aI00
aa(lp23
I00
aI00
aI00
aI00
aI00
aI01
aI00
aI01
aI00
aI01
aI00
aI00
aI00
aI00
aI00
aI00
aI00
aI00
aa(lp24
I00
aI00
aI00
aI00
aI00
aI01
aI00
aI00
aI00
aI00
aI00
aI00
aI00
aI00
aI00
aI00
aI00
aI00
aa(lp25
I00
aI00
aI00
aI00
aI00
aI00
aI00
aI00
aI00
aI00
aI00
aI01
aI00
aI00
aI00
aI01
aI01
aI00
aa(lp26
I00
aI00
aI00
aI00
aI01
aI01
aI00
aI01
aI00
aI00
aI00
aI00
aI00
aI00
aI00
aI00
aI00
aI00
aa(lp27
I00
aI00
aI00
aI00
aI00
aI00
aI00
aI00
aI00
aI00
aI00
aI00
aI00
aI01
aI01
aI00
aI01
aI00
aa(lp28
I00
aI00
aI01
aI00
aI00
aI00
aI00
aI00
aI00
aI00
aI00
aI00
aI00
aI00
aI00
aI00
aI01
aI00
aa(lp29
I00
aI01
aI00
aI00
aI00
aI00
aI00
aI01
aI00
aI01
aI00
aI00
aI00
aI00
aI01
aI00
aI00
aI00
aa(lp30
I00
aI00
aI00
aI00
aI00
aI00
aI00
aI01
aI00
aI00
aI00
aI00
aI01
aI00
aI00
aI00
aI00
aI00
aa(lp31
I00
aI01
aI01
aI00
aI00
aI00
aI00
aI00
aI00
aI00
aI00
aI00
aI00
aI00
aI00
aI00
aI00
aI00
aa(lp32
I00
aI00
aI01
aI00
aI00
aI00
aI00
aI00
aI01
aI00
aI00
aI00
aI00
aI00
aI00
aI00
aI00
aI00
aa(lp33
I00
aI01
aI00
aI00
aI00
aI00
aI01
aI00
aI00
aI00
aI00
aI00
aI00
aI00
aI00
aI00
aI00
aI00
aa(lp34
I00
aI00
aI00
aI00
aI00
aI00
aI00
aI00
aI00
aI00
aI00
aI00
aI00
aI00
aI00
aI00
aI00
aI00
aa(lp35
I00
aI00
aI00
aI00
aI00
aI00
aI00
aI00
aI00
aI00
aI00
aI00
aI00
aI00
aI00
aI00
aI00
aI00
aa(lp36
I00
aI00
aI00
aI00
aI00
aI00
aI00
aI00
aI00
aI00
aI00
aI00
aI00
aI00
aI00
aI00
aI00
aI00
aa(lp37
I00
aI00
aI00
aI00
aI00
aI00
aI00
aI00
aI00
aI00
aI00
aI00
aI00
aI00
aI00
aI00
aI00
aI00
aa(lp38
I00
aI00
aI00
aI00
aI00
aI00
aI00
aI00
aI00
aI00
aI00
aI01
aI00
aI00
aI00
aI00
aI01
aI00
aa(lp39
I00
aI00
aI00
aI00
aI00
aI00
aI00
aI00
aI00
aI01
aI00
aI00
aI00
aI00
aI00
aI01
aI00
aI00
aa(lp40
I00
aI00
aI00
aI00
aI00
aI00
aI00
aI00
aI00
aI00
aI00
aI00
aI00
aI00
aI00
aI01
aI01
aI00
aa(lp41
I00
aI00
aI00
aI00
aI00
aI01
aI00
aI00
aI00
aI00
aI01
aI00
aI00
aI00
aI00
aI00
aI00
aI00
aa(lp42
I00
aI00
aI00
aI01
aI00
aI00
aI00
aI00
aI01
aI00
aI01
aI00
aI00
aI00
aI00
aI00
aI01
aI00
aa(lp43
I00
aI01
aI00
aI00
aI00
aI00
aI00
aI00
aI00
aI00
aI00
aI00
aI00
aI00
aI00
aI01
aI00
aI00
aa(lp44
I00
aI01
aI00
aI01
aI01
aI00
aI00
aI00
aI00
aI00
aI00
aI00
aI00
aI00
aI00
aI00
aI00
aI00
aa(lp45
I00
aI00
aI00
aI00
aI00
aI00
aI00
aI00
aI00
aI00
aI01
aI00
aI01
aI01
aI00
aI00
aI00
aI00
aa(lp46
I00
aI01
aI01
aI00
aI00
aI00
aI01
aI00
aI00
aI00
aI00
aI00
aI00
aI00
aI00
aI00
aI00
aI00
aa(lp47
I00
aI00
aI00
aI00
aI00
aI00
aI00
aI00
aI00
aI00
aI00
aI00
aI01
aI00
aI00
aI00
aI00
aI00
aa(lp48
I00
aI00
aI00
aI00
aI00
aI00
aI00
aI00
aI01
aI00
aI01
aI00
aI01
aI00
aI00
aI00
aI00
aI00
aa(lp49
I00
aI00
aI00
aI00
aI00
aI00
aI00
aI00
aI00
aI00
aI00
aI00
aI00
aI00
aI00
aI00
aI00
aI00
aa(lp50
I00
aI00
aI00
aI00
aI01
aI00
aI00
aI00
aI00
aI00
aI00
aI00
aI00
aI00
aI00
aI00
aI00
aI00
aa(lp51
I00
aI01
aI00
aI00
aI00
aI00
aI00
aI00
aI00
aI00
aI00
aI00
aI01
aI00
aI00
aI00
aI00
aI00
aa(lp52
I00
aI00
aI00
aI00
aI00
aI00
aI00
aI00
aI00
aI00
aI00
aI00
aI00
aI00
aI00
aI00
aI00
aI00
aasS'height'
p53
I18
sbsS'agentPositions'
p54
(lp55
(I00
(I1
I2
tp56
tp57
a(I00
(I32
I15
tp58
tp59
a(I00
(I1
I1
tp60
tp61
a(I00
(I32
I16
tp62
tp63
asg53
I18
sg16
I34
sS'walls'
p64
(igame
Grid
p65
(dp66
g15
I30
sg16
I34
sg17
(lp67
(lp68
I01
aI01
aI01
aI01
aI01
aI01
aI01
aI01
aI01
aI01
aI01
aI01
aI01
aI01
aI01
aI01
aI01
aI01
aa(lp69
I01
aI00
aI00
aI00
aI00
aI00
aI00
aI01
aI00
aI00
aI00
aI00
aI00
aI00
aI00
aI00
aI00
aI01
aa(lp70
I01
aI00
aI00
aI00
aI00
aI01
aI00
aI00
aI00
aI01
aI00
aI00
aI01
aI00
aI00
aI00
aI00
aI01
aa(lp71
I01
aI01
aI01
aI00
aI01
aI01
aI01
aI01
aI01
aI01
aI01
aI01
aI01
aI01
aI01
aI00
aI00
aI01
aa(lp72
I01
aI00
aI00
aI00
aI00
aI00
aI01
aI00
aI00
aI00
aI01
aI00
aI00
aI00
aI00
aI00
aI00
aI01
aa(lp73
I01
aI00
aI00
aI00
aI01
aI00
aI01
aI01
aI00
aI00
aI00
aI00
aI01
aI01
aI00
aI01
aI01
aI01
aa(lp74
I01
aI01
aI00
aI01
aI01
aI01
aI01
aI00
aI00
aI00
aI01
aI00
aI00
aI00
aI00
aI00
aI00
aI01
aa(lp75
I01
aI00
aI00
aI01
aI00
aI00
aI01
aI00
aI01
aI01
aI01
aI01
aI01
aI01
aI01
aI01
aI01
aI01
aa(lp76
I01
aI00
aI00
aI01
aI00
aI01
aI01
aI00
aI00
aI00
aI00
aI00
aI00
aI00
aI00
aI01
aI00
aI01
aa(lp77
I01
aI01
aI00
aI01
aI00
aI00
aI01
aI01
aI01
aI01
aI01
aI00
aI01
aI00
aI01
aI01
aI00
aI01
aa(lp78
I01
aI00
aI00
aI01
aI01
aI00
aI01
aI00
aI01
aI00
aI01
aI00
aI01
aI00
aI00
aI01
aI00
aI01
aa(lp79
I01
aI01
aI00
aI01
aI00
aI00
aI01
aI00
aI00
aI00
aI00
aI00
aI00
aI00
aI00
aI01
aI00
aI01
aa(lp80
I01
aI00
aI00
aI01
aI00
aI01
aI01
aI01
aI01
aI01
aI01
aI01
aI00
aI01
aI00
aI00
aI00
aI01
aa(lp81
I01
aI01
aI00
aI01
aI00
aI00
aI01
aI00
aI00
aI00
aI00
aI01
aI00
aI01
aI00
aI01
aI00
aI01
aa(lp82
I01
aI00
aI00
aI00
aI00
aI00
aI00
aI00
aI00
aI01
aI00
aI00
aI00
aI00
aI00
aI01
aI00
aI01
aa(lp83
I01
aI00
aI01
aI01
aI00
aI00
aI01
aI00
aI01
aI01
aI01
aI01
aI01
aI01
aI00
aI01
aI00
aI01
aa(lp84
I01
aI00
aI00
aI01
aI00
aI00
aI01
aI00
aI00
aI00
aI00
aI00
aI00
aI01
aI00
aI01
aI00
aI01
aa(lp85
I01
aI00
aI01
aI00
aI01
aI00
aI00
aI00
aI00
aI00
aI00
aI01
aI00
aI00
aI01
aI00
aI00
aI01
aa(lp86
I01
aI00
aI01
aI00
aI01
aI01
aI01
aI01
aI01
aI01
aI00
aI01
aI00
aI00
aI01
aI01
aI00
aI01
aa(lp87
I01
aI00
aI01
aI00
aI00
aI00
aI00
aI00
aI01
aI00
aI00
aI00
aI00
aI00
aI00
aI00
aI00
aI01
aa(lp88
I01
aI00
aI01
aI00
aI01
aI00
aI01
aI00
aI00
aI00
aI00
aI01
aI00
aI00
aI01
aI00
aI01
aI01
aa(lp89
I01
aI00
aI00
aI00
aI01
aI00
aI01
aI01
aI01
aI01
aI01
aI01
aI01
aI00
aI01
aI00
aI00
aI01
aa(lp90
I01
aI00
aI01
aI00
aI00
aI00
aI00
aI00
aI00
aI00
aI00
aI01
aI00
aI00
aI01
aI00
aI01
aI01
aa(lp91
I01
aI00
aI01
aI00
aI00
aI01
aI00
aI01
aI00
aI01
aI00
aI01
aI00
aI01
aI01
aI00
aI00
aI01
aa(lp92
I01
aI00
aI01
aI01
aI00
aI01
aI00
aI01
aI01
aI01
aI01
aI01
aI00
aI00
aI01
aI00
aI01
aI01
aa(lp93
I01
aI00
aI01
aI00
aI00
aI00
aI00
aI00
aI00
aI00
aI00
aI01
aI01
aI00
aI01
aI00
aI00
aI01
aa(lp94
I01
aI01
aI01
aI01
aI01
aI01
aI01
aI01
aI01
aI01
aI00
aI01
aI00
aI00
aI01
aI00
aI00
aI01
aa(lp95
I01
aI00
aI00
aI00
aI00
aI00
aI00
aI01
aI00
aI00
aI00
aI01
aI01
aI01
aI01
aI00
aI01
aI01
aa(lp96
I01
aI01
aI01
aI00
aI01
aI01
aI00
aI00
aI00
aI00
aI01
aI01
aI00
aI01
aI00
aI00
aI00
aI01
aa(lp97
I01
aI00
aI00
aI00
aI00
aI00
aI00
aI01
aI00
aI00
aI00
aI01
aI00
aI00
aI00
aI00
aI00
aI01
aa(lp98
I01
aI00
aI00
aI01
aI01
aI01
aI01
aI01
aI01
aI01
aI01
aI01
aI01
aI01
aI00
aI01
aI01
aI01
aa(lp99
I01
aI00
aI00
aI00
aI00
aI01
aI00
aI00
aI01
aI00
aI00
aI00
aI01
aI00
aI00
aI00
aI00
aI01
aa(lp100
I01
aI00
aI00
aI00
aI00
aI00
aI00
aI00
aI00
aI00
aI01
aI00
aI00
aI00
aI00
aI00
aI00
aI01
aa(lp101
I01
aI01
aI01
aI01
aI01
aI01
aI01
aI01
aI01
aI01
aI01
aI01
aI01
aI01
aI01
aI01
aI01
aI01
aasg53
I18
sbsS'totalFood'
p102
I60
sS'layoutText'
p103
(lp104
S'%%%%%%%%%%%%%%%%%%%%%%%%%%%%%%%%%%'
p105
aS'%.   %.%..         .%.%.%  %  % 4%'
p106
aS'%    %.%%%%% %%%% % ..  .     % 2%'
p107
aS'%  %   %.%.      %% %%%%%%%%     %'
p108
aS'% .% % %.   %% %%      %  .%% %  %'
p109
aS'% %% % % %%.   %     %   %.%..%%.%'
p110
aS'%  %  .%    %% % %%.%%%%%%%%%%%  %'
p111
aS'%  %% %% %% %  %     %..% . %.% %%'
p112
aS'% %%.o % %. % %%  % .% %%o%   %  %'
p113
aS'%  %   %o%% %. %  %% % .% % o.%% %'
p114
aS'%% %.% . %..%     %  % %% %% %%  %'
p115
aS'%  %%%%%%%%%%%.%% % %%    %.  %  %'
p116
aS'%.%%..%.%   %     %   .%% % % %% %'
p117
aS'%  % %%.  %      %% %%   .% % %. %'
p118
aS'%     %%%%%%%% %%      .%.%   %  %'
p119
aS'%1 %     .  .. % %%%% %%%%%.%    %'
p120
aS'%3 %  %  %.%.%.         ..%.%   .%'
p121
aS'%%%%%%%%%%%%%%%%%%%%%%%%%%%%%%%%%%'
p122
asbsS'blueTeamName'
p123
S'Blue'
p124
sS'actions'
p125
(lp126
(I1
S'West'
p127
tp128
a(I2
S'East'
p129
tp130
a(I3
S'Stop'
p131
tp132
a(I0
g129
tp133
a(I1
S'South'
p134
tp135
a(I2
S'North'
p136
tp137
a(I3
g131
tp138
a(I0
g136
tp139
a(I1
g131
tp140
a(I2
g136
tp141
a(I3
g134
tp142
a(I0
g129
tp143
a(I1
g136
tp144
a(I2
g129
tp145
a(I3
g136
tp146
a(I0
g129
tp147
a(I1
g134
tp148
a(I2
g129
tp149
a(I3
g134
tp150
a(I0
g129
tp151
a(I1
g131
tp152
a(I2
g129
tp153
a(I3
g134
tp154
a(I0
g134
tp155
a(I1
g127
tp156
a(I2
g134
tp157
a(I3
g136
tp158
a(I0
g129
tp159
a(I1
g129
tp160
a(I2
g129
tp161
a(I3
g136
tp162
a(I0
g129
tp163
a(I1
g129
tp164
a(I2
g129
tp165
a(I3
g127
tp166
a(I0
g129
tp167
a(I1
g127
tp168
a(I2
g129
tp169
a(I3
g131
tp170
a(I0
g129
tp171
a(I1
g131
tp172
a(I2
g129
tp173
a(I3
g129
tp174
a(I0
g129
tp175
a(I1
g134
tp176
a(I2
g129
tp177
a(I3
g127
tp178
a(I0
g129
tp179
a(I1
g131
tp180
a(I2
g129
tp181
a(I3
g131
tp182
a(I0
g129
tp183
a(I1
g131
tp184
a(I2
g129
tp185
a(I3
g131
tp186
a(I0
g129
tp187
a(I1
g131
tp188
a(I2
g129
tp189
a(I3
g134
tp190
a(I0
g129
tp191
a(I1
g136
tp192
a(I2
g129
tp193
a(I3
g136
tp194
a(I0
g134
tp195
a(I1
g127
tp196
a(I2
g136
tp197
a(I3
g134
tp198
a(I0
g129
tp199
a(I1
g131
tp200
a(I2
g136
tp201
a(I3
g136
tp202
a(I0
g129
tp203
a(I1
g127
tp204
a(I2
g129
tp205
a(I3
g131
tp206
a(I0
g129
tp207
a(I1
g136
tp208
a(I2
g129
tp209
a(I3
g129
tp210
a(I0
g129
tp211
a(I1
g127
tp212
a(I2
g136
tp213
a(I3
g127
tp214
a(I0
g129
tp215
a(I1
g131
tp216
a(I2
g129
tp217
a(I3
g131
tp218
a(I0
g129
tp219
a(I1
g134
tp220
a(I2
g136
tp221
a(I3
g134
tp222
a(I0
g129
tp223
a(I1
g136
tp224
a(I2
g136
tp225
a(I3
g129
tp226
a(I0
g129
tp227
a(I1
g136
tp228
a(I2
g136
tp229
a(I3
g131
tp230
a(I0
g129
tp231
a(I1
g129
tp232
a(I2
g136
tp233
a(I3
g127
tp234
a(I0
g129
tp235
a(I1
g134
tp236
a(I2
g136
tp237
a(I3
g131
tp238
a(I0
g129
tp239
a(I1
g134
tp240
a(I2
g129
tp241
a(I3
g134
tp242
a(I0
g127
tp243
a(I1
g131
tp244
a(I2
g129
tp245
a(I3
g127
tp246
a(I0
g127
tp247
a(I1
g136
tp248
a(I2
g136
tp249
a(I3
g127
tp250
a(I0
g127
tp251
a(I1
g134
tp252
a(I2
g136
tp253
a(I3
g134
tp254
a(I0
g127
tp255
a(I1
g134
tp256
a(I2
g136
tp257
a(I3
g134
tp258
a(I0
g136
tp259
a(I1
g131
tp260
a(I2
g136
tp261
a(I3
g131
tp262
a(I0
g136
tp263
a(I1
g134
tp264
a(I2
g136
tp265
a(I3
g127
tp266
a(I0
g129
tp267
a(I1
g131
tp268
a(I2
g136
tp269
a(I3
g129
tp270
a(I0
g129
tp271
a(I1
g131
tp272
a(I2
g134
tp273
a(I3
g131
tp274
a(I0
g136
tp275
a(I1
g127
tp276
a(I2
g129
tp277
a(I3
g136
tp278
a(I0
g129
tp279
a(I1
g129
tp280
a(I2
g127
tp281
a(I3
g136
tp282
a(I0
g129
tp283
a(I1
g136
tp284
a(I2
g136
tp285
a(I3
g136
tp286
a(I0
g136
tp287
a(I1
g131
tp288
a(I2
g127
tp289
a(I3
g131
tp290
a(I0
g136
tp291
a(I1
g131
tp292
a(I2
g127
tp293
a(I3
g127
tp294
a(I0
g136
tp295
a(I1
g131
tp296
a(I2
g127
tp297
a(I3
g127
tp298
a(I0
g136
tp299
a(I1
g136
tp300
a(I2
g129
tp301
a(I3
g131
tp302
a(I0
g136
tp303
a(I1
g129
tp304
a(I2
g129
tp305
a(I3
g127
tp306
a(I0
g136
tp307
a(I1
g129
tp308
a(I2
g129
tp309
a(I3
g131
tp310
a(I0
g129
tp311
a(I1
g127
tp312
a(I2
g134
tp313
a(I3
g129
tp314
a(I0
g129
tp315
a(I1
g129
tp316
a(I2
g129
tp317
a(I3
g127
tp318
a(I0
g134
tp319
a(I1
g136
tp320
a(I2
g129
tp321
a(I3
g129
tp322
a(I0
g129
tp323
a(I1
g136
tp324
a(I2
g129
tp325
a(I3
g131
tp326
a(I0
g129
tp327
a(I1
g131
tp328
a(I2
g129
tp329
a(I3
g129
tp330
a(I0
g136
tp331
a(I1
g129
tp332
a(I2
g129
tp333
a(I3
g136
tp334
a(I0
g134
tp335
a(I1
g131
tp336
a(I2
g127
tp337
a(I3
g129
tp338
a(I0
g134
tp339
a(I1
g134
tp340
a(I2
g127
tp341
a(I3
g127
tp342
a(I0
g127
tp343
a(I1
g131
tp344
a(I2
g127
tp345
a(I3
g129
tp346
a(I0
g134
tp347
a(I1
g136
tp348
a(I2
g136
tp349
a(I3
g131
tp350
a(I0
g134
tp351
a(I1
g127
tp352
a(I2
g134
tp353
a(I3
g134
tp354
a(I0
g127
tp355
a(I1
g129
tp356
a(I2
g129
tp357
a(I3
g127
tp358
a(I0
g134
tp359
a(I1
g131
tp360
a(I2
g129
tp361
a(I3
g134
tp362
a(I0
g134
tp363
a(I1
g131
tp364
a(I2
g136
tp365
a(I3
g129
tp366
a(I0
g134
tp367
a(I1
g134
tp368
a(I2
g134
tp369
a(I3
g131
tp370
a(I0
g134
tp371
a(I1
g136
tp372
a(I2
g129
tp373
a(I3
g134
tp374
a(I0
g134
tp375
a(I1
g134
tp376
a(I2
g129
tp377
a(I3
g134
tp378
a(I0
g136
tp379
a(I1
g134
tp380
a(I2
g129
tp381
a(I3
g131
tp382
a(I0
g136
tp383
a(I1
g136
tp384
a(I2
g127
tp385
a(I3
g127
tp386
a(I0
g136
tp387
a(I1
g136
tp388
a(I2
g129
tp389
a(I3
g129
tp390
a(I0
g136
tp391
a(I1
g134
tp392
a(I2
g127
tp393
a(I3
g131
tp394
a(I0
g136
tp395
a(I1
g134
tp396
a(I2
g129
tp397
a(I3
g127
tp398
a(I0
g129
tp399
a(I1
g127
tp400
a(I2
g129
tp401
a(I3
g129
tp402
a(I0
g136
tp403
a(I1
g131
tp404
a(I2
g129
tp405
a(I3
g131
tp406
a(I0
g136
tp407
a(I1
g129
tp408
a(I2
g127
tp409
a(I3
g136
tp410
a(I0
g127
tp411
a(I1
g134
tp412
a(I2
g129
tp413
a(I3
g134
tp414
a(I0
g136
tp415
a(I1
g131
tp416
a(I2
g127
tp417
a(I3
g136
tp418
a(I0
g136
tp419
a(I1
g136
tp420
a(I2
g129
tp421
a(I3
g131
tp422
a(I0
g127
tp423
a(I1
g131
tp424
a(I2
g127
tp425
a(I3
g134
tp426
a(I0
g127
tp427
a(I1
g136
tp428
a(I2
g129
tp429
a(I3
g131
tp430
a(I0
g134
tp431
a(I1
g136
tp432
a(I2
g127
tp433
a(I3
g131
tp434
a(I0
g134
tp435
a(I1
g134
tp436
a(I2
g129
tp437
a(I3
g136
tp438
a(I0
g134
tp439
a(I1
g136
tp440
a(I2
g127
tp441
a(I3
g134
tp442
a(I0
g134
tp443
a(I1
g134
tp444
a(I2
g129
tp445
a(I3
g136
tp446
a(I0
g127
tp447
a(I1
g134
tp448
a(I2
g127
tp449
a(I3
g131
tp450
a(I0
g127
tp451
a(I1
g131
tp452
a(I2
g129
tp453
a(I3
g136
tp454
a(I0
g127
tp455
a(I1
g136
tp456
a(I2
g129
tp457
a(I3
g127
tp458
a(I0
g134
tp459
a(I1
g136
tp460
a(I2
g134
tp461
a(I3
g129
tp462
a(I0
g134
tp463
a(I1
g131
tp464
a(I2
g134
tp465
a(I3
g134
tp466
a(I0
g136
tp467
a(I1
g127
tp468
a(I2
g136
tp469
a(I3
g136
tp470
a(I0
g134
tp471
a(I1
g129
tp472
a(I2
g134
tp473
a(I3
g131
tp474
a(I0
g136
tp475
a(I1
g131
tp476
a(I2
g136
tp477
a(I3
g134
tp478
a(I0
g134
tp479
a(I1
g134
tp480
a(I2
g134
tp481
a(I3
g134
tp482
a(I0
g129
tp483
a(I1
g131
tp484
a(I2
g136
tp485
a(I3
g136
tp486
a(I0
g129
tp487
a(I1
g127
tp488
a(I2
g134
tp489
a(I3
g134
tp490
a(I0
g129
tp491
a(I1
g131
tp492
a(I2
g134
tp493
a(I3
g131
tp494
a(I0
g134
tp495
a(I1
g134
tp496
a(I2
g136
tp497
a(I3
g134
tp498
a(I0
g136
tp499
a(I1
g129
tp500
a(I2
g136
tp501
a(I3
g136
tp502
a(I0
g127
tp503
a(I1
g134
tp504
a(I2
g129
tp505
a(I3
g136
tp506
a(I0
g127
tp507
a(I1
g127
tp508
a(I2
g127
tp509
a(I3
g134
tp510
a(I0
g127
tp511
a(I1
g129
tp512
a(I2
g129
tp513
a(I3
g127
tp514
a(I0
g136
tp515
a(I1
g136
tp516
a(I2
g127
tp517
a(I3
g131
tp518
a(I0
g136
tp519
a(I1
g127
tp520
a(I2
g134
tp521
a(I3
g129
tp522
a(I0
g136
tp523
a(I1
g127
tp524
a(I2
g134
tp525
a(I3
g134
tp526
a(I0
g136
tp527
a(I1
g127
tp528
a(I2
g136
tp529
a(I3
g134
tp530
a(I0
g129
tp531
a(I1
g129
tp532
a(I2
g134
tp533
a(I3
g131
tp534
a(I0
g127
tp535
a(I1
g131
tp536
a(I2
g136
tp537
a(I3
g131
tp538
a(I0
g136
tp539
a(I1
g129
tp540
a(I2
g136
tp541
a(I3
g131
tp542
a(I0
g136
tp543
a(I1
g134
tp544
a(I2
g134
tp545
a(I3
g134
tp546
a(I0
g129
tp547
a(I1
g136
tp548
a(I2
g136
tp549
a(I3
g136
tp550
a(I0
g127
tp551
a(I1
g127
tp552
a(I2
g134
tp553
a(I3
g131
tp554
a(I0
g134
tp555
a(I1
g131
tp556
a(I2
g134
tp557
a(I3
g131
tp558
a(I0
g134
tp559
a(I1
g129
tp560
a(I2
g127
tp561
a(I3
g131
tp562
a(I0
g134
tp563
a(I1
g127
tp564
a(I2
g129
tp565
a(I3
g134
tp566
a(I0
g134
tp567
a(I1
g129
tp568
a(I2
g136
tp569
a(I3
g127
tp570
a(I0
g134
tp571
a(I1
g129
tp572
a(I2
g136
tp573
a(I3
g129
tp574
a(I0
g134
tp575
a(I1
g131
tp576
a(I2
g127
tp577
a(I3
g136
tp578
a(I0
g134
tp579
a(I1
g136
tp580
a(I2
g129
tp581
a(I3
g136
tp582
a(I0
g127
tp583
a(I1
g136
tp584
a(I2
g127
tp585
a(I3
g127
tp586
a(I0
g134
tp587
a(I1
g127
tp588
a(I2
g129
tp589
a(I3
g131
tp590
a(I0
g134
tp591
a(I1
g129
tp592
a(I2
g127
tp593
a(I3
g131
tp594
a(I0
g127
tp595
a(I1
g131
tp596
a(I2
g129
tp597
a(I3
g131
tp598
a(I0
g127
tp599
a(I1
g127
tp600
a(I2
g129
tp601
a(I3
g136
tp602
a(I0
g127
tp603
a(I1
g134
tp604
a(I2
g127
tp605
a(I3
g131
tp606
a(I0
g127
tp607
a(I1
g136
tp608
a(I2
g134
tp609
a(I3
g129
tp610
a(I0
g127
tp611
a(I1
g129
tp612
a(I2
g136
tp613
a(I3
g127
tp614
a(I0
g129
tp615
a(I1
g131
tp616
a(I2
g134
tp617
a(I3
g136
tp618
a(I0
g129
tp619
a(I1
g127
tp620
a(I2
g136
tp621
a(I3
g129
tp622
a(I0
g129
tp623
a(I1
g131
tp624
a(I2
g129
tp625
a(I3
g134
tp626
a(I0
g129
tp627
a(I1
g134
tp628
a(I2
g127
tp629
a(I3
g131
tp630
a(I0
g129
tp631
a(I1
g134
tp632
a(I2
g134
tp633
a(I3
g127
tp634
a(I0
g136
tp635
a(I1
g134
tp636
a(I2
g136
tp637
a(I3
g127
tp638
a(I0
g136
tp639
a(I1
g129
tp640
a(I2
g134
tp641
a(I3
g127
tp642
a(I0
g127
tp643
a(I1
g136
tp644
a(I2
g134
tp645
a(I3
g136
tp646
a(I0
g127
tp647
a(I1
g136
tp648
a(I2
g136
tp649
a(I3
g134
tp650
a(I0
g136
tp651
a(I1
g131
tp652
a(I2
g136
tp653
a(I3
g127
tp654
a(I0
g136
tp655
a(I1
g136
tp656
a(I2
g129
tp657
a(I3
g131
tp658
a(I0
g136
tp659
a(I1
g131
tp660
a(I2
g136
tp661
a(I3
g136
tp662
a(I0
g136
tp663
a(I1
g134
tp664
a(I2
g127
tp665
a(I3
g131
tp666
a(I0
g129
tp667
a(I1
g127
tp668
a(I2
g129
tp669
a(I3
g136
tp670
a(I0
g136
tp671
a(I1
g131
tp672
a(I2
g136
tp673
a(I3
g129
tp674
a(I0
g136
tp675
a(I1
g131
tp676
a(I2
g129
tp677
a(I3
g134
tp678
a(I0
g127
tp679
a(I1
g131
tp680
a(I2
g129
tp681
a(I3
g127
tp682
a(I0
g136
tp683
a(I1
g134
tp684
a(I2
g129
tp685
a(I3
g127
tp686
a(I0
g127
tp687
a(I1
g131
tp688
a(I2
g134
tp689
a(I3
g131
tp690
a(I0
g127
tp691
a(I1
g134
tp692
a(I2
g129
tp693
a(I3
g127
tp694
a(I0
g127
tp695
a(I1
g129
tp696
a(I2
g129
tp697
a(I3
g129
tp698
a(I0
g129
tp699
a(I1
g127
tp700
a(I2
g129
tp701
a(I3
g129
tp702
a(I0
g129
tp703
a(I1
g129
tp704
a(I2
g129
tp705
a(I3
g134
tp706
a(I0
g129
tp707
a(I1
g127
tp708
a(I2
g129
tp709
a(I3
g129
tp710
a(I0
g136
tp711
a(I1
g136
tp712
a(I2
g129
tp713
a(I3
g129
tp714
a(I0
g136
tp715
a(I1
g131
tp716
a(I2
g129
tp717
a(I3
g129
tp718
a(I0
g129
tp719
a(I1
g127
tp720
a(I2
g129
tp721
a(I3
g134
tp722
a(I0
g136
tp723
a(I1
g131
tp724
a(I2
g129
tp725
a(I3
g129
tp726
a(I0
g129
tp727
a(I1
g129
tp728
a(I2
g136
tp729
a(I3
g136
tp730
a(I0
g129
tp731
a(I1
g134
tp732
a(I2
g136
tp733
a(I3
g134
tp734
a(I0
g134
tp735
a(I1
g129
tp736
a(I2
g129
tp737
a(I3
g131
tp738
a(I0
g129
tp739
a(I1
g131
tp740
a(I2
g129
tp741
a(I3
g136
tp742
a(I0
g129
tp743
a(I1
g136
tp744
a(I2
g136
tp745
a(I3
g134
tp746
a(I0
g136
tp747
a(I1
g136
tp748
a(I2
g129
tp749
a(I3
g127
tp750
a(I0
g129
tp751
a(I1
g127
tp752
a(I2
g136
tp753
a(I3
g136
tp754
a(I0
g129
tp755
a(I1
g136
tp756
a(I2
g136
tp757
a(I3
g129
tp758
a(I0
g134
tp759
a(I1
g131
tp760
a(I2
g136
tp761
a(I3
g127
tp762
a(I0
g136
tp763
a(I1
g129
tp764
a(I2
g136
tp765
a(I3
g129
tp766
a(I0
g127
tp767
a(I1
g131
tp768
a(I2
g136
tp769
a(I3
g127
tp770
a(I0
g127
tp771
a(I1
g131
tp772
a(I2
g129
tp773
a(I3
g127
tp774
a(I0
g134
tp775
a(I1
g131
tp776
a(I2
g129
tp777
a(I3
g129
tp778
a(I0
g127
tp779
a(I1
g127
tp780
a(I2
g136
tp781
a(I3
g127
tp782
a(I0
g127
tp783
a(I1
g131
tp784
a(I2
g136
tp785
a(I3
g131
tp786
a(I0
g136
tp787
a(I1
g129
tp788
a(I2
g136
tp789
a(I3
g131
tp790
a(I0
g127
tp791
a(I1
g134
tp792
a(I2
g136
tp793
a(I3
g129
tp794
a(I0
g127
tp795
a(I1
g131
tp796
a(I2
g136
tp797
a(I3
g127
tp798
a(I0
g127
tp799
a(I1
g134
tp800
a(I2
g129
tp801
a(I3
g127
tp802
a(I0
g136
tp803
a(I1
g134
tp804
a(I2
g129
tp805
a(I3
g131
tp806
a(I0
g136
tp807
a(I1
g136
tp808
a(I2
g129
tp809
a(I3
g134
tp810
a(I0
g136
tp811
a(I1
g134
tp812
a(I2
g129
tp813
a(I3
g131
tp814
a(I0
g127
tp815
a(I1
g136
tp816
a(I2
g129
tp817
a(I3
g134
tp818
a(I0
g127
tp819
a(I1
g131
tp820
a(I2
g129
tp821
a(I3
g136
tp822
a(I0
g127
tp823
a(I1
g136
tp824
a(I2
g129
tp825
a(I3
g134
tp826
a(I0
g129
tp827
a(I1
g134
tp828
a(I2
g129
tp829
a(I3
g136
tp830
a(I0
g129
tp831
a(I1
g131
tp832
a(I2
g129
tp833
a(I3
g136
tp834
a(I0
g129
tp835
a(I1
g131
tp836
a(I2
g127
tp837
a(I3
g131
tp838
a(I0
g134
tp839
a(I1
g131
tp840
a(I2
g129
tp841
a(I3
g127
tp842
a(I0
g129
tp843
a(I1
g134
tp844
a(I2
g129
tp845
a(I3
g129
tp846
a(I0
g129
tp847
a(I1
g134
tp848
a(I2
g127
tp849
a(I3
g131
tp850
a(I0
g129
tp851
a(I1
g131
tp852
a(I2
g127
tp853
a(I3
g134
tp854
a(I0
g129
tp855
a(I1
g136
tp856
a(I2
g129
tp857
a(I3
g134
tp858
a(I0
g129
tp859
a(I1
g136
tp860
a(I2
g134
tp861
a(I3
g136
tp862
a(I0
g129
tp863
a(I1
g136
tp864
a(I2
g136
tp865
a(I3
g131
tp866
a(I0
g129
tp867
a(I1
g131
tp868
a(I2
g129
tp869
a(I3
g131
tp870
a(I0
g129
tp871
a(I1
g131
tp872
a(I2
g127
tp873
a(I3
g131
tp874
a(I0
g129
tp875
a(I1
g127
tp876
a(I2
g129
tp877
a(I3
g134
tp878
a(I0
g129
tp879
a(I1
g136
tp880
a(I2
g134
tp881
a(I3
g127
tp882
a(I0
g134
tp883
a(I1
g134
tp884
a(I2
g134
tp885
a(I3
g131
tp886
a(I0
g129
tp887
a(I1
g129
tp888
a(I2
g136
tp889
a(I3
g129
tp890
a(I0
g127
tp891
a(I1
g136
tp892
a(I2
g129
tp893
a(I3
g131
tp894
a(I0
g129
tp895
a(I1
g131
tp896
a(I2
g129
tp897
a(I3
g127
tp898
a(I0
g127
tp899
a(I1
g131
tp900
a(I2
g129
tp901
a(I3
g129
tp902
a(I0
g129
tp903
a(I1
g134
tp904
a(I2
g134
tp905
a(I3
g136
tp906
a(I0
g129
tp907
a(I1
g134
tp908
a(I2
g134
tp909
a(I3
g134
tp910
a(I0
g127
tp911
a(I1
g127
tp912
a(I2
g134
tp913
a(I3
g127
tp914
a(I0
g127
tp915
a(I1
g136
tp916
a(I2
g127
tp917
a(I3
g131
tp918
a(I0
g134
tp919
a(I1
g131
tp920
a(I2
g134
tp921
a(I3
g131
tp922
a(I0
g136
tp923
a(I1
g136
tp924
a(I2
g134
tp925
a(I3
g129
tp926
a(I0
g127
tp927
a(I1
g134
tp928
a(I2
g129
tp929
a(I3
g136
tp930
a(I0
g136
tp931
a(I1
g131
tp932
a(I2
g134
tp933
a(I3
g131
tp934
a(I0
g127
tp935
a(I1
g136
tp936
a(I2
g134
tp937
a(I3
g136
tp938
a(I0
g129
tp939
a(I1
g134
tp940
a(I2
g134
tp941
a(I3
g127
tp942
a(I0
g129
tp943
a(I1
g131
tp944
a(I2
g134
tp945
a(I3
g129
tp946
a(I0
g127
tp947
a(I1
g129
tp948
a(I2
g134
tp949
a(I3
g129
tp950
a(I0
g127
tp951
a(I1
g131
tp952
a(I2
g127
tp953
a(I3
g129
tp954
a(I0
g127
tp955
a(I1
g131
tp956
a(I2
g134
tp957
a(I3
g134
tp958
a(I0
g127
tp959
a(I1
g136
tp960
a(I2
g134
tp961
a(I3
g131
tp962
a(I0
g127
tp963
a(I1
g131
tp964
a(I2
g127
tp965
a(I3
g136
tp966
a(I0
g127
tp967
a(I1
g127
tp968
a(I2
g127
tp969
a(I3
g131
tp970
a(I0
g127
tp971
a(I1
g129
tp972
a(I2
g136
tp973
a(I3
g131
tp974
a(I0
g127
tp975
a(I1
g134
tp976
a(I2
g136
tp977
a(I3
g127
tp978
a(I0
g127
tp979
a(I1
g131
tp980
a(I2
g136
tp981
a(I3
g127
tp982
a(I0
g127
tp983
a(I1
g136
tp984
a(I2
g136
tp985
a(I3
g131
tp986
a(I0
g134
tp987
a(I1
g134
tp988
a(I2
g127
tp989
a(I3
g131
tp990
a(I0
g134
tp991
a(I1
g131
tp992
a(I2
g136
tp993
a(I3
g127
tp994
a(I0
g127
tp995
a(I1
g127
tp996
a(I2
g136
tp997
a(I3
g129
tp998
a(I0
g127
tp999
a(I1
g134
tp1000
a(I2
g127
tp1001
a(I3
g136
tp1002
a(I0
g134
tp1003
a(I1
g127
tp1004
a(I2
g136
tp1005
a(I3
g131
tp1006
a(I0
g127
tp1007
a(I1
g131
tp1008
a(I2
g136
tp1009
a(I3
g136
tp1010
a(I0
g134
tp1011
a(I1
g129
tp1012
a(I2
g127
tp1013
a(I3
g131
tp1014
a(I0
g134
tp1015
a(I1
g127
tp1016
a(I2
g127
tp1017
a(I3
g127
tp1018
a(I0
g134
tp1019
a(I1
g131
tp1020
a(I2
g134
tp1021
a(I3
g131
tp1022
a(I0
g134
tp1023
a(I1
g129
tp1024
a(I2
g134
tp1025
a(I3
g134
tp1026
a(I0
g134
tp1027
a(I1
g127
tp1028
a(I2
g134
tp1029
a(I3
g136
tp1030
a(I0
g127
tp1031
a(I1
g129
tp1032
a(I2
g134
tp1033
a(I3
g131
tp1034
a(I0
g127
tp1035
a(I1
g129
tp1036
a(I2
g127
tp1037
a(I3
g134
tp1038
a(I0
g134
tp1039
a(I1
g127
tp1040
a(I2
g127
tp1041
a(I3
g129
tp1042
a(I0
g134
tp1043
a(I1
g136
tp1044
a(I2
g127
tp1045
a(I3
g134
tp1046
a(I0
g134
tp1047
a(I1
g129
tp1048
a(I2
g134
tp1049
a(I3
g134
tp1050
a(I0
g134
tp1051
a(I1
g134
tp1052
a(I2
g134
tp1053
a(I3
g134
tp1054
a(I0
g134
tp1055
a(I1
g136
tp1056
a(I2
g134
tp1057
a(I3
g131
tp1058
a(I0
g127
tp1059
a(I1
g127
tp1060
a(I2
g127
tp1061
a(I3
g127
tp1062
a(I0
g127
tp1063
a(I1
g131
tp1064
a(I2
g134
tp1065
a(I3
g131
tp1066
a(I0
g127
tp1067
a(I1
g129
tp1068
a(I2
g134
tp1069
a(I3
g129
tp1070
a(I0
g127
tp1071
a(I1
g134
tp1072
a(I2
g127
tp1073
a(I3
g131
tp1074
a(I0
g127
tp1075
a(I1
g136
tp1076
a(I2
g127
tp1077
a(I3
g131
tp1078
a(I0
g127
tp1079
a(I1
g134
tp1080
a(I2
g127
tp1081
a(I3
g131
tp1082
a(I0
g127
tp1083
a(I1
g127
tp1084
a(I2
g127
tp1085
a(I3
g136
tp1086
a(I0
g127
tp1087
a(I1
g127
tp1088
a(I2
g127
tp1089
asS'length'
p1090
I1200
sS'agents'
p1091
(lp1092
(igame
Agent
p1093
(dp1094
S'index'
p1095
I0
sba(igame
Agent
p1096
(dp1097
g1095
I0
sba(igame
Agent
p1098
(dp1099
g1095
I0
sba(igame
Agent
p1100
(dp1101
g1095
I0
sbasS'redTeamName'
p1102
S'Red'
p1103
s.