(dp1
S'layout'
p2
(ilayout
Layout
p3
(dp4
S'capsules'
p5
(lp6
(I8
I8
tp7
a(I28
I8
tp8
a(I5
I9
tp9
a(I25
I9
tp10
asS'numGhosts'
p11
I4
sS'food'
p12
(igame
Grid
p13
(dp14
S'CELLS_PER_INT'
p15
I30
sS'width'
p16
I34
sS'data'
p17
(lp18
(lp19
I00
aI00
aI00
aI00
aI00
aI00
aI00
aI00
aI00
aI00
aI00
aI00
aI00
aI00
aI00
aI00
aI00
aI00
aa(lp20
I00
aI00
aI00
aI00
aI00
aI01
aI00
aI00
aI00
aI00
aI00
aI00
aI00
aI00
aI00
aI00
aI01
aI00
aa(lp21
I00
aI00
aI00
aI00
aI00
aI00
aI00
aI00
aI00
aI00
aI00
aI00
aI00
aI01
aI00
aI00
aI00
aI00
aa(lp22
I00
aI00
aI00
aI00
aI00
aI00
aI00
aI00
aI00
aI00
aI00
aI00
aI00
aI00
aI00
aI00
aI00
aI00
aa(lp23
I00
aI00
aI00
aI00
aI00
aI01
aI00
aI01
aI00
aI01
aI00
aI00
aI00
aI00
aI00
aI00
aI00
aI00
aa(lp24
I00
aI00
aI00
aI00
aI00
aI01
aI00
aI00
aI00
aI00
aI00
aI00
aI00
aI00
aI00
aI00
aI00
aI00
aa(lp25
I00
aI00
aI00
aI00
aI00
aI00
aI00
aI00
aI00
aI00
aI00
aI01
aI00
aI00
aI00
aI01
aI01
aI00
aa(lp26
I00
aI00
aI00
aI00
aI01
aI01
aI00
aI01
aI00
aI00
aI00
aI00
aI00
aI00
aI00
aI00
aI00
aI00
aa(lp27
I00
aI00
aI00
aI00
aI00
aI00
aI00
aI00
aI00
aI00
aI00
aI00
aI00
aI01
aI01
aI00
aI01
aI00
aa(lp28
I00
aI00
aI01
aI00
aI00
aI00
aI00
aI00
aI00
aI00
aI00
aI00
aI00
aI00
aI00
aI00
aI01
aI00
aa(lp29
I00
aI01
aI00
aI00
aI00
aI00
aI00
aI01
aI00
aI01
aI00
aI00
aI00
aI00
aI01
aI00
aI00
aI00
aa(lp30
I00
aI00
aI00
aI00
aI00
aI00
aI00
aI01
aI00
aI00
aI00
aI00
aI01
aI00
aI00
aI00
aI00
aI00
aa(lp31
I00
aI01
aI01
aI00
aI00
aI00
aI00
aI00
aI00
aI00
aI00
aI00
aI00
aI00
aI00
aI00
aI00
aI00
aa(lp32
I00
aI00
aI01
aI00
aI00
aI00
aI00
aI00
aI01
aI00
aI00
aI00
aI00
aI00
aI00
aI00
aI00
aI00
aa(lp33
I00
aI01
aI00
aI00
aI00
aI00
aI01
aI00
aI00
aI00
aI00
aI00
aI00
aI00
aI00
aI00
aI00
aI00
aa(lp34
I00
aI00
aI00
aI00
aI00
aI00
aI00
aI00
aI00
aI00
aI00
aI00
aI00
aI00
aI00
aI00
aI00
aI00
aa(lp35
I00
aI00
aI00
aI00
aI00
aI00
aI00
aI00
aI00
aI00
aI00
aI00
aI00
aI00
aI00
aI00
aI00
aI00
aa(lp36
I00
aI00
aI00
aI00
aI00
aI00
aI00
aI00
aI00
aI00
aI00
aI00
aI00
aI00
aI00
aI00
aI00
aI00
aa(lp37
I00
aI00
aI00
aI00
aI00
aI00
aI00
aI00
aI00
aI00
aI00
aI00
aI00
aI00
aI00
aI00
aI00
aI00
aa(lp38
I00
aI00
aI00
aI00
aI00
aI00
aI00
aI00
aI00
aI00
aI00
aI01
aI00
aI00
aI00
aI00
aI01
aI00
aa(lp39
I00
aI00
aI00
aI00
aI00
aI00
aI00
aI00
aI00
aI01
aI00
aI00
aI00
aI00
aI00
aI01
aI00
aI00
aa(lp40
I00
aI00
aI00
aI00
aI00
aI00
aI00
aI00
aI00
aI00
aI00
aI00
aI00
aI00
aI00
aI01
aI01
aI00
aa(lp41
I00
aI00
aI00
aI00
aI00
aI01
aI00
aI00
aI00
aI00
aI01
aI00
aI00
aI00
aI00
aI00
aI00
aI00
aa(lp42
I00
aI00
aI00
aI01
aI00
aI00
aI00
aI00
aI01
aI00
aI01
aI00
aI00
aI00
aI00
aI00
aI01
aI00
aa(lp43
I00
aI01
aI00
aI00
aI00
aI00
aI00
aI00
aI00
aI00
aI00
aI00
aI00
aI00
aI00
aI01
aI00
aI00
aa(lp44
I00
aI01
aI00
aI01
aI01
aI00
aI00
aI00
aI00
aI00
aI00
aI00
aI00
aI00
aI00
aI00
aI00
aI00
aa(lp45
I00
aI00
aI00
aI00
aI00
aI00
aI00
aI00
aI00
aI00
aI01
aI00
aI01
aI01
aI00
aI00
aI00
aI00
aa(lp46
I00
aI01
aI01
aI00
aI00
aI00
aI01
aI00
aI00
aI00
aI00
aI00
aI00
aI00
aI00
aI00
aI00
aI00
aa(lp47
I00
aI00
aI00
aI00
aI00
aI00
aI00
aI00
aI00
aI00
aI00
aI00
aI01
aI00
aI00
aI00
aI00
aI00
aa(lp48
I00
aI00
aI00
aI00
aI00
aI00
aI00
aI00
aI01
aI00
aI01
aI00
aI01
aI00
aI00
aI00
aI00
aI00
aa(lp49
I00
aI00
aI00
aI00
aI00
aI00
aI00
aI00
aI00
aI00
aI00
aI00
aI00
aI00
aI00
aI00
aI00
aI00
aa(lp50
I00
aI00
aI00
aI00
aI01
aI00
aI00
aI00
aI00
aI00
aI00
aI00
aI00
aI00
aI00
aI00
aI00
aI00
aa(lp51
I00
aI01
aI00
aI00
aI00
aI00
aI00
aI00
aI00
aI00
aI00
aI00
aI01
aI00
aI00
aI00
aI00
aI00
aa(lp52
I00
aI00
aI00
aI00
aI00
aI00
aI00
aI00
aI00
aI00
aI00
aI00
aI00
aI00
aI00
aI00
aI00
aI00
aasS'height'
p53
I18
sbsS'agentPositions'
p54
(lp55
(I00
(I1
I2
tp56
tp57
a(I00
(I32
I15
tp58
tp59
a(I00
(I1
I1
tp60
tp61
a(I00
(I32
I16
tp62
tp63
asg53
I18
sg16
I34
sS'walls'
p64
(igame
Grid
p65
(dp66
g15
I30
sg16
I34
sg17
(lp67
(lp68
I01
aI01
aI01
aI01
aI01
aI01
aI01
aI01
aI01
aI01
aI01
aI01
aI01
aI01
aI01
aI01
aI01
aI01
aa(lp69
I01
aI00
aI00
aI00
aI00
aI00
aI00
aI01
aI00
aI00
aI00
aI00
aI00
aI00
aI00
aI00
aI00
aI01
aa(lp70
I01
aI00
aI00
aI00
aI00
aI01
aI00
aI00
aI00
aI01
aI00
aI00
aI01
aI00
aI00
aI00
aI00
aI01
aa(lp71
I01
aI01
aI01
aI00
aI01
aI01
aI01
aI01
aI01
aI01
aI01
aI01
aI01
aI01
aI01
aI00
aI00
aI01
aa(lp72
I01
aI00
aI00
aI00
aI00
aI00
aI01
aI00
aI00
aI00
aI01
aI00
aI00
aI00
aI00
aI00
aI00
aI01
aa(lp73
I01
aI00
aI00
aI00
aI01
aI00
aI01
aI01
aI00
aI00
aI00
aI00
aI01
aI01
aI00
aI01
aI01
aI01
aa(lp74
I01
aI01
aI00
aI01
aI01
aI01
aI01
aI00
aI00
aI00
aI01
aI00
aI00
aI00
aI00
aI00
aI00
aI01
aa(lp75
I01
aI00
aI00
aI01
aI00
aI00
aI01
aI00
aI01
aI01
aI01
aI01
aI01
aI01
aI01
aI01
aI01
aI01
aa(lp76
I01
aI00
aI00
aI01
aI00
aI01
aI01
aI00
aI00
aI00
aI00
aI00
aI00
aI00
aI00
aI01
aI00
aI01
aa(lp77
I01
aI01
aI00
aI01
aI00
aI00
aI01
aI01
aI01
aI01
aI01
aI00
aI01
aI00
aI01
aI01
aI00
aI01
aa(lp78
I01
aI00
aI00
aI01
aI01
aI00
aI01
aI00
aI01
aI00
aI01
aI00
aI01
aI00
aI00
aI01
aI00
aI01
aa(lp79
I01
aI01
aI00
aI01
aI00
aI00
aI01
aI00
aI00
aI00
aI00
aI00
aI00
aI00
aI00
aI01
aI00
aI01
aa(lp80
I01
aI00
aI00
aI01
aI00
aI01
aI01
aI01
aI01
aI01
aI01
aI01
aI00
aI01
aI00
aI00
aI00
aI01
aa(lp81
I01
aI01
aI00
aI01
aI00
aI00
aI01
aI00
aI00
aI00
aI00
aI01
aI00
aI01
aI00
aI01
aI00
aI01
aa(lp82
I01
aI00
aI00
aI00
aI00
aI00
aI00
aI00
aI00
aI01
aI00
aI00
aI00
aI00
aI00
aI01
aI00
aI01
aa(lp83
I01
aI00
aI01
aI01
aI00
aI00
aI01
aI00
aI01
aI01
aI01
aI01
aI01
aI01
aI00
aI01
aI00
aI01
aa(lp84
I01
aI00
aI00
aI01
aI00
aI00
aI01
aI00
aI00
aI00
aI00
aI00
aI00
aI01
aI00
aI01
aI00
aI01
aa(lp85
I01
aI00
aI01
aI00
aI01
aI00
aI00
aI00
aI00
aI00
aI00
aI01
aI00
aI00
aI01
aI00
aI00
aI01
aa(lp86
I01
aI00
aI01
aI00
aI01
aI01
aI01
aI01
aI01
aI01
aI00
aI01
aI00
aI00
aI01
aI01
aI00
aI01
aa(lp87
I01
aI00
aI01
aI00
aI00
aI00
aI00
aI00
aI01
aI00
aI00
aI00
aI00
aI00
aI00
aI00
aI00
aI01
aa(lp88
I01
aI00
aI01
aI00
aI01
aI00
aI01
aI00
aI00
aI00
aI00
aI01
aI00
aI00
aI01
aI00
aI01
aI01
aa(lp89
I01
aI00
aI00
aI00
aI01
aI00
aI01
aI01
aI01
aI01
aI01
aI01
aI01
aI00
aI01
aI00
aI00
aI01
aa(lp90
I01
aI00
aI01
aI00
aI00
aI00
aI00
aI00
aI00
aI00
aI00
aI01
aI00
aI00
aI01
aI00
aI01
aI01
aa(lp91
I01
aI00
aI01
aI00
aI00
aI01
aI00
aI01
aI00
aI01
aI00
aI01
aI00
aI01
aI01
aI00
aI00
aI01
aa(lp92
I01
aI00
aI01
aI01
aI00
aI01
aI00
aI01
aI01
aI01
aI01
aI01
aI00
aI00
aI01
aI00
aI01
aI01
aa(lp93
I01
aI00
aI01
aI00
aI00
aI00
aI00
aI00
aI00
aI00
aI00
aI01
aI01
aI00
aI01
aI00
aI00
aI01
aa(lp94
I01
aI01
aI01
aI01
aI01
aI01
aI01
aI01
aI01
aI01
aI00
aI01
aI00
aI00
aI01
aI00
aI00
aI01
aa(lp95
I01
aI00
aI00
aI00
aI00
aI00
aI00
aI01
aI00
aI00
aI00
aI01
aI01
aI01
aI01
aI00
aI01
aI01
aa(lp96
I01
aI01
aI01
aI00
aI01
aI01
aI00
aI00
aI00
aI00
aI01
aI01
aI00
aI01
aI00
aI00
aI00
aI01
aa(lp97
I01
aI00
aI00
aI00
aI00
aI00
aI00
aI01
aI00
aI00
aI00
aI01
aI00
aI00
aI00
aI00
aI00
aI01
aa(lp98
I01
aI00
aI00
aI01
aI01
aI01
aI01
aI01
aI01
aI01
aI01
aI01
aI01
aI01
aI00
aI01
aI01
aI01
aa(lp99
I01
aI00
aI00
aI00
aI00
aI01
aI00
aI00
aI01
aI00
aI00
aI00
aI01
aI00
aI00
aI00
aI00
aI01
aa(lp100
I01
aI00
aI00
aI00
aI00
aI00
aI00
aI00
aI00
aI00
aI01
aI00
aI00
aI00
aI00
aI00
aI00
aI01
aa(lp101
I01
aI01
aI01
aI01
aI01
aI01
aI01
aI01
aI01
aI01
aI01
aI01
aI01
aI01
aI01
aI01
aI01
aI01
aasg53
I18
sbsS'totalFood'
p102
I60
sS'layoutText'
p103
(lp104
S'%%%%%%%%%%%%%%%%%%%%%%%%%%%%%%%%%%'
p105
aS'%.   %.%..         .%.%.%  %  % 4%'
p106
aS'%    %.%%%%% %%%% % ..  .     % 2%'
p107
aS'%  %   %.%.      %% %%%%%%%%     %'
p108
aS'% .% % %.   %% %%      %  .%% %  %'
p109
aS'% %% % % %%.   %     %   %.%..%%.%'
p110
aS'%  %  .%    %% % %%.%%%%%%%%%%%  %'
p111
aS'%  %% %% %% %  %     %..% . %.% %%'
p112
aS'% %%.o % %. % %%  % .% %%o%   %  %'
p113
aS'%  %   %o%% %. %  %% % .% % o.%% %'
p114
aS'%% %.% . %..%     %  % %% %% %%  %'
p115
aS'%  %%%%%%%%%%%.%% % %%    %.  %  %'
p116
aS'%.%%..%.%   %     %   .%% % % %% %'
p117
aS'%  % %%.  %      %% %%   .% % %. %'
p118
aS'%     %%%%%%%% %%      .%.%   %  %'
p119
aS'%1 %     .  .. % %%%% %%%%%.%    %'
p120
aS'%3 %  %  %.%.%.         ..%.%   .%'
p121
aS'%%%%%%%%%%%%%%%%%%%%%%%%%%%%%%%%%%'
p122
asbsS'blueTeamName'
p123
S'Blue'
p124
sS'actions'
p125
(lp126
(I1
S'South'
p127
tp128
a(I2
S'East'
p129
tp130
a(I3
S'West'
p131
tp132
a(I0
g129
tp133
a(I1
g131
tp134
a(I2
S'North'
p135
tp136
a(I3
g127
tp137
a(I0
g135
tp138
a(I1
g131
tp139
a(I2
g135
tp140
a(I3
g127
tp141
a(I0
g129
tp142
a(I1
g131
tp143
a(I2
g129
tp144
a(I3
g131
tp145
a(I0
g129
tp146
a(I1
g135
tp147
a(I2
g129
tp148
a(I3
g131
tp149
a(I0
g129
tp150
a(I1
g131
tp151
a(I2
g129
tp152
a(I3
g135
tp153
a(I0
g127
tp154
a(I1
g131
tp155
a(I2
g127
tp156
a(I3
g131
tp157
a(I0
g129
tp158
a(I1
g131
tp159
a(I2
g129
tp160
a(I3
g131
tp161
a(I0
g129
tp162
a(I1
g131
tp163
a(I2
g129
tp164
a(I3
g131
tp165
a(I0
g129
tp166
a(I1
g131
tp167
a(I2
g129
tp168
a(I3
g131
tp169
a(I0
g129
tp170
a(I1
g131
tp171
a(I2
g129
tp172
a(I3
g131
tp173
a(I0
g129
tp174
a(I1
g131
tp175
a(I2
g129
tp176
a(I3
g131
tp177
a(I0
g129
tp178
a(I1
g131
tp179
a(I2
g129
tp180
a(I3
g131
tp181
a(I0
g129
tp182
a(I1
g131
tp183
a(I2
g129
tp184
a(I3
g131
tp185
a(I0
g129
tp186
a(I1
g131
tp187
a(I2
g129
tp188
a(I3
g131
tp189
a(I0
g129
tp190
a(I1
g135
tp191
a(I2
g129
tp192
a(I3
g131
tp193
a(I0
g127
tp194
a(I1
g131
tp195
a(I2
g127
tp196
a(I3
g135
tp197
a(I0
g129
tp198
a(I1
g129
tp199
a(I2
g129
tp200
a(I3
g131
tp201
a(I0
g129
tp202
a(I1
g131
tp203
a(I2
g129
tp204
a(I3
g131
tp205
a(I0
g129
tp206
a(I1
g129
tp207
a(I2
g129
tp208
a(I3
g131
tp209
a(I0
g129
tp210
a(I1
g131
tp211
a(I2
g129
tp212
a(I3
g131
tp213
a(I0
g129
tp214
a(I1
g129
tp215
a(I2
g129
tp216
a(I3
g131
tp217
a(I0
g129
tp218
a(I1
g131
tp219
a(I2
g129
tp220
a(I3
g131
tp221
a(I0
g129
tp222
a(I1
g129
tp223
a(I2
g129
tp224
a(I3
g131
tp225
a(I0
g129
tp226
a(I1
g131
tp227
a(I2
g135
tp228
a(I3
g131
tp229
a(I0
g129
tp230
a(I1
g131
tp231
a(I2
g135
tp232
a(I3
g131
tp233
a(I0
g129
tp234
a(I1
g129
tp235
a(I2
g129
tp236
a(I3
g131
tp237
a(I0
g129
tp238
a(I1
g129
tp239
a(I2
g129
tp240
a(I3
g131
tp241
a(I0
g131
tp242
a(I1
g127
tp243
a(I2
g135
tp244
a(I3
g129
tp245
a(I0
g131
tp246
a(I1
g127
tp247
a(I2
g131
tp248
a(I3
g129
tp249
a(I0
g131
tp250
a(I1
g127
tp251
a(I2
g135
tp252
a(I3
g129
tp253
a(I0
g131
tp254
a(I1
g127
tp255
a(I2
g131
tp256
a(I3
g129
tp257
a(I0
g135
tp258
a(I1
g127
tp259
a(I2
g131
tp260
a(I3
g127
tp261
a(I0
g135
tp262
a(I1
g127
tp263
a(I2
g131
tp264
a(I3
g127
tp265
a(I0
g129
tp266
a(I1
g129
tp267
a(I2
g135
tp268
a(I3
g131
tp269
a(I0
g129
tp270
a(I1
g127
tp271
a(I2
g127
tp272
a(I3
g131
tp273
a(I0
g135
tp274
a(I1
g127
tp275
a(I2
g129
tp276
a(I3
g127
tp277
a(I0
g129
tp278
a(I1
g127
tp279
a(I2
g129
tp280
a(I3
g129
tp281
a(I0
g129
tp282
a(I1
g131
tp283
a(I2
g129
tp284
a(I3
g127
tp285
a(I0
g127
tp286
a(I1
g127
tp287
a(I2
g135
tp288
a(I3
g129
tp289
a(I0
g135
tp290
a(I1
g127
tp291
a(I2
g135
tp292
a(I3
g129
tp293
a(I0
g131
tp294
a(I1
g129
tp295
a(I2
g135
tp296
a(I3
g129
tp297
a(I0
g131
tp298
a(I1
g129
tp299
a(I2
g135
tp300
a(I3
g127
tp301
a(I0
g131
tp302
a(I1
g129
tp303
a(I2
g135
tp304
a(I3
g127
tp305
a(I0
g127
tp306
a(I1
g127
tp307
a(I2
g129
tp308
a(I3
g131
tp309
a(I0
g131
tp310
a(I1
g127
tp311
a(I2
g131
tp312
a(I3
g127
tp313
a(I0
g127
tp314
a(I1
g131
tp315
a(I2
g127
tp316
a(I3
g127
tp317
a(I0
g127
tp318
a(I1
g127
tp319
a(I2
g127
tp320
a(I3
g129
tp321
a(I0
g131
tp322
a(I1
g127
tp323
a(I2
g129
tp324
a(I3
g127
tp325
a(I0
g131
tp326
a(I1
g131
tp327
a(I2
g131
tp328
a(I3
g129
tp329
a(I0
g131
tp330
a(I1
g131
tp331
a(I2
g127
tp332
a(I3
g129
tp333
a(I0
g131
tp334
a(I1
g131
tp335
a(I2
g127
tp336
a(I3
g135
tp337
a(I0
g131
tp338
a(I1
g129
tp339
a(I2
g127
tp340
a(I3
g129
tp341
a(I0
g131
tp342
a(I1
g131
tp343
a(I2
g135
tp344
a(I3
g127
tp345
a(I0
g129
tp346
a(I1
g129
tp347
a(I2
g129
tp348
a(I3
g131
tp349
a(I0
g131
tp350
a(I1
g131
tp351
a(I2
g129
tp352
a(I3
g131
tp353
a(I0
g131
tp354
a(I1
g131
tp355
a(I2
g129
tp356
a(I3
g131
tp357
a(I0
g129
tp358
a(I1
g129
tp359
a(I2
g135
tp360
a(I3
g127
tp361
a(I0
g131
tp362
a(I1
g131
tp363
a(I2
g135
tp364
a(I3
g127
tp365
a(I0
g135
tp366
a(I1
g131
tp367
a(I2
g135
tp368
a(I3
g129
tp369
a(I0
g135
tp370
a(I1
g131
tp371
a(I2
g135
tp372
a(I3
g129
tp373
a(I0
g135
tp374
a(I1
g131
tp375
a(I2
g129
tp376
a(I3
g129
tp377
a(I0
g127
tp378
a(I1
g129
tp379
a(I2
g129
tp380
a(I3
g131
tp381
a(I0
g135
tp382
a(I1
g131
tp383
a(I2
g127
tp384
a(I3
g129
tp385
a(I0
g127
tp386
a(I1
g129
tp387
a(I2
g129
tp388
a(I3
g131
tp389
a(I0
g135
tp390
a(I1
g131
tp391
a(I2
g129
tp392
a(I3
g129
tp393
a(I0
g127
tp394
a(I1
g129
tp395
a(I2
g135
tp396
a(I3
g131
tp397
a(I0
g135
tp398
a(I1
g131
tp399
a(I2
g127
tp400
a(I3
g129
tp401
a(I0
g127
tp402
a(I1
g129
tp403
a(I2
g127
tp404
a(I3
g131
tp405
a(I0
g135
tp406
a(I1
g131
tp407
a(I2
g131
tp408
a(I3
g129
tp409
a(I0
g129
tp410
a(I1
g135
tp411
a(I2
g127
tp412
a(I3
g135
tp413
a(I0
g129
tp414
a(I1
g131
tp415
a(I2
g127
tp416
a(I3
g135
tp417
a(I0
g135
tp418
a(I1
g131
tp419
a(I2
g131
tp420
a(I3
g135
tp421
a(I0
g129
tp422
a(I1
g127
tp423
a(I2
g127
tp424
a(I3
g131
tp425
a(I0
g135
tp426
a(I1
g135
tp427
a(I2
g127
tp428
a(I3
g127
tp429
a(I0
g135
tp430
a(I1
g129
tp431
a(I2
g127
tp432
a(I3
g131
tp433
a(I0
g135
tp434
a(I1
g129
tp435
a(I2
g127
tp436
a(I3
g131
tp437
a(I0
g135
tp438
a(I1
g135
tp439
a(I2
g127
tp440
a(I3
g127
tp441
a(I0
g135
tp442
a(I1
g135
tp443
a(I2
g135
tp444
a(I3
g127
tp445
a(I0
g129
tp446
a(I1
g135
tp447
a(I2
g135
tp448
a(I3
g127
tp449
a(I0
g129
tp450
a(I1
g129
tp451
a(I2
g135
tp452
a(I3
g127
tp453
a(I0
g135
tp454
a(I1
g129
tp455
a(I2
g135
tp456
a(I3
g127
tp457
a(I0
g127
tp458
a(I1
g129
tp459
a(I2
g127
tp460
a(I3
g131
tp461
a(I0
g129
tp462
a(I1
g131
tp463
a(I2
g127
tp464
a(I3
g131
tp465
a(I0
g127
tp466
a(I1
g127
tp467
a(I2
g129
tp468
a(I3
g131
tp469
a(I0
g131
tp470
a(I1
g131
tp471
a(I2
g129
tp472
a(I3
g131
tp473
a(I0
g135
tp474
a(I1
g131
tp475
a(I2
g127
tp476
a(I3
g131
tp477
a(I0
g131
tp478
a(I1
g127
tp479
a(I2
g129
tp480
a(I3
g129
tp481
a(I0
g131
tp482
a(I1
g135
tp483
a(I2
g129
tp484
a(I3
g127
tp485
a(I0
g131
tp486
a(I1
g131
tp487
a(I2
g129
tp488
a(I3
g135
tp489
a(I0
g129
tp490
a(I1
g131
tp491
a(I2
g127
tp492
a(I3
g131
tp493
a(I0
g129
tp494
a(I1
g131
tp495
a(I2
g135
tp496
a(I3
g131
tp497
a(I0
g129
tp498
a(I1
g135
tp499
a(I2
g135
tp500
a(I3
g131
tp501
a(I0
g135
tp502
a(I1
g131
tp503
a(I2
g131
tp504
a(I3
g131
tp505
a(I0
g135
tp506
a(I1
g131
tp507
a(I2
g135
tp508
a(I3
g131
tp509
a(I0
g135
tp510
a(I1
g127
tp511
a(I2
g127
tp512
a(I3
g131
tp513
a(I0
g135
tp514
a(I1
g131
tp515
a(I2
g127
tp516
a(I3
g135
tp517
a(I0
g135
tp518
a(I1
g131
tp519
a(I2
g131
tp520
a(I3
g135
tp521
a(I0
g135
tp522
a(I1
g135
tp523
a(I2
g131
tp524
a(I3
g135
tp525
a(I0
g127
tp526
a(I1
g127
tp527
a(I2
g135
tp528
a(I3
g129
tp529
a(I0
g129
tp530
a(I1
g129
tp531
a(I2
g135
tp532
a(I3
g131
tp533
a(I0
g129
tp534
a(I1
g129
tp535
a(I2
g135
tp536
a(I3
g127
tp537
a(I0
g135
tp538
a(I1
g135
tp539
a(I2
g135
tp540
a(I3
g127
tp541
a(I0
g127
tp542
a(I1
g129
tp543
a(I2
g131
tp544
a(I3
g129
tp545
a(I0
g129
tp546
a(I1
g129
tp547
a(I2
g135
tp548
a(I3
g127
tp549
a(I0
g129
tp550
a(I1
g127
tp551
a(I2
g135
tp552
a(I3
g129
tp553
a(I0
g129
tp554
a(I1
g129
tp555
a(I2
g131
tp556
a(I3
g129
tp557
a(I0
g131
tp558
a(I1
g129
tp559
a(I2
g135
tp560
a(I3
g129
tp561
a(I0
g135
tp562
a(I1
g135
tp563
a(I2
g135
tp564
a(I3
g129
tp565
a(I0
g127
tp566
a(I1
g129
tp567
a(I2
g131
tp568
a(I3
g129
tp569
a(I0
g131
tp570
a(I1
g129
tp571
a(I2
g131
tp572
a(I3
g129
tp573
a(I0
g131
tp574
a(I1
g129
tp575
a(I2
g127
tp576
a(I3
g129
tp577
a(I0
g131
tp578
a(I1
g129
tp579
a(I2
g127
tp580
a(I3
g129
tp581
a(I0
g131
tp582
a(I1
g135
tp583
a(I2
g127
tp584
a(I3
g129
tp585
a(I0
g135
tp586
a(I1
g135
tp587
a(I2
g127
tp588
a(I3
g135
tp589
a(I0
g131
tp590
a(I1
g135
tp591
a(I2
g131
tp592
a(I3
g135
tp593
a(I0
g131
tp594
a(I1
g135
tp595
a(I2
g131
tp596
a(I3
g135
tp597
a(I0
g131
tp598
a(I1
g135
tp599
a(I2
g131
tp600
a(I3
g135
tp601
a(I0
g129
tp602
a(I1
g129
tp603
a(I2
g127
tp604
a(I3
g135
tp605
a(I0
g129
tp606
a(I1
g129
tp607
a(I2
g131
tp608
a(I3
g129
tp609
a(I0
g129
tp610
a(I1
g135
tp611
a(I2
g131
tp612
a(I3
g129
tp613
a(I0
g127
tp614
a(I1
g135
tp615
a(I2
g131
tp616
a(I3
g135
tp617
a(I0
g129
tp618
a(I1
g135
tp619
a(I2
g135
tp620
a(I3
g129
tp621
a(I0
g129
tp622
a(I1
g135
tp623
a(I2
g135
tp624
a(I3
g131
tp625
a(I0
g129
tp626
a(I1
g135
tp627
a(I2
g129
tp628
a(I3
g127
tp629
a(I0
g129
tp630
a(I1
g129
tp631
a(I2
g135
tp632
a(I3
g131
tp633
a(I0
g129
tp634
a(I1
g129
tp635
a(I2
g135
tp636
a(I3
g131
tp637
a(I0
g129
tp638
a(I1
g129
tp639
a(I2
g131
tp640
a(I3
g135
tp641
a(I0
g129
tp642
a(I1
g129
tp643
a(I2
g135
tp644
a(I3
g131
tp645
a(I0
g129
tp646
a(I1
g129
tp647
a(I2
g131
tp648
a(I3
g135
tp649
a(I0
g129
tp650
a(I1
g129
tp651
a(I2
g131
tp652
a(I3
g135
tp653
a(I0
g129
tp654
a(I1
g129
tp655
a(I2
g131
tp656
a(I3
g129
tp657
a(I0
g127
tp658
a(I1
g129
tp659
a(I2
g127
tp660
a(I3
g135
tp661
a(I0
g127
tp662
a(I1
g129
tp663
a(I2
g127
tp664
a(I3
g135
tp665
a(I0
g127
tp666
a(I1
g127
tp667
a(I2
g127
tp668
a(I3
g131
tp669
a(I0
g135
tp670
a(I1
g129
tp671
a(I2
g131
tp672
a(I3
g131
tp673
a(I0
g135
tp674
a(I1
g131
tp675
a(I2
g131
tp676
a(I3
g131
tp677
a(I0
g129
tp678
a(I1
g135
tp679
a(I2
g131
tp680
a(I3
g135
tp681
a(I0
g135
tp682
a(I1
g131
tp683
a(I2
g135
tp684
a(I3
g131
tp685
a(I0
g129
tp686
a(I1
g131
tp687
a(I2
g135
tp688
a(I3
g131
tp689
a(I0
g129
tp690
a(I1
g131
tp691
a(I2
g135
tp692
a(I3
g131
tp693
a(I0
g129
tp694
a(I1
g131
tp695
a(I2
g129
tp696
a(I3
g135
tp697
a(I0
g127
tp698
a(I1
g131
tp699
a(I2
g135
tp700
a(I3
g127
tp701
a(I0
g129
tp702
a(I1
g131
tp703
a(I2
g135
tp704
a(I3
g127
tp705
a(I0
g129
tp706
a(I1
g131
tp707
a(I2
g131
tp708
a(I3
g127
tp709
a(I0
g129
tp710
a(I1
g131
tp711
a(I2
g131
tp712
a(I3
g127
tp713
a(I0
g129
tp714
a(I1
g131
tp715
a(I2
g131
tp716
a(I3
g127
tp717
a(I0
g129
tp718
a(I1
g135
tp719
a(I2
g129
tp720
a(I3
g127
tp721
a(I0
g129
tp722
a(I1
g131
tp723
a(I2
g131
tp724
a(I3
g127
tp725
a(I0
g129
tp726
a(I1
g131
tp727
a(I2
g135
tp728
a(I3
g131
tp729
a(I0
g129
tp730
a(I1
g131
tp731
a(I2
g135
tp732
a(I3
g131
tp733
a(I0
g129
tp734
a(I1
g131
tp735
a(I2
g129
tp736
a(I3
g135
tp737
a(I0
g135
tp738
a(I1
g131
tp739
a(I2
g135
tp740
a(I3
g131
tp741
a(I0
g135
tp742
a(I1
g131
tp743
a(I2
g135
tp744
a(I3
g135
tp745
a(I0
g129
tp746
a(I1
g131
tp747
a(I2
g135
tp748
a(I3
g131
tp749
a(I0
g129
tp750
a(I1
g127
tp751
a(I2
g135
tp752
a(I3
g129
tp753
a(I0
g135
tp754
a(I1
g127
tp755
a(I2
g135
tp756
a(I3
g129
tp757
a(I0
g129
tp758
a(I1
g131
tp759
a(I2
g135
tp760
a(I3
g127
tp761
a(I0
g135
tp762
a(I1
g127
tp763
a(I2
g135
tp764
a(I3
g127
tp765
a(I0
g135
tp766
a(I1
g127
tp767
a(I2
g129
tp768
a(I3
g129
tp769
a(I0
g135
tp770
a(I1
g127
tp771
a(I2
g135
tp772
a(I3
g129
tp773
a(I0
g135
tp774
a(I1
g127
tp775
a(I2
g135
tp776
a(I3
g135
tp777
a(I0
g135
tp778
a(I1
g127
tp779
a(I2
g131
tp780
a(I3
g135
tp781
a(I0
g129
tp782
a(I1
g131
tp783
a(I2
g135
tp784
a(I3
g135
tp785
a(I0
g129
tp786
a(I1
g129
tp787
a(I2
g135
tp788
a(I3
g135
tp789
a(I0
g135
tp790
a(I1
g131
tp791
a(I2
g135
tp792
a(I3
g135
tp793
a(I0
g135
tp794
a(I1
g129
tp795
a(I2
g135
tp796
a(I3
g135
tp797
a(I0
g129
tp798
a(I1
g127
tp799
a(I2
g135
tp800
a(I3
g129
tp801
a(I0
g135
tp802
a(I1
g127
tp803
a(I2
g129
tp804
a(I3
g129
tp805
a(I0
g129
tp806
a(I1
g131
tp807
a(I2
g135
tp808
a(I3
g129
tp809
a(I0
g129
tp810
a(I1
g129
tp811
a(I2
g135
tp812
a(I3
g135
tp813
a(I0
g127
tp814
a(I1
g135
tp815
a(I2
g129
tp816
a(I3
g129
tp817
a(I0
g129
tp818
a(I1
g135
tp819
a(I2
g129
tp820
a(I3
g135
tp821
a(I0
g129
tp822
a(I1
g135
tp823
a(I2
g127
tp824
a(I3
g135
tp825
a(I0
g135
tp826
a(I1
g135
tp827
a(I2
g127
tp828
a(I3
g129
tp829
a(I0
g129
tp830
a(I1
g131
tp831
a(I2
g127
tp832
a(I3
g129
tp833
a(I0
g129
tp834
a(I1
g129
tp835
a(I2
g127
tp836
a(I3
g129
tp837
a(I0
g127
tp838
a(I1
g135
tp839
a(I2
g129
tp840
a(I3
g129
tp841
a(I0
g135
tp842
a(I1
g135
tp843
a(I2
g127
tp844
a(I3
g129
tp845
a(I0
g131
tp846
a(I1
g135
tp847
a(I2
g127
tp848
a(I3
g131
tp849
a(I0
g131
tp850
a(I1
g129
tp851
a(I2
g129
tp852
a(I3
g131
tp853
a(I0
g127
tp854
a(I1
g135
tp855
a(I2
g127
tp856
a(I3
g131
tp857
a(I0
g131
tp858
a(I1
g135
tp859
a(I2
g127
tp860
a(I3
g131
tp861
a(I0
g131
tp862
a(I1
g129
tp863
a(I2
g129
tp864
a(I3
g131
tp865
a(I0
g135
tp866
a(I1
g129
tp867
a(I2
g129
tp868
a(I3
g127
tp869
a(I0
g131
tp870
a(I1
g129
tp871
a(I2
g135
tp872
a(I3
g127
tp873
a(I0
g131
tp874
a(I1
g129
tp875
a(I2
g135
tp876
a(I3
g131
tp877
a(I0
g131
tp878
a(I1
g129
tp879
a(I2
g135
tp880
a(I3
g127
tp881
a(I0
g135
tp882
a(I1
g129
tp883
a(I2
g135
tp884
a(I3
g131
tp885
a(I0
g135
tp886
a(I1
g129
tp887
a(I2
g135
tp888
a(I3
g135
tp889
a(I0
g129
tp890
a(I1
g127
tp891
a(I2
g135
tp892
a(I3
g129
tp893
a(I0
g129
tp894
a(I1
g129
tp895
a(I2
g129
tp896
a(I3
g129
tp897
a(I0
g129
tp898
a(I1
g129
tp899
a(I2
g129
tp900
a(I3
g135
tp901
a(I0
g129
tp902
a(I1
g129
tp903
a(I2
g129
tp904
a(I3
g135
tp905
a(I0
g129
tp906
a(I1
g129
tp907
a(I2
g135
tp908
a(I3
g129
tp909
a(I0
g129
tp910
a(I1
g129
tp911
a(I2
g129
tp912
a(I3
g129
tp913
a(I0
g129
tp914
a(I1
g129
tp915
a(I2
g135
tp916
a(I3
g129
tp917
a(I0
g129
tp918
a(I1
g129
tp919
a(I2
g135
tp920
a(I3
g129
tp921
a(I0
g129
tp922
a(I1
g129
tp923
a(I2
g129
tp924
a(I3
g129
tp925
a(I0
g127
tp926
a(I1
g129
tp927
a(I2
g131
tp928
a(I3
g131
tp929
a(I0
g135
tp930
a(I1
g127
tp931
a(I2
g129
tp932
a(I3
g129
tp933
a(I0
g129
tp934
a(I1
S'Stop'
p935
tp936
a(I2
g129
tp937
a(I3
g129
tp938
a(I0
g135
tp939
a(I1
g935
tp940
a(I2
g131
tp941
a(I3
g131
tp942
a(I0
g129
tp943
a(I1
g935
tp944
a(I2
g129
tp945
a(I3
g129
tp946
a(I0
g129
tp947
a(I1
g935
tp948
a(I2
g131
tp949
a(I3
g131
tp950
a(I0
g129
tp951
a(I1
g935
tp952
a(I2
g131
tp953
a(I3
g131
tp954
a(I0
g127
tp955
a(I1
g935
tp956
a(I2
g129
tp957
a(I3
g129
tp958
a(I0
g129
tp959
a(I1
g935
tp960
a(I2
g131
tp961
a(I3
g131
tp962
a(I0
g129
tp963
a(I1
g935
tp964
a(I2
g129
tp965
a(I3
g129
tp966
a(I0
g129
tp967
a(I1
g935
tp968
a(I2
g129
tp969
a(I3
g129
tp970
a(I0
g129
tp971
a(I1
g935
tp972
a(I2
g131
tp973
a(I3
g131
tp974
a(I0
g129
tp975
a(I1
g935
tp976
a(I2
g131
tp977
a(I3
g131
tp978
a(I0
g129
tp979
a(I1
g935
tp980
a(I2
g129
tp981
a(I3
g129
tp982
a(I0
g129
tp983
a(I1
g935
tp984
a(I2
g131
tp985
a(I3
g131
tp986
a(I0
g129
tp987
a(I1
g935
tp988
a(I2
g129
tp989
a(I3
g129
tp990
a(I0
g129
tp991
a(I1
g135
tp992
a(I2
g129
tp993
a(I3
g129
tp994
a(I0
g135
tp995
a(I1
g131
tp996
a(I2
g131
tp997
a(I3
g131
tp998
a(I0
g135
tp999
a(I1
g131
tp1000
a(I2
g129
tp1001
a(I3
g129
tp1002
a(I0
g129
tp1003
a(I1
g131
tp1004
a(I2
g131
tp1005
a(I3
g131
tp1006
a(I0
g129
tp1007
a(I1
g131
tp1008
a(I2
g131
tp1009
a(I3
g131
tp1010
a(I0
g135
tp1011
a(I1
g131
tp1012
a(I2
g129
tp1013
a(I3
g129
tp1014
a(I0
g129
tp1015
a(I1
g131
tp1016
a(I2
g131
tp1017
a(I3
g131
tp1018
a(I0
g135
tp1019
a(I1
g131
tp1020
a(I2
g129
tp1021
a(I3
g129
tp1022
a(I0
g135
tp1023
a(I1
g131
tp1024
a(I2
g129
tp1025
a(I3
g129
tp1026
a(I0
g135
tp1027
a(I1
g131
tp1028
a(I2
g131
tp1029
a(I3
g131
tp1030
a(I0
g135
tp1031
a(I1
g135
tp1032
a(I2
g131
tp1033
a(I3
g131
tp1034
a(I0
g135
tp1035
a(I1
g131
tp1036
a(I2
g129
tp1037
a(I3
g129
tp1038
a(I0
g129
tp1039
a(I1
g131
tp1040
a(I2
g129
tp1041
a(I3
g129
tp1042
a(I0
g129
tp1043
a(I1
g129
tp1044
a(I2
g129
tp1045
a(I3
g129
tp1046
a(I0
g135
tp1047
a(I1
g129
tp1048
a(I2
g129
tp1049
a(I3
g127
tp1050
a(I0
g135
tp1051
a(I1
g127
tp1052
a(I2
g129
tp1053
a(I3
g135
tp1054
a(I0
g135
tp1055
a(I1
g127
tp1056
a(I2
g131
tp1057
a(I3
g127
tp1058
a(I0
g131
tp1059
a(I1
g127
tp1060
a(I2
g131
tp1061
a(I3
g127
tp1062
a(I0
g131
tp1063
a(I1
g131
tp1064
a(I2
g129
tp1065
a(I3
g127
tp1066
a(I0
g127
tp1067
a(I1
g127
tp1068
a(I2
g129
tp1069
a(I3
g127
tp1070
a(I0
g131
tp1071
a(I1
g129
tp1072
a(I2
g129
tp1073
a(I3
g127
tp1074
a(I0
g129
tp1075
a(I1
g131
tp1076
a(I2
g129
tp1077
a(I3
g135
tp1078
a(I0
g131
tp1079
a(I1
g129
tp1080
a(I2
g127
tp1081
a(I3
g127
tp1082
a(I0
g129
tp1083
a(I1
g131
tp1084
a(I2
g127
tp1085
a(I3
g135
tp1086
a(I0
g131
tp1087
a(I1
g129
tp1088
a(I2
g135
tp1089
a(I3
g127
tp1090
a(I0
g129
tp1091
a(I1
g131
tp1092
a(I2
g127
tp1093
a(I3
g135
tp1094
a(I0
g131
tp1095
a(I1
g129
tp1096
a(I2
g135
tp1097
a(I3
g127
tp1098
a(I0
g129
tp1099
a(I1
g131
tp1100
a(I2
g127
tp1101
a(I3
g135
tp1102
a(I0
g131
tp1103
a(I1
g129
tp1104
a(I2
g135
tp1105
a(I3
g127
tp1106
a(I0
g129
tp1107
a(I1
g131
tp1108
a(I2
g127
tp1109
a(I3
g135
tp1110
a(I0
g131
tp1111
a(I1
g129
tp1112
a(I2
g135
tp1113
a(I3
g127
tp1114
a(I0
g129
tp1115
a(I1
g131
tp1116
a(I2
g127
tp1117
a(I3
g135
tp1118
a(I0
g131
tp1119
a(I1
g129
tp1120
a(I2
g135
tp1121
a(I3
g127
tp1122
a(I0
g129
tp1123
a(I1
g131
tp1124
a(I2
g127
tp1125
a(I3
g135
tp1126
a(I0
g131
tp1127
a(I1
g129
tp1128
a(I2
g135
tp1129
a(I3
g127
tp1130
a(I0
g129
tp1131
a(I1
g131
tp1132
a(I2
g127
tp1133
a(I3
g135
tp1134
a(I0
g131
tp1135
a(I1
g129
tp1136
a(I2
g135
tp1137
a(I3
g127
tp1138
a(I0
g129
tp1139
a(I1
g131
tp1140
a(I2
g127
tp1141
a(I3
g135
tp1142
a(I0
g131
tp1143
a(I1
g129
tp1144
a(I2
g135
tp1145
a(I3
g127
tp1146
a(I0
g129
tp1147
a(I1
g131
tp1148
a(I2
g127
tp1149
a(I3
g135
tp1150
a(I0
g131
tp1151
a(I1
g129
tp1152
a(I2
g127
tp1153
a(I3
g127
tp1154
a(I0
g129
tp1155
a(I1
g135
tp1156
a(I2
g129
tp1157
a(I3
g135
tp1158
a(I0
g135
tp1159
a(I1
g131
tp1160
a(I2
g135
tp1161
a(I3
g131
tp1162
a(I0
g129
tp1163
a(I1
g129
tp1164
a(I2
g135
tp1165
a(I3
g131
tp1166
a(I0
g129
tp1167
a(I1
g135
tp1168
a(I2
g129
tp1169
a(I3
g131
tp1170
a(I0
g135
tp1171
a(I1
g135
tp1172
a(I2
g129
tp1173
a(I3
g127
tp1174
a(I0
g129
tp1175
a(I1
g135
tp1176
a(I2
g129
tp1177
a(I3
g127
tp1178
a(I0
g129
tp1179
a(I1
g131
tp1180
a(I2
g127
tp1181
a(I3
g127
tp1182
a(I0
g129
tp1183
a(I1
g131
tp1184
a(I2
g129
tp1185
a(I3
g127
tp1186
a(I0
g127
tp1187
a(I1
g131
tp1188
a(I2
g129
tp1189
a(I3
g127
tp1190
a(I0
g129
tp1191
a(I1
g131
tp1192
a(I2
g129
tp1193
a(I3
g131
tp1194
a(I0
g129
tp1195
a(I1
g131
tp1196
a(I2
g129
tp1197
a(I3
g131
tp1198
a(I0
g129
tp1199
a(I1
g131
tp1200
a(I2
g129
tp1201
a(I3
g127
tp1202
a(I0
g129
tp1203
a(I1
g131
tp1204
a(I2
g129
tp1205
a(I3
g127
tp1206
a(I0
g129
tp1207
a(I1
g127
tp1208
a(I2
g129
tp1209
a(I3
g127
tp1210
a(I0
g129
tp1211
a(I1
g127
tp1212
a(I2
g129
tp1213
a(I3
g135
tp1214
a(I0
g129
tp1215
a(I1
g131
tp1216
a(I2
g129
tp1217
a(I3
g129
tp1218
a(I0
g129
tp1219
a(I1
g131
tp1220
a(I2
g135
tp1221
a(I3
g129
tp1222
a(I0
g129
tp1223
a(I1
g127
tp1224
a(I2
g135
tp1225
a(I3
g129
tp1226
a(I0
g135
tp1227
a(I1
g131
tp1228
a(I2
g135
tp1229
a(I3
g135
tp1230
a(I0
g135
tp1231
a(I1
g131
tp1232
a(I2
g135
tp1233
a(I3
g127
tp1234
a(I0
g135
tp1235
a(I1
g127
tp1236
a(I2
g135
tp1237
a(I3
g135
tp1238
a(I0
g129
tp1239
a(I1
g127
tp1240
a(I2
g129
tp1241
a(I3
g935
tp1242
a(I0
g129
tp1243
a(I1
g127
tp1244
a(I2
g129
tp1245
a(I3
g935
tp1246
a(I0
g131
tp1247
a(I1
g127
tp1248
a(I2
g135
tp1249
a(I3
g935
tp1250
a(I0
g131
tp1251
a(I1
g127
tp1252
a(I2
g129
tp1253
a(I3
g135
tp1254
a(I0
g135
tp1255
a(I1
g135
tp1256
a(I2
g135
tp1257
a(I3
g135
tp1258
a(I0
g135
tp1259
a(I1
g135
tp1260
a(I2
g135
tp1261
a(I3
g135
tp1262
a(I0
g129
tp1263
a(I1
g135
tp1264
a(I2
g129
tp1265
a(I3
g135
tp1266
a(I0
g129
tp1267
a(I1
g129
tp1268
a(I2
g129
tp1269
a(I3
g129
tp1270
a(I0
g129
tp1271
a(I1
g129
tp1272
a(I2
g135
tp1273
a(I3
g129
tp1274
a(I0
g135
tp1275
a(I1
g129
tp1276
a(I2
g135
tp1277
a(I3
g135
tp1278
a(I0
g135
tp1279
a(I1
g135
tp1280
a(I2
g135
tp1281
a(I3
g135
tp1282
a(I0
g135
tp1283
a(I1
g135
tp1284
a(I2
g135
tp1285
a(I3
g135
tp1286
a(I0
g129
tp1287
a(I1
g135
tp1288
a(I2
g135
tp1289
a(I3
g135
tp1290
a(I0
g129
tp1291
a(I1
g129
tp1292
a(I2
g135
tp1293
a(I3
g135
tp1294
a(I0
g135
tp1295
a(I1
g135
tp1296
a(I2
g131
tp1297
a(I3
g135
tp1298
a(I0
g135
tp1299
a(I1
g135
tp1300
a(I2
g131
tp1301
a(I3
g131
tp1302
a(I0
g135
tp1303
a(I1
g129
tp1304
a(I2
g131
tp1305
a(I3
g129
tp1306
a(I0
g131
tp1307
a(I1
g131
tp1308
a(I2
g131
tp1309
a(I3
g127
tp1310
a(I0
g131
tp1311
a(I1
g127
tp1312
a(I2
g131
tp1313
a(I3
g127
tp1314
a(I0
g127
tp1315
a(I1
g127
tp1316
a(I2
g131
tp1317
a(I3
g127
tp1318
a(I0
g131
tp1319
a(I1
g129
tp1320
a(I2
g131
tp1321
a(I3
g131
tp1322
a(I0
g129
tp1323
a(I1
g129
tp1324
a(I2
g127
tp1325
a(I3
g131
tp1326
a(I0
g129
tp1327
a(I1
g127
tp1328
a(I2
g127
tp1329
a(I3
g127
tp1330
a(I0
g129
tp1331
asS'length'
p1332
I1200
sS'agents'
p1333
(lp1334
(igame
Agent
p1335
(dp1336
S'index'
p1337
I0
sba(igame
Agent
p1338
(dp1339
g1337
I0
sba(igame
Agent
p1340
(dp1341
g1337
I0
sba(igame
Agent
p1342
(dp1343
g1337
I0
sbasS'redTeamName'
p1344
S'Red'
p1345
s.