(dp1
S'layout'
p2
(ilayout
Layout
p3
(dp4
S'capsules'
p5
(lp6
(I8
I8
tp7
a(I28
I8
tp8
a(I5
I9
tp9
a(I25
I9
tp10
asS'numGhosts'
p11
I4
sS'food'
p12
(igame
Grid
p13
(dp14
S'CELLS_PER_INT'
p15
I30
sS'width'
p16
I34
sS'data'
p17
(lp18
(lp19
I00
aI00
aI00
aI00
aI00
aI00
aI00
aI00
aI00
aI00
aI00
aI00
aI00
aI00
aI00
aI00
aI00
aI00
aa(lp20
I00
aI00
aI00
aI00
aI00
aI01
aI00
aI00
aI00
aI00
aI00
aI00
aI00
aI00
aI00
aI00
aI01
aI00
aa(lp21
I00
aI00
aI00
aI00
aI00
aI00
aI00
aI00
aI00
aI00
aI00
aI00
aI00
aI01
aI00
aI00
aI00
aI00
aa(lp22
I00
aI00
aI00
aI00
aI00
aI00
aI00
aI00
aI00
aI00
aI00
aI00
aI00
aI00
aI00
aI00
aI00
aI00
aa(lp23
I00
aI00
aI00
aI00
aI00
aI01
aI00
aI01
aI00
aI01
aI00
aI00
aI00
aI00
aI00
aI00
aI00
aI00
aa(lp24
I00
aI00
aI00
aI00
aI00
aI01
aI00
aI00
aI00
aI00
aI00
aI00
aI00
aI00
aI00
aI00
aI00
aI00
aa(lp25
I00
aI00
aI00
aI00
aI00
aI00
aI00
aI00
aI00
aI00
aI00
aI01
aI00
aI00
aI00
aI01
aI01
aI00
aa(lp26
I00
aI00
aI00
aI00
aI01
aI01
aI00
aI01
aI00
aI00
aI00
aI00
aI00
aI00
aI00
aI00
aI00
aI00
aa(lp27
I00
aI00
aI00
aI00
aI00
aI00
aI00
aI00
aI00
aI00
aI00
aI00
aI00
aI01
aI01
aI00
aI01
aI00
aa(lp28
I00
aI00
aI01
aI00
aI00
aI00
aI00
aI00
aI00
aI00
aI00
aI00
aI00
aI00
aI00
aI00
aI01
aI00
aa(lp29
I00
aI01
aI00
aI00
aI00
aI00
aI00
aI01
aI00
aI01
aI00
aI00
aI00
aI00
aI01
aI00
aI00
aI00
aa(lp30
I00
aI00
aI00
aI00
aI00
aI00
aI00
aI01
aI00
aI00
aI00
aI00
aI01
aI00
aI00
aI00
aI00
aI00
aa(lp31
I00
aI01
aI01
aI00
aI00
aI00
aI00
aI00
aI00
aI00
aI00
aI00
aI00
aI00
aI00
aI00
aI00
aI00
aa(lp32
I00
aI00
aI01
aI00
aI00
aI00
aI00
aI00
aI01
aI00
aI00
aI00
aI00
aI00
aI00
aI00
aI00
aI00
aa(lp33
I00
aI01
aI00
aI00
aI00
aI00
aI01
aI00
aI00
aI00
aI00
aI00
aI00
aI00
aI00
aI00
aI00
aI00
aa(lp34
I00
aI00
aI00
aI00
aI00
aI00
aI00
aI00
aI00
aI00
aI00
aI00
aI00
aI00
aI00
aI00
aI00
aI00
aa(lp35
I00
aI00
aI00
aI00
aI00
aI00
aI00
aI00
aI00
aI00
aI00
aI00
aI00
aI00
aI00
aI00
aI00
aI00
aa(lp36
I00
aI00
aI00
aI00
aI00
aI00
aI00
aI00
aI00
aI00
aI00
aI00
aI00
aI00
aI00
aI00
aI00
aI00
aa(lp37
I00
aI00
aI00
aI00
aI00
aI00
aI00
aI00
aI00
aI00
aI00
aI00
aI00
aI00
aI00
aI00
aI00
aI00
aa(lp38
I00
aI00
aI00
aI00
aI00
aI00
aI00
aI00
aI00
aI00
aI00
aI01
aI00
aI00
aI00
aI00
aI01
aI00
aa(lp39
I00
aI00
aI00
aI00
aI00
aI00
aI00
aI00
aI00
aI01
aI00
aI00
aI00
aI00
aI00
aI01
aI00
aI00
aa(lp40
I00
aI00
aI00
aI00
aI00
aI00
aI00
aI00
aI00
aI00
aI00
aI00
aI00
aI00
aI00
aI01
aI01
aI00
aa(lp41
I00
aI00
aI00
aI00
aI00
aI01
aI00
aI00
aI00
aI00
aI01
aI00
aI00
aI00
aI00
aI00
aI00
aI00
aa(lp42
I00
aI00
aI00
aI01
aI00
aI00
aI00
aI00
aI01
aI00
aI01
aI00
aI00
aI00
aI00
aI00
aI01
aI00
aa(lp43
I00
aI01
aI00
aI00
aI00
aI00
aI00
aI00
aI00
aI00
aI00
aI00
aI00
aI00
aI00
aI01
aI00
aI00
aa(lp44
I00
aI01
aI00
aI01
aI01
aI00
aI00
aI00
aI00
aI00
aI00
aI00
aI00
aI00
aI00
aI00
aI00
aI00
aa(lp45
I00
aI00
aI00
aI00
aI00
aI00
aI00
aI00
aI00
aI00
aI01
aI00
aI01
aI01
aI00
aI00
aI00
aI00
aa(lp46
I00
aI01
aI01
aI00
aI00
aI00
aI01
aI00
aI00
aI00
aI00
aI00
aI00
aI00
aI00
aI00
aI00
aI00
aa(lp47
I00
aI00
aI00
aI00
aI00
aI00
aI00
aI00
aI00
aI00
aI00
aI00
aI01
aI00
aI00
aI00
aI00
aI00
aa(lp48
I00
aI00
aI00
aI00
aI00
aI00
aI00
aI00
aI01
aI00
aI01
aI00
aI01
aI00
aI00
aI00
aI00
aI00
aa(lp49
I00
aI00
aI00
aI00
aI00
aI00
aI00
aI00
aI00
aI00
aI00
aI00
aI00
aI00
aI00
aI00
aI00
aI00
aa(lp50
I00
aI00
aI00
aI00
aI01
aI00
aI00
aI00
aI00
aI00
aI00
aI00
aI00
aI00
aI00
aI00
aI00
aI00
aa(lp51
I00
aI01
aI00
aI00
aI00
aI00
aI00
aI00
aI00
aI00
aI00
aI00
aI01
aI00
aI00
aI00
aI00
aI00
aa(lp52
I00
aI00
aI00
aI00
aI00
aI00
aI00
aI00
aI00
aI00
aI00
aI00
aI00
aI00
aI00
aI00
aI00
aI00
aasS'height'
p53
I18
sbsS'agentPositions'
p54
(lp55
(I00
(I1
I2
tp56
tp57
a(I00
(I32
I15
tp58
tp59
a(I00
(I1
I1
tp60
tp61
a(I00
(I32
I16
tp62
tp63
asg53
I18
sg16
I34
sS'walls'
p64
(igame
Grid
p65
(dp66
g15
I30
sg16
I34
sg17
(lp67
(lp68
I01
aI01
aI01
aI01
aI01
aI01
aI01
aI01
aI01
aI01
aI01
aI01
aI01
aI01
aI01
aI01
aI01
aI01
aa(lp69
I01
aI00
aI00
aI00
aI00
aI00
aI00
aI01
aI00
aI00
aI00
aI00
aI00
aI00
aI00
aI00
aI00
aI01
aa(lp70
I01
aI00
aI00
aI00
aI00
aI01
aI00
aI00
aI00
aI01
aI00
aI00
aI01
aI00
aI00
aI00
aI00
aI01
aa(lp71
I01
aI01
aI01
aI00
aI01
aI01
aI01
aI01
aI01
aI01
aI01
aI01
aI01
aI01
aI01
aI00
aI00
aI01
aa(lp72
I01
aI00
aI00
aI00
aI00
aI00
aI01
aI00
aI00
aI00
aI01
aI00
aI00
aI00
aI00
aI00
aI00
aI01
aa(lp73
I01
aI00
aI00
aI00
aI01
aI00
aI01
aI01
aI00
aI00
aI00
aI00
aI01
aI01
aI00
aI01
aI01
aI01
aa(lp74
I01
aI01
aI00
aI01
aI01
aI01
aI01
aI00
aI00
aI00
aI01
aI00
aI00
aI00
aI00
aI00
aI00
aI01
aa(lp75
I01
aI00
aI00
aI01
aI00
aI00
aI01
aI00
aI01
aI01
aI01
aI01
aI01
aI01
aI01
aI01
aI01
aI01
aa(lp76
I01
aI00
aI00
aI01
aI00
aI01
aI01
aI00
aI00
aI00
aI00
aI00
aI00
aI00
aI00
aI01
aI00
aI01
aa(lp77
I01
aI01
aI00
aI01
aI00
aI00
aI01
aI01
aI01
aI01
aI01
aI00
aI01
aI00
aI01
aI01
aI00
aI01
aa(lp78
I01
aI00
aI00
aI01
aI01
aI00
aI01
aI00
aI01
aI00
aI01
aI00
aI01
aI00
aI00
aI01
aI00
aI01
aa(lp79
I01
aI01
aI00
aI01
aI00
aI00
aI01
aI00
aI00
aI00
aI00
aI00
aI00
aI00
aI00
aI01
aI00
aI01
aa(lp80
I01
aI00
aI00
aI01
aI00
aI01
aI01
aI01
aI01
aI01
aI01
aI01
aI00
aI01
aI00
aI00
aI00
aI01
aa(lp81
I01
aI01
aI00
aI01
aI00
aI00
aI01
aI00
aI00
aI00
aI00
aI01
aI00
aI01
aI00
aI01
aI00
aI01
aa(lp82
I01
aI00
aI00
aI00
aI00
aI00
aI00
aI00
aI00
aI01
aI00
aI00
aI00
aI00
aI00
aI01
aI00
aI01
aa(lp83
I01
aI00
aI01
aI01
aI00
aI00
aI01
aI00
aI01
aI01
aI01
aI01
aI01
aI01
aI00
aI01
aI00
aI01
aa(lp84
I01
aI00
aI00
aI01
aI00
aI00
aI01
aI00
aI00
aI00
aI00
aI00
aI00
aI01
aI00
aI01
aI00
aI01
aa(lp85
I01
aI00
aI01
aI00
aI01
aI00
aI00
aI00
aI00
aI00
aI00
aI01
aI00
aI00
aI01
aI00
aI00
aI01
aa(lp86
I01
aI00
aI01
aI00
aI01
aI01
aI01
aI01
aI01
aI01
aI00
aI01
aI00
aI00
aI01
aI01
aI00
aI01
aa(lp87
I01
aI00
aI01
aI00
aI00
aI00
aI00
aI00
aI01
aI00
aI00
aI00
aI00
aI00
aI00
aI00
aI00
aI01
aa(lp88
I01
aI00
aI01
aI00
aI01
aI00
aI01
aI00
aI00
aI00
aI00
aI01
aI00
aI00
aI01
aI00
aI01
aI01
aa(lp89
I01
aI00
aI00
aI00
aI01
aI00
aI01
aI01
aI01
aI01
aI01
aI01
aI01
aI00
aI01
aI00
aI00
aI01
aa(lp90
I01
aI00
aI01
aI00
aI00
aI00
aI00
aI00
aI00
aI00
aI00
aI01
aI00
aI00
aI01
aI00
aI01
aI01
aa(lp91
I01
aI00
aI01
aI00
aI00
aI01
aI00
aI01
aI00
aI01
aI00
aI01
aI00
aI01
aI01
aI00
aI00
aI01
aa(lp92
I01
aI00
aI01
aI01
aI00
aI01
aI00
aI01
aI01
aI01
aI01
aI01
aI00
aI00
aI01
aI00
aI01
aI01
aa(lp93
I01
aI00
aI01
aI00
aI00
aI00
aI00
aI00
aI00
aI00
aI00
aI01
aI01
aI00
aI01
aI00
aI00
aI01
aa(lp94
I01
aI01
aI01
aI01
aI01
aI01
aI01
aI01
aI01
aI01
aI00
aI01
aI00
aI00
aI01
aI00
aI00
aI01
aa(lp95
I01
aI00
aI00
aI00
aI00
aI00
aI00
aI01
aI00
aI00
aI00
aI01
aI01
aI01
aI01
aI00
aI01
aI01
aa(lp96
I01
aI01
aI01
aI00
aI01
aI01
aI00
aI00
aI00
aI00
aI01
aI01
aI00
aI01
aI00
aI00
aI00
aI01
aa(lp97
I01
aI00
aI00
aI00
aI00
aI00
aI00
aI01
aI00
aI00
aI00
aI01
aI00
aI00
aI00
aI00
aI00
aI01
aa(lp98
I01
aI00
aI00
aI01
aI01
aI01
aI01
aI01
aI01
aI01
aI01
aI01
aI01
aI01
aI00
aI01
aI01
aI01
aa(lp99
I01
aI00
aI00
aI00
aI00
aI01
aI00
aI00
aI01
aI00
aI00
aI00
aI01
aI00
aI00
aI00
aI00
aI01
aa(lp100
I01
aI00
aI00
aI00
aI00
aI00
aI00
aI00
aI00
aI00
aI01
aI00
aI00
aI00
aI00
aI00
aI00
aI01
aa(lp101
I01
aI01
aI01
aI01
aI01
aI01
aI01
aI01
aI01
aI01
aI01
aI01
aI01
aI01
aI01
aI01
aI01
aI01
aasg53
I18
sbsS'totalFood'
p102
I60
sS'layoutText'
p103
(lp104
S'%%%%%%%%%%%%%%%%%%%%%%%%%%%%%%%%%%'
p105
aS'%.   %.%..         .%.%.%  %  % 4%'
p106
aS'%    %.%%%%% %%%% % ..  .     % 2%'
p107
aS'%  %   %.%.      %% %%%%%%%%     %'
p108
aS'% .% % %.   %% %%      %  .%% %  %'
p109
aS'% %% % % %%.   %     %   %.%..%%.%'
p110
aS'%  %  .%    %% % %%.%%%%%%%%%%%  %'
p111
aS'%  %% %% %% %  %     %..% . %.% %%'
p112
aS'% %%.o % %. % %%  % .% %%o%   %  %'
p113
aS'%  %   %o%% %. %  %% % .% % o.%% %'
p114
aS'%% %.% . %..%     %  % %% %% %%  %'
p115
aS'%  %%%%%%%%%%%.%% % %%    %.  %  %'
p116
aS'%.%%..%.%   %     %   .%% % % %% %'
p117
aS'%  % %%.  %      %% %%   .% % %. %'
p118
aS'%     %%%%%%%% %%      .%.%   %  %'
p119
aS'%1 %     .  .. % %%%% %%%%%.%    %'
p120
aS'%3 %  %  %.%.%.         ..%.%   .%'
p121
aS'%%%%%%%%%%%%%%%%%%%%%%%%%%%%%%%%%%'
p122
asbsS'blueTeamName'
p123
S'Blue'
p124
sS'actions'
p125
(lp126
(I1
S'West'
p127
tp128
a(I2
S'East'
p129
tp130
a(I3
S'South'
p131
tp132
a(I0
g129
tp133
a(I1
g131
tp134
a(I2
S'North'
p135
tp136
a(I3
g127
tp137
a(I0
g135
tp138
a(I1
g127
tp139
a(I2
g135
tp140
a(I3
g131
tp141
a(I0
g129
tp142
a(I1
g127
tp143
a(I2
g129
tp144
a(I3
g127
tp145
a(I0
g129
tp146
a(I1
g127
tp147
a(I2
g129
tp148
a(I3
g127
tp149
a(I0
g129
tp150
a(I1
g135
tp151
a(I2
g129
tp152
a(I3
g127
tp153
a(I0
g131
tp154
a(I1
g127
tp155
a(I2
g131
tp156
a(I3
g135
tp157
a(I0
g129
tp158
a(I1
g127
tp159
a(I2
g129
tp160
a(I3
g127
tp161
a(I0
g129
tp162
a(I1
g127
tp163
a(I2
g129
tp164
a(I3
g127
tp165
a(I0
g129
tp166
a(I1
g127
tp167
a(I2
g129
tp168
a(I3
g127
tp169
a(I0
g129
tp170
a(I1
g127
tp171
a(I2
g129
tp172
a(I3
g127
tp173
a(I0
g129
tp174
a(I1
g127
tp175
a(I2
g129
tp176
a(I3
g127
tp177
a(I0
g129
tp178
a(I1
g127
tp179
a(I2
g129
tp180
a(I3
g127
tp181
a(I0
g129
tp182
a(I1
g127
tp183
a(I2
g129
tp184
a(I3
g127
tp185
a(I0
g129
tp186
a(I1
g127
tp187
a(I2
g129
tp188
a(I3
g127
tp189
a(I0
g129
tp190
a(I1
g135
tp191
a(I2
g129
tp192
a(I3
g127
tp193
a(I0
g131
tp194
a(I1
g127
tp195
a(I2
g135
tp196
a(I3
g131
tp197
a(I0
g129
tp198
a(I1
g127
tp199
a(I2
g135
tp200
a(I3
g135
tp201
a(I0
g129
tp202
a(I1
g127
tp203
a(I2
g131
tp204
a(I3
g129
tp205
a(I0
g129
tp206
a(I1
g127
tp207
a(I2
g135
tp208
a(I3
g127
tp209
a(I0
g129
tp210
a(I1
g127
tp211
a(I2
g129
tp212
a(I3
g135
tp213
a(I0
g129
tp214
a(I1
g127
tp215
a(I2
g127
tp216
a(I3
g131
tp217
a(I0
g129
tp218
a(I1
g127
tp219
a(I2
g131
tp220
a(I3
g129
tp221
a(I0
g129
tp222
a(I1
g127
tp223
a(I2
g131
tp224
a(I3
g127
tp225
a(I0
g129
tp226
a(I1
g127
tp227
a(I2
g127
tp228
a(I3
g135
tp229
a(I0
g129
tp230
a(I1
g127
tp231
a(I2
g127
tp232
a(I3
g131
tp233
a(I0
g129
tp234
a(I1
g127
tp235
a(I2
g127
tp236
a(I3
g131
tp237
a(I0
g129
tp238
a(I1
g129
tp239
a(I2
g127
tp240
a(I3
g135
tp241
a(I0
g127
tp242
a(I1
g129
tp243
a(I2
g127
tp244
a(I3
g135
tp245
a(I0
g127
tp246
a(I1
g129
tp247
a(I2
g127
tp248
a(I3
g131
tp249
a(I0
g127
tp250
a(I1
g129
tp251
a(I2
g129
tp252
a(I3
g131
tp253
a(I0
g127
tp254
a(I1
g131
tp255
a(I2
g129
tp256
a(I3
g135
tp257
a(I0
g135
tp258
a(I1
g131
tp259
a(I2
g129
tp260
a(I3
g135
tp261
a(I0
g135
tp262
a(I1
g127
tp263
a(I2
g129
tp264
a(I3
g131
tp265
a(I0
g129
tp266
a(I1
g127
tp267
a(I2
g129
tp268
a(I3
g131
tp269
a(I0
g129
tp270
a(I1
g129
tp271
a(I2
g129
tp272
a(I3
g135
tp273
a(I0
g135
tp274
a(I1
g131
tp275
a(I2
g135
tp276
a(I3
g129
tp277
a(I0
g129
tp278
a(I1
g131
tp279
a(I2
g135
tp280
a(I3
g127
tp281
a(I0
g129
tp282
a(I1
g135
tp283
a(I2
g135
tp284
a(I3
g131
tp285
a(I0
g135
tp286
a(I1
g127
tp287
a(I2
g135
tp288
a(I3
g135
tp289
a(I0
g135
tp290
a(I1
g127
tp291
a(I2
g135
tp292
a(I3
g135
tp293
a(I0
g135
tp294
a(I1
g127
tp295
a(I2
g127
tp296
a(I3
g131
tp297
a(I0
g135
tp298
a(I1
g135
tp299
a(I2
g135
tp300
a(I3
g131
tp301
a(I0
g135
tp302
a(I1
g131
tp303
a(I2
g135
tp304
a(I3
g135
tp305
a(I0
g135
tp306
a(I1
g131
tp307
a(I2
g135
tp308
a(I3
S'Stop'
p309
tp310
a(I0
g129
tp311
a(I1
g131
tp312
a(I2
g129
tp313
a(I3
g309
tp314
a(I0
g129
tp315
a(I1
g131
tp316
a(I2
g135
tp317
a(I3
g309
tp318
a(I0
g131
tp319
a(I1
g131
tp320
a(I2
g135
tp321
a(I3
g309
tp322
a(I0
g129
tp323
a(I1
g131
tp324
a(I2
g131
tp325
a(I3
g309
tp326
a(I0
g129
tp327
a(I1
g131
tp328
a(I2
g131
tp329
a(I3
g309
tp330
a(I0
g135
tp331
a(I1
g127
tp332
a(I2
g127
tp333
a(I3
g309
tp334
a(I0
g131
tp335
a(I1
g127
tp336
a(I2
g129
tp337
a(I3
g309
tp338
a(I0
g131
tp339
a(I1
g135
tp340
a(I2
g127
tp341
a(I3
g309
tp342
a(I0
g127
tp343
a(I1
g127
tp344
a(I2
g129
tp345
a(I3
g309
tp346
a(I0
g131
tp347
a(I1
g127
tp348
a(I2
g127
tp349
a(I3
g309
tp350
a(I0
g131
tp351
a(I1
g131
tp352
a(I2
g131
tp353
a(I3
g309
tp354
a(I0
g127
tp355
a(I1
g135
tp356
a(I2
g131
tp357
a(I3
g309
tp358
a(I0
g131
tp359
a(I1
g135
tp360
a(I2
g129
tp361
a(I3
g309
tp362
a(I0
g131
tp363
a(I1
g129
tp364
a(I2
g131
tp365
a(I3
g309
tp366
a(I0
g131
tp367
a(I1
g135
tp368
a(I2
g129
tp369
a(I3
g309
tp370
a(I0
g131
tp371
a(I1
g135
tp372
a(I2
g129
tp373
a(I3
g309
tp374
a(I0
g131
tp375
a(I1
g129
tp376
a(I2
g129
tp377
a(I3
g309
tp378
a(I0
g135
tp379
a(I1
g135
tp380
a(I2
g135
tp381
a(I3
g309
tp382
a(I0
g135
tp383
a(I1
g135
tp384
a(I2
g135
tp385
a(I3
g309
tp386
a(I0
g135
tp387
a(I1
g135
tp388
a(I2
g135
tp389
a(I3
g309
tp390
a(I0
g135
tp391
a(I1
g135
tp392
a(I2
g129
tp393
a(I3
g309
tp394
a(I0
g135
tp395
a(I1
g135
tp396
a(I2
g129
tp397
a(I3
g129
tp398
a(I0
g129
tp399
a(I1
g131
tp400
a(I2
g135
tp401
a(I3
g129
tp402
a(I0
g135
tp403
a(I1
g131
tp404
a(I2
g131
tp405
a(I3
g127
tp406
a(I0
g135
tp407
a(I1
g127
tp408
a(I2
g129
tp409
a(I3
g129
tp410
a(I0
g127
tp411
a(I1
g127
tp412
a(I2
g131
tp413
a(I3
g127
tp414
a(I0
g135
tp415
a(I1
g135
tp416
a(I2
g127
tp417
a(I3
g127
tp418
a(I0
g135
tp419
a(I1
g127
tp420
a(I2
g129
tp421
a(I3
g309
tp422
a(I0
g127
tp423
a(I1
g127
tp424
a(I2
g131
tp425
a(I3
g131
tp426
a(I0
g127
tp427
a(I1
g127
tp428
a(I2
g135
tp429
a(I3
g135
tp430
a(I0
g131
tp431
a(I1
g135
tp432
a(I2
g131
tp433
a(I3
g135
tp434
a(I0
g131
tp435
a(I1
g131
tp436
a(I2
g131
tp437
a(I3
g131
tp438
a(I0
g131
tp439
a(I1
g131
tp440
a(I2
g127
tp441
a(I3
g129
tp442
a(I0
g131
tp443
a(I1
g131
tp444
a(I2
g131
tp445
a(I3
g127
tp446
a(I0
g127
tp447
a(I1
g129
tp448
a(I2
g131
tp449
a(I3
g131
tp450
a(I0
g127
tp451
a(I1
g127
tp452
a(I2
g129
tp453
a(I3
g135
tp454
a(I0
g127
tp455
a(I1
g131
tp456
a(I2
g129
tp457
a(I3
g129
tp458
a(I0
g131
tp459
a(I1
g131
tp460
a(I2
g129
tp461
a(I3
g127
tp462
a(I0
g131
tp463
a(I1
g131
tp464
a(I2
g135
tp465
a(I3
g135
tp466
a(I0
g131
tp467
a(I1
g131
tp468
a(I2
g135
tp469
a(I3
g131
tp470
a(I0
g127
tp471
a(I1
g131
tp472
a(I2
g135
tp473
a(I3
g129
tp474
a(I0
g131
tp475
a(I1
g129
tp476
a(I2
g129
tp477
a(I3
g127
tp478
a(I0
g131
tp479
a(I1
g131
tp480
a(I2
g127
tp481
a(I3
g131
tp482
a(I0
g127
tp483
a(I1
g131
tp484
a(I2
g129
tp485
a(I3
g135
tp486
a(I0
g127
tp487
a(I1
g127
tp488
a(I2
g127
tp489
a(I3
g135
tp490
a(I0
g127
tp491
a(I1
g131
tp492
a(I2
g129
tp493
a(I3
g131
tp494
a(I0
g127
tp495
a(I1
g131
tp496
a(I2
g127
tp497
a(I3
g129
tp498
a(I0
g127
tp499
a(I1
g131
tp500
a(I2
g129
tp501
a(I3
g127
tp502
a(I0
g129
tp503
a(I1
g129
tp504
a(I2
g127
tp505
a(I3
g131
tp506
a(I0
g127
tp507
a(I1
g129
tp508
a(I2
g135
tp509
a(I3
g135
tp510
a(I0
g127
tp511
a(I1
g129
tp512
a(I2
g135
tp513
a(I3
g135
tp514
a(I0
g127
tp515
a(I1
g131
tp516
a(I2
g129
tp517
a(I3
g131
tp518
a(I0
g135
tp519
a(I1
g129
tp520
a(I2
g127
tp521
a(I3
g129
tp522
a(I0
g127
tp523
a(I1
g129
tp524
a(I2
g131
tp525
a(I3
g127
tp526
a(I0
g127
tp527
a(I1
g129
tp528
a(I2
g131
tp529
a(I3
g135
tp530
a(I0
g127
tp531
a(I1
g309
tp532
a(I2
g131
tp533
a(I3
g131
tp534
a(I0
g127
tp535
a(I1
g127
tp536
a(I2
g131
tp537
a(I3
g129
tp538
a(I0
g127
tp539
a(I1
g127
tp540
a(I2
g131
tp541
a(I3
g127
tp542
a(I0
g127
tp543
a(I1
g127
tp544
a(I2
g131
tp545
a(I3
g135
tp546
a(I0
g127
tp547
a(I1
g131
tp548
a(I2
g131
tp549
a(I3
g131
tp550
a(I0
g127
tp551
a(I1
g135
tp552
a(I2
g127
tp553
a(I3
g131
tp554
a(I0
g127
tp555
a(I1
g129
tp556
a(I2
g127
tp557
a(I3
g135
tp558
a(I0
g129
tp559
a(I1
g127
tp560
a(I2
g127
tp561
a(I3
g135
tp562
a(I0
g129
tp563
a(I1
g131
tp564
a(I2
g127
tp565
a(I3
g131
tp566
a(I0
g129
tp567
a(I1
g127
tp568
a(I2
g129
tp569
a(I3
g129
tp570
a(I0
g129
tp571
a(I1
g127
tp572
a(I2
g127
tp573
a(I3
g127
tp574
a(I0
g129
tp575
a(I1
g127
tp576
a(I2
g129
tp577
a(I3
g131
tp578
a(I0
g129
tp579
a(I1
g135
tp580
a(I2
g127
tp581
a(I3
g135
tp582
a(I0
g129
tp583
a(I1
g127
tp584
a(I2
g129
tp585
a(I3
g129
tp586
a(I0
g129
tp587
a(I1
g127
tp588
a(I2
g127
tp589
a(I3
g127
tp590
a(I0
g129
tp591
a(I1
g127
tp592
a(I2
g129
tp593
a(I3
g131
tp594
a(I0
g131
tp595
a(I1
g127
tp596
a(I2
g127
tp597
a(I3
g135
tp598
a(I0
g129
tp599
a(I1
g127
tp600
a(I2
g129
tp601
a(I3
g129
tp602
a(I0
g129
tp603
a(I1
g127
tp604
a(I2
g127
tp605
a(I3
g127
tp606
a(I0
g129
tp607
a(I1
g127
tp608
a(I2
g129
tp609
a(I3
g131
tp610
a(I0
g129
tp611
a(I1
g127
tp612
a(I2
g135
tp613
a(I3
g135
tp614
a(I0
g129
tp615
a(I1
g127
tp616
a(I2
g135
tp617
a(I3
g135
tp618
a(I0
g129
tp619
a(I1
g131
tp620
a(I2
g129
tp621
a(I3
g131
tp622
a(I0
g129
tp623
a(I1
g131
tp624
a(I2
g127
tp625
a(I3
g129
tp626
a(I0
g135
tp627
a(I1
g127
tp628
a(I2
g129
tp629
a(I3
g127
tp630
a(I0
g135
tp631
a(I1
g127
tp632
a(I2
g127
tp633
a(I3
g131
tp634
a(I0
g129
tp635
a(I1
g131
tp636
a(I2
g129
tp637
a(I3
g135
tp638
a(I0
g129
tp639
a(I1
g127
tp640
a(I2
g127
tp641
a(I3
g129
tp642
a(I0
g135
tp643
a(I1
g131
tp644
a(I2
g135
tp645
a(I3
g127
tp646
a(I0
g129
tp647
a(I1
g131
tp648
a(I2
g135
tp649
a(I3
g131
tp650
a(I0
g129
tp651
a(I1
g131
tp652
a(I2
g129
tp653
a(I3
g135
tp654
a(I0
g131
tp655
a(I1
g131
tp656
a(I2
g135
tp657
a(I3
g135
tp658
a(I0
g135
tp659
a(I1
g131
tp660
a(I2
g135
tp661
a(I3
g131
tp662
a(I0
g127
tp663
a(I1
g127
tp664
a(I2
g127
tp665
a(I3
g131
tp666
a(I0
g127
tp667
a(I1
g127
tp668
a(I2
g135
tp669
a(I3
g135
tp670
a(I0
g127
tp671
a(I1
g131
tp672
a(I2
g127
tp673
a(I3
g135
tp674
a(I0
g135
tp675
a(I1
g135
tp676
a(I2
g127
tp677
a(I3
g131
tp678
a(I0
g127
tp679
a(I1
g127
tp680
a(I2
g127
tp681
a(I3
g129
tp682
a(I0
g127
tp683
a(I1
g135
tp684
a(I2
g131
tp685
a(I3
g127
tp686
a(I0
g127
tp687
a(I1
g131
tp688
a(I2
g131
tp689
a(I3
g131
tp690
a(I0
g135
tp691
a(I1
g309
tp692
a(I2
g131
tp693
a(I3
g135
tp694
a(I0
g135
tp695
a(I1
g135
tp696
a(I2
g127
tp697
a(I3
g129
tp698
a(I0
g129
tp699
a(I1
g135
tp700
a(I2
g127
tp701
a(I3
g127
tp702
a(I0
g135
tp703
a(I1
g135
tp704
a(I2
g127
tp705
a(I3
g135
tp706
a(I0
g135
tp707
a(I1
g129
tp708
a(I2
g135
tp709
a(I3
g131
tp710
a(I0
g127
tp711
a(I1
g135
tp712
a(I2
g135
tp713
a(I3
g129
tp714
a(I0
g135
tp715
a(I1
g135
tp716
a(I2
g135
tp717
a(I3
g127
tp718
a(I0
g127
tp719
a(I1
g127
tp720
a(I2
g129
tp721
a(I3
g135
tp722
a(I0
g127
tp723
a(I1
g127
tp724
a(I2
g135
tp725
a(I3
g131
tp726
a(I0
g127
tp727
a(I1
g127
tp728
a(I2
g135
tp729
a(I3
g131
tp730
a(I0
g129
tp731
a(I1
g131
tp732
a(I2
g127
tp733
a(I3
g135
tp734
a(I0
g129
tp735
a(I1
g131
tp736
a(I2
g127
tp737
a(I3
g129
tp738
a(I0
g129
tp739
a(I1
g131
tp740
a(I2
g127
tp741
a(I3
g127
tp742
a(I0
g135
tp743
a(I1
g127
tp744
a(I2
g131
tp745
a(I3
g135
tp746
a(I0
g135
tp747
a(I1
g129
tp748
a(I2
g131
tp749
a(I3
g127
tp750
a(I0
g135
tp751
a(I1
g135
tp752
a(I2
g135
tp753
a(I3
g129
tp754
a(I0
g135
tp755
a(I1
g127
tp756
a(I2
g135
tp757
a(I3
g131
tp758
a(I0
g131
tp759
a(I1
g131
tp760
a(I2
g135
tp761
a(I3
g135
tp762
a(I0
g127
tp763
a(I1
g127
tp764
a(I2
g135
tp765
a(I3
g127
tp766
a(I0
g129
tp767
a(I1
g127
tp768
a(I2
g129
tp769
a(I3
g129
tp770
a(I0
g127
tp771
a(I1
g127
tp772
a(I2
g135
tp773
a(I3
g131
tp774
a(I0
g127
tp775
a(I1
g135
tp776
a(I2
g135
tp777
a(I3
g135
tp778
a(I0
g129
tp779
a(I1
g127
tp780
a(I2
g129
tp781
a(I3
g127
tp782
a(I0
g129
tp783
a(I1
g127
tp784
a(I2
g127
tp785
a(I3
g129
tp786
a(I0
g127
tp787
a(I1
g127
tp788
a(I2
g129
tp789
a(I3
g131
tp790
a(I0
g127
tp791
a(I1
g127
tp792
a(I2
g129
tp793
a(I3
g135
tp794
a(I0
g129
tp795
a(I1
g127
tp796
a(I2
g127
tp797
a(I3
g127
tp798
a(I0
g129
tp799
a(I1
g127
tp800
a(I2
g127
tp801
a(I3
g129
tp802
a(I0
g127
tp803
a(I1
g127
tp804
a(I2
g129
tp805
a(I3
g131
tp806
a(I0
g127
tp807
a(I1
g127
tp808
a(I2
g129
tp809
a(I3
g135
tp810
a(I0
g129
tp811
a(I1
g309
tp812
a(I2
g127
tp813
a(I3
g127
tp814
a(I0
g127
tp815
a(I1
g127
tp816
a(I2
g127
tp817
a(I3
g129
tp818
a(I0
g129
tp819
a(I1
g135
tp820
a(I2
g129
tp821
a(I3
g131
tp822
a(I0
g129
tp823
a(I1
g127
tp824
a(I2
g127
tp825
a(I3
g135
tp826
a(I0
g135
tp827
a(I1
g127
tp828
a(I2
g129
tp829
a(I3
g127
tp830
a(I0
g135
tp831
a(I1
g309
tp832
a(I2
g129
tp833
a(I3
g129
tp834
a(I0
g129
tp835
a(I1
g127
tp836
a(I2
g127
tp837
a(I3
g131
tp838
a(I0
g129
tp839
a(I1
g127
tp840
a(I2
g129
tp841
a(I3
g129
tp842
a(I0
g129
tp843
a(I1
g129
tp844
a(I2
g127
tp845
a(I3
g129
tp846
a(I0
g129
tp847
a(I1
g127
tp848
a(I2
g129
tp849
a(I3
g129
tp850
a(I0
g129
tp851
a(I1
g129
tp852
a(I2
g127
tp853
a(I3
g129
tp854
a(I0
g129
tp855
a(I1
g127
tp856
a(I2
g129
tp857
a(I3
g135
tp858
a(I0
g127
tp859
a(I1
g127
tp860
a(I2
g129
tp861
a(I3
g131
tp862
a(I0
g129
tp863
a(I1
g131
tp864
a(I2
g129
tp865
a(I3
g135
tp866
a(I0
g127
tp867
a(I1
g131
tp868
a(I2
g129
tp869
a(I3
g131
tp870
a(I0
g129
tp871
a(I1
g131
tp872
a(I2
g129
tp873
a(I3
g135
tp874
a(I0
g127
tp875
a(I1
g131
tp876
a(I2
g129
tp877
a(I3
g131
tp878
a(I0
g129
tp879
a(I1
g135
tp880
a(I2
g127
tp881
a(I3
g135
tp882
a(I0
g127
tp883
a(I1
g135
tp884
a(I2
g127
tp885
a(I3
g131
tp886
a(I0
g129
tp887
a(I1
g127
tp888
a(I2
g127
tp889
a(I3
g135
tp890
a(I0
g127
tp891
a(I1
g135
tp892
a(I2
g129
tp893
a(I3
g131
tp894
a(I0
g129
tp895
a(I1
g127
tp896
a(I2
g129
tp897
a(I3
g135
tp898
a(I0
g127
tp899
a(I1
g127
tp900
a(I2
g129
tp901
a(I3
g131
tp902
a(I0
g129
tp903
a(I1
g127
tp904
a(I2
g131
tp905
a(I3
g129
tp906
a(I0
g129
tp907
a(I1
g129
tp908
a(I2
g129
tp909
a(I3
g129
tp910
a(I0
g129
tp911
a(I1
g131
tp912
a(I2
g129
tp913
a(I3
g129
tp914
a(I0
g129
tp915
a(I1
g131
tp916
a(I2
g129
tp917
a(I3
g129
tp918
a(I0
g129
tp919
a(I1
g127
tp920
a(I2
g129
tp921
a(I3
g129
tp922
a(I0
g131
tp923
a(I1
g129
tp924
a(I2
g135
tp925
a(I3
g131
tp926
a(I0
g135
tp927
a(I1
g127
tp928
a(I2
g131
tp929
a(I3
g129
tp930
a(I0
g127
tp931
a(I1
g129
tp932
a(I2
g127
tp933
a(I3
g131
tp934
a(I0
g127
tp935
a(I1
g135
tp936
a(I2
g129
tp937
a(I3
g131
tp938
a(I0
g127
tp939
a(I1
g135
tp940
a(I2
g127
tp941
a(I3
g135
tp942
a(I0
g127
tp943
a(I1
g127
tp944
a(I2
g129
tp945
a(I3
g135
tp946
a(I0
g127
tp947
a(I1
g135
tp948
a(I2
g127
tp949
a(I3
g135
tp950
a(I0
g127
tp951
a(I1
g127
tp952
a(I2
g129
tp953
a(I3
g127
tp954
a(I0
g127
tp955
a(I1
g309
tp956
a(I2
g129
tp957
a(I3
g127
tp958
a(I0
g127
tp959
a(I1
g129
tp960
a(I2
g129
tp961
a(I3
g127
tp962
a(I0
g135
tp963
a(I1
g131
tp964
a(I2
g127
tp965
a(I3
g129
tp966
a(I0
g131
tp967
a(I1
g135
tp968
a(I2
g129
tp969
a(I3
g129
tp970
a(I0
g127
tp971
a(I1
g131
tp972
a(I2
g129
tp973
a(I3
g131
tp974
a(I0
g127
tp975
a(I1
g129
tp976
a(I2
g129
tp977
a(I3
g129
tp978
a(I0
g135
tp979
a(I1
g131
tp980
a(I2
g129
tp981
a(I3
g131
tp982
a(I0
g127
tp983
a(I1
g131
tp984
a(I2
g129
tp985
a(I3
g131
tp986
a(I0
g127
tp987
a(I1
g127
tp988
a(I2
g127
tp989
a(I3
g127
tp990
a(I0
g127
tp991
a(I1
g129
tp992
a(I2
g129
tp993
a(I3
g129
tp994
a(I0
g129
tp995
a(I1
g127
tp996
a(I2
g127
tp997
a(I3
g135
tp998
a(I0
g129
tp999
a(I1
g129
tp1000
a(I2
g129
tp1001
a(I3
g131
tp1002
a(I0
g129
tp1003
a(I1
g127
tp1004
a(I2
g127
tp1005
a(I3
g127
tp1006
a(I0
g131
tp1007
asS'length'
p1008
I1200
sS'agents'
p1009
(lp1010
(igame
Agent
p1011
(dp1012
S'index'
p1013
I0
sba(igame
Agent
p1014
(dp1015
g1013
I0
sba(igame
Agent
p1016
(dp1017
g1013
I0
sba(igame
Agent
p1018
(dp1019
g1013
I0
sbasS'redTeamName'
p1020
S'Red'
p1021
s.