(dp1
S'layout'
p2
(ilayout
Layout
p3
(dp4
S'capsules'
p5
(lp6
(I19
I3
tp7
a(I14
I14
tp8
asS'numGhosts'
p9
I4
sS'food'
p10
(igame
Grid
p11
(dp12
S'CELLS_PER_INT'
p13
I30
sS'width'
p14
I34
sS'data'
p15
(lp16
(lp17
I00
aI00
aI00
aI00
aI00
aI00
aI00
aI00
aI00
aI00
aI00
aI00
aI00
aI00
aI00
aI00
aI00
aI00
aa(lp18
I00
aI00
aI00
aI00
aI00
aI00
aI00
aI00
aI01
aI01
aI00
aI00
aI00
aI00
aI01
aI00
aI01
aI00
aa(lp19
I00
aI00
aI00
aI00
aI00
aI00
aI00
aI00
aI00
aI00
aI00
aI00
aI00
aI00
aI01
aI00
aI01
aI00
aa(lp20
I00
aI00
aI00
aI00
aI00
aI00
aI00
aI00
aI00
aI01
aI00
aI00
aI01
aI00
aI00
aI00
aI00
aI00
aa(lp21
I00
aI00
aI00
aI00
aI00
aI00
aI01
aI00
aI00
aI00
aI00
aI00
aI00
aI00
aI01
aI00
aI00
aI00
aa(lp22
I00
aI00
aI00
aI00
aI00
aI00
aI00
aI00
aI00
aI01
aI00
aI01
aI00
aI00
aI00
aI00
aI00
aI00
aa(lp23
I00
aI00
aI00
aI00
aI00
aI00
aI01
aI00
aI00
aI00
aI00
aI01
aI01
aI00
aI00
aI00
aI00
aI00
aa(lp24
I00
aI00
aI00
aI00
aI00
aI00
aI00
aI00
aI00
aI00
aI00
aI00
aI00
aI00
aI00
aI00
aI00
aI00
aa(lp25
I00
aI00
aI00
aI00
aI00
aI00
aI01
aI00
aI01
aI01
aI00
aI00
aI01
aI00
aI00
aI00
aI00
aI00
aa(lp26
I00
aI00
aI00
aI00
aI00
aI01
aI00
aI00
aI00
aI00
aI00
aI00
aI00
aI00
aI00
aI00
aI00
aI00
aa(lp27
I00
aI00
aI01
aI00
aI00
aI00
aI00
aI00
aI00
aI00
aI00
aI00
aI01
aI00
aI00
aI00
aI00
aI00
aa(lp28
I00
aI00
aI00
aI00
aI00
aI00
aI00
aI00
aI00
aI00
aI00
aI00
aI00
aI00
aI00
aI00
aI01
aI00
aa(lp29
I00
aI00
aI00
aI01
aI00
aI00
aI00
aI00
aI01
aI00
aI00
aI00
aI00
aI00
aI00
aI00
aI00
aI00
aa(lp30
I00
aI00
aI00
aI00
aI00
aI00
aI00
aI00
aI00
aI00
aI00
aI00
aI01
aI00
aI00
aI00
aI00
aI00
aa(lp31
I00
aI00
aI00
aI01
aI01
aI00
aI00
aI00
aI00
aI00
aI00
aI00
aI00
aI00
aI00
aI00
aI00
aI00
aa(lp32
I00
aI00
aI00
aI00
aI00
aI00
aI00
aI00
aI00
aI00
aI00
aI00
aI00
aI00
aI00
aI00
aI00
aI00
aa(lp33
I00
aI00
aI00
aI00
aI00
aI01
aI00
aI00
aI00
aI00
aI01
aI00
aI00
aI00
aI00
aI00
aI00
aI00
aa(lp34
I00
aI00
aI00
aI00
aI00
aI00
aI00
aI01
aI00
aI00
aI00
aI00
aI01
aI00
aI00
aI00
aI00
aI00
aa(lp35
I00
aI00
aI00
aI00
aI00
aI00
aI00
aI00
aI00
aI00
aI00
aI00
aI00
aI00
aI00
aI00
aI00
aI00
aa(lp36
I00
aI00
aI00
aI00
aI00
aI00
aI00
aI00
aI00
aI00
aI00
aI00
aI00
aI01
aI01
aI00
aI00
aI00
aa(lp37
I00
aI00
aI00
aI00
aI00
aI01
aI00
aI00
aI00
aI00
aI00
aI00
aI00
aI00
aI00
aI00
aI00
aI00
aa(lp38
I00
aI00
aI00
aI00
aI00
aI00
aI00
aI00
aI00
aI01
aI00
aI00
aI00
aI00
aI01
aI00
aI00
aI00
aa(lp39
I00
aI01
aI00
aI00
aI00
aI00
aI00
aI00
aI00
aI00
aI00
aI00
aI00
aI00
aI00
aI00
aI00
aI00
aa(lp40
I00
aI00
aI00
aI00
aI00
aI01
aI00
aI00
aI00
aI00
aI00
aI00
aI00
aI00
aI00
aI01
aI00
aI00
aa(lp41
I00
aI00
aI00
aI00
aI00
aI00
aI00
aI00
aI00
aI00
aI00
aI00
aI01
aI00
aI00
aI00
aI00
aI00
aa(lp42
I00
aI00
aI00
aI00
aI00
aI01
aI00
aI00
aI01
aI01
aI00
aI01
aI00
aI00
aI00
aI00
aI00
aI00
aa(lp43
I00
aI00
aI00
aI00
aI00
aI00
aI00
aI00
aI00
aI00
aI00
aI00
aI00
aI00
aI00
aI00
aI00
aI00
aa(lp44
I00
aI00
aI00
aI00
aI00
aI01
aI01
aI00
aI00
aI00
aI00
aI01
aI00
aI00
aI00
aI00
aI00
aI00
aa(lp45
I00
aI00
aI00
aI00
aI00
aI00
aI01
aI00
aI01
aI00
aI00
aI00
aI00
aI00
aI00
aI00
aI00
aI00
aa(lp46
I00
aI00
aI00
aI01
aI00
aI00
aI00
aI00
aI00
aI00
aI00
aI01
aI00
aI00
aI00
aI00
aI00
aI00
aa(lp47
I00
aI00
aI00
aI00
aI00
aI01
aI00
aI00
aI01
aI00
aI00
aI00
aI00
aI00
aI00
aI00
aI00
aI00
aa(lp48
I00
aI01
aI00
aI01
aI00
aI00
aI00
aI00
aI00
aI00
aI00
aI00
aI00
aI00
aI00
aI00
aI00
aI00
aa(lp49
I00
aI01
aI00
aI01
aI00
aI00
aI00
aI00
aI01
aI01
aI00
aI00
aI00
aI00
aI00
aI00
aI00
aI00
aa(lp50
I00
aI00
aI00
aI00
aI00
aI00
aI00
aI00
aI00
aI00
aI00
aI00
aI00
aI00
aI00
aI00
aI00
aI00
aasS'height'
p51
I18
sbsS'agentPositions'
p52
(lp53
(I00
(I1
I2
tp54
tp55
a(I00
(I32
I15
tp56
tp57
a(I00
(I1
I1
tp58
tp59
a(I00
(I32
I16
tp60
tp61
asg51
I18
sg14
I34
sS'walls'
p62
(igame
Grid
p63
(dp64
g13
I30
sg14
I34
sg15
(lp65
(lp66
I01
aI01
aI01
aI01
aI01
aI01
aI01
aI01
aI01
aI01
aI01
aI01
aI01
aI01
aI01
aI01
aI01
aI01
aa(lp67
I01
aI00
aI00
aI00
aI00
aI00
aI00
aI00
aI00
aI00
aI01
aI00
aI00
aI01
aI00
aI01
aI00
aI01
aa(lp68
I01
aI01
aI01
aI01
aI01
aI01
aI00
aI01
aI01
aI01
aI01
aI00
aI00
aI01
aI00
aI01
aI00
aI01
aa(lp69
I01
aI00
aI00
aI00
aI00
aI00
aI00
aI01
aI00
aI00
aI01
aI00
aI00
aI01
aI00
aI01
aI00
aI01
aa(lp70
I01
aI01
aI01
aI01
aI00
aI01
aI00
aI00
aI00
aI00
aI00
aI00
aI00
aI01
aI00
aI00
aI00
aI01
aa(lp71
I01
aI00
aI00
aI01
aI00
aI00
aI00
aI01
aI00
aI00
aI01
aI00
aI00
aI01
aI00
aI01
aI00
aI01
aa(lp72
I01
aI00
aI00
aI00
aI00
aI01
aI00
aI01
aI00
aI00
aI01
aI00
aI00
aI00
aI00
aI01
aI00
aI01
aa(lp73
I01
aI01
aI00
aI01
aI01
aI01
aI01
aI01
aI01
aI01
aI01
aI01
aI01
aI01
aI00
aI01
aI00
aI01
aa(lp74
I01
aI00
aI00
aI00
aI00
aI00
aI00
aI01
aI00
aI00
aI00
aI00
aI00
aI01
aI00
aI01
aI00
aI01
aa(lp75
I01
aI00
aI01
aI01
aI01
aI00
aI01
aI01
aI01
aI01
aI01
aI00
aI01
aI01
aI00
aI01
aI00
aI01
aa(lp76
I01
aI00
aI00
aI00
aI00
aI00
aI00
aI00
aI00
aI00
aI00
aI00
aI00
aI01
aI00
aI01
aI00
aI01
aa(lp77
I01
aI00
aI01
aI01
aI01
aI00
aI01
aI01
aI01
aI01
aI01
aI01
aI01
aI01
aI00
aI01
aI00
aI01
aa(lp78
I01
aI00
aI01
aI00
aI00
aI00
aI00
aI00
aI00
aI00
aI00
aI00
aI00
aI00
aI00
aI01
aI00
aI01
aa(lp79
I01
aI00
aI01
aI01
aI00
aI01
aI01
aI01
aI01
aI00
aI01
aI01
aI00
aI00
aI00
aI01
aI00
aI01
aa(lp80
I01
aI00
aI01
aI00
aI00
aI00
aI00
aI00
aI00
aI00
aI00
aI00
aI00
aI01
aI00
aI00
aI00
aI01
aa(lp81
I01
aI00
aI01
aI01
aI01
aI01
aI00
aI00
aI01
aI01
aI00
aI01
aI00
aI01
aI01
aI01
aI00
aI01
aa(lp82
I01
aI00
aI00
aI00
aI00
aI00
aI00
aI00
aI00
aI00
aI00
aI00
aI00
aI00
aI00
aI00
aI00
aI01
aa(lp83
I01
aI00
aI00
aI00
aI00
aI00
aI00
aI00
aI00
aI00
aI00
aI00
aI00
aI00
aI00
aI00
aI00
aI01
aa(lp84
I01
aI00
aI01
aI01
aI01
aI00
aI01
aI00
aI01
aI01
aI00
aI00
aI01
aI01
aI01
aI01
aI00
aI01
aa(lp85
I01
aI00
aI00
aI00
aI01
aI00
aI00
aI00
aI00
aI00
aI00
aI00
aI00
aI00
aI00
aI01
aI00
aI01
aa(lp86
I01
aI00
aI01
aI00
aI00
aI00
aI01
aI01
aI00
aI01
aI01
aI01
aI01
aI00
aI01
aI01
aI00
aI01
aa(lp87
I01
aI00
aI01
aI00
aI00
aI00
aI00
aI00
aI00
aI00
aI00
aI00
aI00
aI00
aI00
aI01
aI00
aI01
aa(lp88
I01
aI00
aI01
aI00
aI01
aI01
aI01
aI01
aI01
aI01
aI01
aI01
aI00
aI01
aI01
aI01
aI00
aI01
aa(lp89
I01
aI00
aI01
aI00
aI01
aI00
aI00
aI00
aI00
aI00
aI00
aI00
aI00
aI00
aI00
aI00
aI00
aI01
aa(lp90
I01
aI00
aI01
aI00
aI01
aI01
aI00
aI01
aI01
aI01
aI01
aI01
aI00
aI01
aI01
aI01
aI00
aI01
aa(lp91
I01
aI00
aI01
aI00
aI01
aI00
aI00
aI00
aI00
aI00
aI01
aI00
aI00
aI00
aI00
aI00
aI00
aI01
aa(lp92
I01
aI00
aI01
aI00
aI01
aI01
aI01
aI01
aI01
aI01
aI01
aI01
aI01
aI01
aI01
aI00
aI01
aI01
aa(lp93
I01
aI00
aI01
aI00
aI00
aI00
aI00
aI01
aI00
aI00
aI01
aI00
aI01
aI00
aI00
aI00
aI00
aI01
aa(lp94
I01
aI00
aI01
aI00
aI01
aI00
aI00
aI01
aI00
aI00
aI01
aI00
aI00
aI00
aI01
aI00
aI00
aI01
aa(lp95
I01
aI00
aI00
aI00
aI01
aI00
aI00
aI00
aI00
aI00
aI00
aI00
aI01
aI00
aI01
aI01
aI01
aI01
aa(lp96
I01
aI00
aI01
aI00
aI01
aI00
aI00
aI01
aI00
aI00
aI01
aI00
aI00
aI00
aI00
aI00
aI00
aI01
aa(lp97
I01
aI00
aI01
aI00
aI01
aI00
aI00
aI01
aI01
aI01
aI01
aI00
aI01
aI01
aI01
aI01
aI01
aI01
aa(lp98
I01
aI00
aI01
aI00
aI01
aI00
aI00
aI01
aI00
aI00
aI00
aI00
aI00
aI00
aI00
aI00
aI00
aI01
aa(lp99
I01
aI01
aI01
aI01
aI01
aI01
aI01
aI01
aI01
aI01
aI01
aI01
aI01
aI01
aI01
aI01
aI01
aI01
aasg51
I18
sbsS'totalFood'
p100
I60
sS'layoutText'
p101
(lp102
S'%%%%%%%%%%%%%%%%%%%%%%%%%%%%%%%%%%'
p103
aS'%..        .              %  % %4%'
p104
aS'%%%% %%%%%%%%% %  %%%%%.%    % %2%'
p105
aS'%.. .         o%  %.%.% % % %% % %'
p106
aS'%%%%%% %%%%%  %%  %.  % % %    % %'
p107
aS'%  .  .%.%.% .   .% %   . %% % % %'
p108
aS'%    ..%   % % %    % % %.%. .   %'
p109
aS'%%%% %%% % % %  .   % % %%%%% %% %'
p110
aS'%.%. . %.% %   %  % %.% %.%    %.%'
p111
aS'%.%    %.% %.% %  %   % %.% . .%.%'
p112
aS'% %% %%%%% % %   .  % % % %%% %%%%'
p113
aS'%   . .%.% % %    % % %   %..    %'
p114
aS'% % % %% .   % %.   . %.%.%.  .  %'
p115
aS'% %    % % %  .%  %%  %%%%% %%%%%%'
p116
aS'% % %% % % %.%.%  %o         . ..%'
p117
aS'%1% %    %.%%%%%  % %%%%%%%%% %%%%'
p118
aS'%3% %  %              .        ..%'
p119
aS'%%%%%%%%%%%%%%%%%%%%%%%%%%%%%%%%%%'
p120
asbsS'blueTeamName'
p121
S'Blue'
p122
sS'actions'
p123
(lp124
(I1
S'South'
p125
tp126
a(I2
S'North'
p127
tp128
a(I3
g125
tp129
a(I0
g127
tp130
a(I1
g125
tp131
a(I2
g127
tp132
a(I3
g125
tp133
a(I0
g127
tp134
a(I1
g125
tp135
a(I2
g127
tp136
a(I3
g125
tp137
a(I0
g127
tp138
a(I1
g125
tp139
a(I2
g127
tp140
a(I3
g125
tp141
a(I0
g127
tp142
a(I1
S'West'
p143
tp144
a(I2
g127
tp145
a(I3
g125
tp146
a(I0
S'East'
p147
tp148
a(I1
g143
tp149
a(I2
g147
tp150
a(I3
g125
tp151
a(I0
g147
tp152
a(I1
g127
tp153
a(I2
g147
tp154
a(I3
g125
tp155
a(I0
g147
tp156
a(I1
g127
tp157
a(I2
g147
tp158
a(I3
g125
tp159
a(I0
g147
tp160
a(I1
g143
tp161
a(I2
g147
tp162
a(I3
g127
tp163
a(I0
g125
tp164
a(I1
g143
tp165
a(I2
g125
tp166
a(I3
g127
tp167
a(I0
g125
tp168
a(I1
g143
tp169
a(I2
g125
tp170
a(I3
g127
tp171
a(I0
g147
tp172
a(I1
g127
tp173
a(I2
g147
tp174
a(I3
g127
tp175
a(I0
g125
tp176
a(I1
g127
tp177
a(I2
g125
tp178
a(I3
g127
tp179
a(I0
g125
tp180
a(I1
g143
tp181
a(I2
g125
tp182
a(I3
g127
tp183
a(I0
g147
tp184
a(I1
g143
tp185
a(I2
g147
tp186
a(I3
g127
tp187
a(I0
g147
tp188
a(I1
g127
tp189
a(I2
g147
tp190
a(I3
g127
tp191
a(I0
g125
tp192
a(I1
g143
tp193
a(I2
g125
tp194
a(I3
g125
tp195
a(I0
g147
tp196
a(I1
g143
tp197
a(I2
g147
tp198
a(I3
g125
tp199
a(I0
g147
tp200
a(I1
g143
tp201
a(I2
g147
tp202
a(I3
g125
tp203
a(I0
g147
tp204
a(I1
g143
tp205
a(I2
g147
tp206
a(I3
g125
tp207
a(I0
g147
tp208
a(I1
g143
tp209
a(I2
g147
tp210
a(I3
g125
tp211
a(I0
g147
tp212
a(I1
g143
tp213
a(I2
g147
tp214
a(I3
g125
tp215
a(I0
g147
tp216
a(I1
g143
tp217
a(I2
g147
tp218
a(I3
g125
tp219
a(I0
g147
tp220
a(I1
g143
tp221
a(I2
g147
tp222
a(I3
g125
tp223
a(I0
g147
tp224
a(I1
g143
tp225
a(I2
g147
tp226
a(I3
g127
tp227
a(I0
g147
tp228
a(I1
g143
tp229
a(I2
g147
tp230
a(I3
g127
tp231
a(I0
g147
tp232
a(I1
g143
tp233
a(I2
g127
tp234
a(I3
g127
tp235
a(I0
g147
tp236
a(I1
g143
tp237
a(I2
g143
tp238
a(I3
g143
tp239
a(I0
g127
tp240
a(I1
g143
tp241
a(I2
g125
tp242
a(I3
g143
tp243
a(I0
g127
tp244
a(I1
g143
tp245
a(I2
g143
tp246
a(I3
g127
tp247
a(I0
g147
tp248
a(I1
g147
tp249
a(I2
g143
tp250
a(I3
g127
tp251
a(I0
g127
tp252
a(I1
g147
tp253
a(I2
g143
tp254
a(I3
g127
tp255
a(I0
g127
tp256
a(I1
g147
tp257
a(I2
g143
tp258
a(I3
g127
tp259
a(I0
g143
tp260
a(I1
g147
tp261
a(I2
g143
tp262
a(I3
g127
tp263
a(I0
g143
tp264
a(I1
g147
tp265
a(I2
g147
tp266
a(I3
g125
tp267
a(I0
g143
tp268
a(I1
g147
tp269
a(I2
g147
tp270
a(I3
g125
tp271
a(I0
g127
tp272
a(I1
g125
tp273
a(I2
g147
tp274
a(I3
g125
tp275
a(I0
g127
tp276
a(I1
g125
tp277
a(I2
g147
tp278
a(I3
g143
tp279
a(I0
g143
tp280
a(I1
g125
tp281
a(I2
g147
tp282
a(I3
g143
tp283
a(I0
g147
tp284
a(I1
g125
tp285
a(I2
g147
tp286
a(I3
g143
tp287
a(I0
g127
tp288
a(I1
g143
tp289
a(I2
g127
tp290
a(I3
g127
tp291
a(I0
g127
tp292
a(I1
g143
tp293
a(I2
g127
tp294
a(I3
g127
tp295
a(I0
g127
tp296
a(I1
g143
tp297
a(I2
g127
tp298
a(I3
g143
tp299
a(I0
g127
tp300
a(I1
g143
tp301
a(I2
g127
tp302
a(I3
g143
tp303
a(I0
g127
tp304
a(I1
g147
tp305
a(I2
g127
tp306
a(I3
g127
tp307
a(I0
g143
tp308
a(I1
g125
tp309
a(I2
g127
tp310
a(I3
g143
tp311
a(I0
g147
tp312
a(I1
g125
tp313
a(I2
g127
tp314
a(I3
g143
tp315
a(I0
g125
tp316
a(I1
g125
tp317
a(I2
g143
tp318
a(I3
g143
tp319
a(I0
g147
tp320
a(I1
g143
tp321
a(I2
g127
tp322
a(I3
g143
tp323
a(I0
g147
tp324
a(I1
g143
tp325
a(I2
g127
tp326
a(I3
g143
tp327
a(I0
g127
tp328
a(I1
g125
tp329
a(I2
g143
tp330
a(I3
g143
tp331
a(I0
g127
tp332
a(I1
g125
tp333
a(I2
g143
tp334
a(I3
g143
tp335
a(I0
g127
tp336
a(I1
g125
tp337
a(I2
g125
tp338
a(I3
g143
tp339
a(I0
g125
tp340
a(I1
g125
tp341
a(I2
g143
tp342
a(I3
g125
tp343
a(I0
g147
tp344
a(I1
g143
tp345
a(I2
g143
tp346
a(I3
g125
tp347
a(I0
g147
tp348
a(I1
g143
tp349
a(I2
g125
tp350
a(I3
g125
tp351
a(I0
g127
tp352
a(I1
g147
tp353
a(I2
g125
tp354
a(I3
g125
tp355
a(I0
g125
tp356
a(I1
g147
tp357
a(I2
g125
tp358
a(I3
g125
tp359
a(I0
g125
tp360
a(I1
g127
tp361
a(I2
g125
tp362
a(I3
g147
tp363
a(I0
g125
tp364
a(I1
g125
tp365
a(I2
g125
tp366
a(I3
g147
tp367
a(I0
g125
tp368
a(I1
g125
tp369
a(I2
g147
tp370
a(I3
g127
tp371
a(I0
g125
tp372
a(I1
g125
tp373
a(I2
g147
tp374
a(I3
g127
tp375
a(I0
g125
tp376
a(I1
g125
tp377
a(I2
g127
tp378
a(I3
g147
tp379
a(I0
g143
tp380
a(I1
g143
tp381
a(I2
g127
tp382
a(I3
g147
tp383
a(I0
g143
tp384
a(I1
g143
tp385
a(I2
g147
tp386
a(I3
g125
tp387
a(I0
g125
tp388
a(I1
g127
tp389
a(I2
g147
tp390
a(I3
g147
tp391
a(I0
g143
tp392
a(I1
g127
tp393
a(I2
g147
tp394
a(I3
g147
tp395
a(I0
g143
tp396
a(I1
g127
tp397
a(I2
g125
tp398
a(I3
g147
tp399
a(I0
g143
tp400
a(I1
g125
tp401
a(I2
g147
tp402
a(I3
g147
tp403
a(I0
g147
tp404
a(I1
g143
tp405
a(I2
g147
tp406
a(I3
g125
tp407
a(I0
g125
tp408
a(I1
g143
tp409
a(I2
g147
tp410
a(I3
g127
tp411
a(I0
g125
tp412
a(I1
g143
tp413
a(I2
g147
tp414
a(I3
g143
tp415
a(I0
g125
tp416
a(I1
g127
tp417
a(I2
g127
tp418
a(I3
g143
tp419
a(I0
g125
tp420
a(I1
g127
tp421
a(I2
g127
tp422
a(I3
g143
tp423
a(I0
g125
tp424
a(I1
g147
tp425
a(I2
g127
tp426
a(I3
g143
tp427
a(I0
g125
tp428
a(I1
g143
tp429
a(I2
g143
tp430
a(I3
g125
tp431
a(I0
g147
tp432
a(I1
g143
tp433
a(I2
g143
tp434
a(I3
g125
tp435
a(I0
g147
tp436
a(I1
g143
tp437
a(I2
g127
tp438
a(I3
g125
tp439
a(I0
g147
tp440
a(I1
g125
tp441
a(I2
g127
tp442
a(I3
g125
tp443
a(I0
g147
tp444
a(I1
g125
tp445
a(I2
g125
tp446
a(I3
g143
tp447
a(I0
g147
tp448
a(I1
g125
tp449
a(I2
g127
tp450
a(I3
g143
tp451
a(I0
g147
tp452
a(I1
g143
tp453
a(I2
g143
tp454
a(I3
g127
tp455
a(I0
g147
tp456
a(I1
g143
tp457
a(I2
g143
tp458
a(I3
g127
tp459
a(I0
g147
tp460
a(I1
g143
tp461
a(I2
g143
tp462
a(I3
g143
tp463
a(I0
g147
tp464
a(I1
g143
tp465
a(I2
g143
tp466
a(I3
g143
tp467
a(I0
g147
tp468
a(I1
g125
tp469
a(I2
g147
tp470
a(I3
g127
tp471
a(I0
g147
tp472
a(I1
g125
tp473
a(I2
g127
tp474
a(I3
g143
tp475
a(I0
g147
tp476
a(I1
g125
tp477
a(I2
g125
tp478
a(I3
g125
tp479
a(I0
g127
tp480
a(I1
g125
tp481
a(I2
g147
tp482
a(I3
g125
tp483
a(I0
g127
tp484
a(I1
g143
tp485
a(I2
g147
tp486
a(I3
g125
tp487
a(I0
g143
tp488
a(I1
g143
tp489
a(I2
g143
tp490
a(I3
g125
tp491
a(I0
g143
tp492
a(I1
g127
tp493
a(I2
g147
tp494
a(I3
g125
tp495
a(I0
g127
tp496
a(I1
g127
tp497
a(I2
g143
tp498
a(I3
g143
tp499
a(I0
g127
tp500
a(I1
g143
tp501
a(I2
g127
tp502
a(I3
g143
tp503
a(I0
g127
tp504
a(I1
g127
tp505
a(I2
g127
tp506
a(I3
g127
tp507
a(I0
g147
tp508
a(I1
g143
tp509
a(I2
g143
tp510
a(I3
g127
tp511
a(I0
g147
tp512
a(I1
g127
tp513
a(I2
g143
tp514
a(I3
g127
tp515
a(I0
g147
tp516
a(I1
g127
tp517
a(I2
g147
tp518
a(I3
g127
tp519
a(I0
g125
tp520
a(I1
g127
tp521
a(I2
g147
tp522
a(I3
g125
tp523
a(I0
g143
tp524
a(I1
g125
tp525
a(I2
g143
tp526
a(I3
g125
tp527
a(I0
g127
tp528
a(I1
g125
tp529
a(I2
g143
tp530
a(I3
g143
tp531
a(I0
g127
tp532
a(I1
g125
tp533
a(I2
g147
tp534
a(I3
g143
tp535
a(I0
g127
tp536
a(I1
g147
tp537
a(I2
g143
tp538
a(I3
g143
tp539
a(I0
g143
tp540
a(I1
g125
tp541
a(I2
g147
tp542
a(I3
g127
tp543
a(I0
g147
tp544
a(I1
g147
tp545
a(I2
g147
tp546
a(I3
g127
tp547
a(I0
g127
tp548
a(I1
g127
tp549
a(I2
g125
tp550
a(I3
g143
tp551
a(I0
g127
tp552
a(I1
g143
tp553
a(I2
g127
tp554
a(I3
g143
tp555
a(I0
g127
tp556
a(I1
g143
tp557
a(I2
g143
tp558
a(I3
g127
tp559
a(I0
g143
tp560
a(I1
g125
tp561
a(I2
g125
tp562
a(I3
g143
tp563
a(I0
g143
tp564
a(I1
g147
tp565
a(I2
g147
tp566
a(I3
g143
tp567
a(I0
g147
tp568
a(I1
g127
tp569
a(I2
g127
tp570
a(I3
g143
tp571
a(I0
g127
tp572
a(I1
g143
tp573
a(I2
g143
tp574
a(I3
g143
tp575
a(I0
g127
tp576
a(I1
g127
tp577
a(I2
g143
tp578
a(I3
g143
tp579
a(I0
g143
tp580
a(I1
g127
tp581
a(I2
g147
tp582
a(I3
g143
tp583
a(I0
g127
tp584
a(I1
g127
tp585
a(I2
g147
tp586
a(I3
g143
tp587
a(I0
g127
tp588
a(I1
g125
tp589
a(I2
g143
tp590
a(I3
g143
tp591
a(I0
g143
tp592
a(I1
g125
tp593
a(I2
g143
tp594
a(I3
g125
tp595
a(I0
g143
tp596
a(I1
g125
tp597
a(I2
g147
tp598
a(I3
g125
tp599
a(I0
g127
tp600
a(I1
g125
tp601
a(I2
g147
tp602
a(I3
g125
tp603
a(I0
g143
tp604
a(I1
g127
tp605
a(I2
g143
tp606
a(I3
g125
tp607
a(I0
g143
tp608
a(I1
g127
tp609
a(I2
g127
tp610
a(I3
g125
tp611
a(I0
g125
tp612
a(I1
g127
tp613
a(I2
g125
tp614
a(I3
g125
tp615
a(I0
g125
tp616
a(I1
g127
tp617
a(I2
g147
tp618
a(I3
g127
tp619
a(I0
g125
tp620
a(I1
g125
tp621
a(I2
g143
tp622
a(I3
g127
tp623
a(I0
g125
tp624
a(I1
g125
tp625
a(I2
g125
tp626
a(I3
g127
tp627
a(I0
g147
tp628
a(I1
g125
tp629
a(I2
g127
tp630
a(I3
g127
tp631
a(I0
g147
tp632
a(I1
g147
tp633
a(I2
g147
tp634
a(I3
g125
tp635
a(I0
g125
tp636
a(I1
g143
tp637
a(I2
g143
tp638
a(I3
g125
tp639
a(I0
g127
tp640
a(I1
g125
tp641
a(I2
g125
tp642
a(I3
g125
tp643
a(I0
g143
tp644
a(I1
g147
tp645
a(I2
g125
tp646
a(I3
g147
tp647
a(I0
g143
tp648
a(I1
g127
tp649
a(I2
g147
tp650
a(I3
g125
tp651
a(I0
g143
tp652
a(I1
g143
tp653
a(I2
g143
tp654
a(I3
g147
tp655
a(I0
g143
tp656
a(I1
g147
tp657
a(I2
g147
tp658
a(I3
g143
tp659
a(I0
g127
tp660
a(I1
g125
tp661
a(I2
g127
tp662
a(I3
g143
tp663
a(I0
g143
tp664
a(I1
g143
tp665
a(I2
g143
tp666
a(I3
g125
tp667
a(I0
g143
tp668
a(I1
g127
tp669
a(I2
g125
tp670
a(I3
g127
tp671
a(I0
g147
tp672
a(I1
g147
tp673
a(I2
g143
tp674
a(I3
g127
tp675
a(I0
g147
tp676
a(I1
g147
tp677
a(I2
g143
tp678
a(I3
g147
tp679
a(I0
g127
tp680
a(I1
g127
tp681
a(I2
g147
tp682
a(I3
g147
tp683
a(I0
g125
tp684
a(I1
g127
tp685
a(I2
g147
tp686
a(I3
g127
tp687
a(I0
g125
tp688
a(I1
g147
tp689
a(I2
g147
tp690
a(I3
g127
tp691
a(I0
g125
tp692
a(I1
g147
tp693
a(I2
g147
tp694
a(I3
g147
tp695
a(I0
g125
tp696
a(I1
g125
tp697
a(I2
g147
tp698
a(I3
g147
tp699
a(I0
g125
tp700
a(I1
g125
tp701
a(I2
g127
tp702
a(I3
g125
tp703
a(I0
g125
tp704
a(I1
g125
tp705
a(I2
g127
tp706
a(I3
g125
tp707
a(I0
g143
tp708
a(I1
g125
tp709
a(I2
g127
tp710
a(I3
g125
tp711
a(I0
g143
tp712
a(I1
g125
tp713
a(I2
g147
tp714
a(I3
g125
tp715
a(I0
g125
tp716
a(I1
g143
tp717
a(I2
g147
tp718
a(I3
g125
tp719
a(I0
g143
tp720
a(I1
g143
tp721
a(I2
g143
tp722
a(I3
g143
tp723
a(I0
g143
tp724
a(I1
g125
tp725
a(I2
g147
tp726
a(I3
g143
tp727
a(I0
g143
tp728
a(I1
g125
tp729
a(I2
g125
tp730
a(I3
g125
tp731
a(I0
g147
tp732
a(I1
g127
tp733
a(I2
g125
tp734
a(I3
g143
tp735
a(I0
g125
tp736
a(I1
g143
tp737
a(I2
g125
tp738
a(I3
g143
tp739
a(I0
g125
tp740
a(I1
g143
tp741
a(I2
g125
tp742
a(I3
g125
tp743
a(I0
g147
tp744
a(I1
g125
tp745
a(I2
g125
tp746
a(I3
g125
tp747
a(I0
g147
tp748
a(I1
g125
tp749
a(I2
g125
tp750
a(I3
g147
tp751
a(I0
g147
tp752
a(I1
g147
tp753
a(I2
g125
tp754
a(I3
g147
tp755
a(I0
g147
tp756
a(I1
g147
tp757
a(I2
g125
tp758
a(I3
g147
tp759
a(I0
g125
tp760
a(I1
g147
tp761
a(I2
g125
tp762
a(I3
g147
tp763
a(I0
g125
tp764
a(I1
g147
tp765
a(I2
g143
tp766
a(I3
g125
tp767
a(I0
g147
tp768
a(I1
g125
tp769
a(I2
g125
tp770
a(I3
g125
tp771
a(I0
g147
tp772
a(I1
g125
tp773
a(I2
g127
tp774
a(I3
g147
tp775
a(I0
g147
tp776
a(I1
g143
tp777
a(I2
g147
tp778
a(I3
g147
tp779
a(I0
g147
tp780
a(I1
g127
tp781
a(I2
g125
tp782
a(I3
g147
tp783
a(I0
g147
tp784
a(I1
g147
tp785
a(I2
g147
tp786
a(I3
g147
tp787
a(I0
g147
tp788
a(I1
g125
tp789
a(I2
g143
tp790
a(I3
g147
tp791
a(I0
g147
tp792
a(I1
g147
tp793
a(I2
g127
tp794
a(I3
g147
tp795
a(I0
g147
tp796
a(I1
g147
tp797
a(I2
g127
tp798
a(I3
g147
tp799
a(I0
g147
tp800
a(I1
g147
tp801
a(I2
g127
tp802
a(I3
g147
tp803
a(I0
g143
tp804
a(I1
g143
tp805
a(I2
g127
tp806
a(I3
g125
tp807
a(I0
g127
tp808
a(I1
g143
tp809
a(I2
g127
tp810
a(I3
g125
tp811
a(I0
g127
tp812
a(I1
g143
tp813
a(I2
g147
tp814
a(I3
g143
tp815
a(I0
g127
tp816
a(I1
g127
tp817
a(I2
g147
tp818
a(I3
g143
tp819
a(I0
g127
tp820
a(I1
g127
tp821
a(I2
g147
tp822
a(I3
g143
tp823
a(I0
g147
tp824
a(I1
g143
tp825
a(I2
g147
tp826
a(I3
g143
tp827
a(I0
g147
tp828
a(I1
g143
tp829
a(I2
g125
tp830
a(I3
g143
tp831
a(I0
g147
tp832
a(I1
g143
tp833
a(I2
g125
tp834
a(I3
g143
tp835
a(I0
g147
tp836
a(I1
g143
tp837
a(I2
g147
tp838
a(I3
g143
tp839
a(I0
g125
tp840
a(I1
g143
tp841
a(I2
g125
tp842
a(I3
g143
tp843
a(I0
g125
tp844
a(I1
g125
tp845
a(I2
g125
tp846
a(I3
g143
tp847
a(I0
g147
tp848
a(I1
g147
tp849
a(I2
g147
tp850
a(I3
g143
tp851
a(I0
g125
tp852
a(I1
g143
tp853
a(I2
g147
tp854
a(I3
g127
tp855
a(I0
g125
tp856
a(I1
g127
tp857
a(I2
g125
tp858
a(I3
g127
tp859
a(I0
g147
tp860
a(I1
g127
tp861
a(I2
g147
tp862
a(I3
g147
tp863
a(I0
g147
tp864
a(I1
g127
tp865
a(I2
g147
tp866
a(I3
g147
tp867
a(I0
g125
tp868
a(I1
g127
tp869
a(I2
g147
tp870
a(I3
g127
tp871
a(I0
g147
tp872
a(I1
g127
tp873
a(I2
g147
tp874
a(I3
g127
tp875
a(I0
g147
tp876
a(I1
g147
tp877
a(I2
g147
tp878
a(I3
g143
tp879
a(I0
g147
tp880
a(I1
g127
tp881
a(I2
g147
tp882
a(I3
g143
tp883
a(I0
g147
tp884
a(I1
g143
tp885
a(I2
g147
tp886
a(I3
g127
tp887
a(I0
g147
tp888
a(I1
g125
tp889
a(I2
g147
tp890
a(I3
g127
tp891
a(I0
g147
tp892
a(I1
g147
tp893
a(I2
g147
tp894
a(I3
g127
tp895
a(I0
g147
tp896
a(I1
g125
tp897
a(I2
g143
tp898
a(I3
g147
tp899
a(I0
g147
tp900
a(I1
g125
tp901
a(I2
g147
tp902
a(I3
g147
tp903
a(I0
g147
tp904
a(I1
g125
tp905
a(I2
g127
tp906
a(I3
g125
tp907
a(I0
g147
tp908
a(I1
g143
tp909
a(I2
g127
tp910
a(I3
g125
tp911
a(I0
g147
tp912
asS'length'
p913
I1200
sS'agents'
p914
(lp915
(igame
Agent
p916
(dp917
S'index'
p918
I0
sba(igame
Agent
p919
(dp920
g918
I0
sba(igame
Agent
p921
(dp922
g918
I0
sba(igame
Agent
p923
(dp924
g918
I0
sbasS'redTeamName'
p925
S'Red'
p926
s.