(dp1
S'layout'
p2
(ilayout
Layout
p3
(dp4
S'capsules'
p5
(lp6
(I19
I3
tp7
a(I14
I14
tp8
asS'numGhosts'
p9
I4
sS'food'
p10
(igame
Grid
p11
(dp12
S'CELLS_PER_INT'
p13
I30
sS'width'
p14
I34
sS'data'
p15
(lp16
(lp17
I00
aI00
aI00
aI00
aI00
aI00
aI00
aI00
aI00
aI00
aI00
aI00
aI00
aI00
aI00
aI00
aI00
aI00
aa(lp18
I00
aI00
aI00
aI00
aI00
aI00
aI00
aI00
aI01
aI01
aI00
aI00
aI00
aI00
aI01
aI00
aI01
aI00
aa(lp19
I00
aI00
aI00
aI00
aI00
aI00
aI00
aI00
aI00
aI00
aI00
aI00
aI00
aI00
aI01
aI00
aI01
aI00
aa(lp20
I00
aI00
aI00
aI00
aI00
aI00
aI00
aI00
aI00
aI01
aI00
aI00
aI01
aI00
aI00
aI00
aI00
aI00
aa(lp21
I00
aI00
aI00
aI00
aI00
aI00
aI01
aI00
aI00
aI00
aI00
aI00
aI00
aI00
aI01
aI00
aI00
aI00
aa(lp22
I00
aI00
aI00
aI00
aI00
aI00
aI00
aI00
aI00
aI01
aI00
aI01
aI00
aI00
aI00
aI00
aI00
aI00
aa(lp23
I00
aI00
aI00
aI00
aI00
aI00
aI01
aI00
aI00
aI00
aI00
aI01
aI01
aI00
aI00
aI00
aI00
aI00
aa(lp24
I00
aI00
aI00
aI00
aI00
aI00
aI00
aI00
aI00
aI00
aI00
aI00
aI00
aI00
aI00
aI00
aI00
aI00
aa(lp25
I00
aI00
aI00
aI00
aI00
aI00
aI01
aI00
aI01
aI01
aI00
aI00
aI01
aI00
aI00
aI00
aI00
aI00
aa(lp26
I00
aI00
aI00
aI00
aI00
aI01
aI00
aI00
aI00
aI00
aI00
aI00
aI00
aI00
aI00
aI00
aI00
aI00
aa(lp27
I00
aI00
aI01
aI00
aI00
aI00
aI00
aI00
aI00
aI00
aI00
aI00
aI01
aI00
aI00
aI00
aI00
aI00
aa(lp28
I00
aI00
aI00
aI00
aI00
aI00
aI00
aI00
aI00
aI00
aI00
aI00
aI00
aI00
aI00
aI00
aI01
aI00
aa(lp29
I00
aI00
aI00
aI01
aI00
aI00
aI00
aI00
aI01
aI00
aI00
aI00
aI00
aI00
aI00
aI00
aI00
aI00
aa(lp30
I00
aI00
aI00
aI00
aI00
aI00
aI00
aI00
aI00
aI00
aI00
aI00
aI01
aI00
aI00
aI00
aI00
aI00
aa(lp31
I00
aI00
aI00
aI01
aI01
aI00
aI00
aI00
aI00
aI00
aI00
aI00
aI00
aI00
aI00
aI00
aI00
aI00
aa(lp32
I00
aI00
aI00
aI00
aI00
aI00
aI00
aI00
aI00
aI00
aI00
aI00
aI00
aI00
aI00
aI00
aI00
aI00
aa(lp33
I00
aI00
aI00
aI00
aI00
aI01
aI00
aI00
aI00
aI00
aI01
aI00
aI00
aI00
aI00
aI00
aI00
aI00
aa(lp34
I00
aI00
aI00
aI00
aI00
aI00
aI00
aI01
aI00
aI00
aI00
aI00
aI01
aI00
aI00
aI00
aI00
aI00
aa(lp35
I00
aI00
aI00
aI00
aI00
aI00
aI00
aI00
aI00
aI00
aI00
aI00
aI00
aI00
aI00
aI00
aI00
aI00
aa(lp36
I00
aI00
aI00
aI00
aI00
aI00
aI00
aI00
aI00
aI00
aI00
aI00
aI00
aI01
aI01
aI00
aI00
aI00
aa(lp37
I00
aI00
aI00
aI00
aI00
aI01
aI00
aI00
aI00
aI00
aI00
aI00
aI00
aI00
aI00
aI00
aI00
aI00
aa(lp38
I00
aI00
aI00
aI00
aI00
aI00
aI00
aI00
aI00
aI01
aI00
aI00
aI00
aI00
aI01
aI00
aI00
aI00
aa(lp39
I00
aI01
aI00
aI00
aI00
aI00
aI00
aI00
aI00
aI00
aI00
aI00
aI00
aI00
aI00
aI00
aI00
aI00
aa(lp40
I00
aI00
aI00
aI00
aI00
aI01
aI00
aI00
aI00
aI00
aI00
aI00
aI00
aI00
aI00
aI01
aI00
aI00
aa(lp41
I00
aI00
aI00
aI00
aI00
aI00
aI00
aI00
aI00
aI00
aI00
aI00
aI01
aI00
aI00
aI00
aI00
aI00
aa(lp42
I00
aI00
aI00
aI00
aI00
aI01
aI00
aI00
aI01
aI01
aI00
aI01
aI00
aI00
aI00
aI00
aI00
aI00
aa(lp43
I00
aI00
aI00
aI00
aI00
aI00
aI00
aI00
aI00
aI00
aI00
aI00
aI00
aI00
aI00
aI00
aI00
aI00
aa(lp44
I00
aI00
aI00
aI00
aI00
aI01
aI01
aI00
aI00
aI00
aI00
aI01
aI00
aI00
aI00
aI00
aI00
aI00
aa(lp45
I00
aI00
aI00
aI00
aI00
aI00
aI01
aI00
aI01
aI00
aI00
aI00
aI00
aI00
aI00
aI00
aI00
aI00
aa(lp46
I00
aI00
aI00
aI01
aI00
aI00
aI00
aI00
aI00
aI00
aI00
aI01
aI00
aI00
aI00
aI00
aI00
aI00
aa(lp47
I00
aI00
aI00
aI00
aI00
aI01
aI00
aI00
aI01
aI00
aI00
aI00
aI00
aI00
aI00
aI00
aI00
aI00
aa(lp48
I00
aI01
aI00
aI01
aI00
aI00
aI00
aI00
aI00
aI00
aI00
aI00
aI00
aI00
aI00
aI00
aI00
aI00
aa(lp49
I00
aI01
aI00
aI01
aI00
aI00
aI00
aI00
aI01
aI01
aI00
aI00
aI00
aI00
aI00
aI00
aI00
aI00
aa(lp50
I00
aI00
aI00
aI00
aI00
aI00
aI00
aI00
aI00
aI00
aI00
aI00
aI00
aI00
aI00
aI00
aI00
aI00
aasS'height'
p51
I18
sbsS'agentPositions'
p52
(lp53
(I00
(I1
I2
tp54
tp55
a(I00
(I32
I15
tp56
tp57
a(I00
(I1
I1
tp58
tp59
a(I00
(I32
I16
tp60
tp61
asg51
I18
sg14
I34
sS'walls'
p62
(igame
Grid
p63
(dp64
g13
I30
sg14
I34
sg15
(lp65
(lp66
I01
aI01
aI01
aI01
aI01
aI01
aI01
aI01
aI01
aI01
aI01
aI01
aI01
aI01
aI01
aI01
aI01
aI01
aa(lp67
I01
aI00
aI00
aI00
aI00
aI00
aI00
aI00
aI00
aI00
aI01
aI00
aI00
aI01
aI00
aI01
aI00
aI01
aa(lp68
I01
aI01
aI01
aI01
aI01
aI01
aI00
aI01
aI01
aI01
aI01
aI00
aI00
aI01
aI00
aI01
aI00
aI01
aa(lp69
I01
aI00
aI00
aI00
aI00
aI00
aI00
aI01
aI00
aI00
aI01
aI00
aI00
aI01
aI00
aI01
aI00
aI01
aa(lp70
I01
aI01
aI01
aI01
aI00
aI01
aI00
aI00
aI00
aI00
aI00
aI00
aI00
aI01
aI00
aI00
aI00
aI01
aa(lp71
I01
aI00
aI00
aI01
aI00
aI00
aI00
aI01
aI00
aI00
aI01
aI00
aI00
aI01
aI00
aI01
aI00
aI01
aa(lp72
I01
aI00
aI00
aI00
aI00
aI01
aI00
aI01
aI00
aI00
aI01
aI00
aI00
aI00
aI00
aI01
aI00
aI01
aa(lp73
I01
aI01
aI00
aI01
aI01
aI01
aI01
aI01
aI01
aI01
aI01
aI01
aI01
aI01
aI00
aI01
aI00
aI01
aa(lp74
I01
aI00
aI00
aI00
aI00
aI00
aI00
aI01
aI00
aI00
aI00
aI00
aI00
aI01
aI00
aI01
aI00
aI01
aa(lp75
I01
aI00
aI01
aI01
aI01
aI00
aI01
aI01
aI01
aI01
aI01
aI00
aI01
aI01
aI00
aI01
aI00
aI01
aa(lp76
I01
aI00
aI00
aI00
aI00
aI00
aI00
aI00
aI00
aI00
aI00
aI00
aI00
aI01
aI00
aI01
aI00
aI01
aa(lp77
I01
aI00
aI01
aI01
aI01
aI00
aI01
aI01
aI01
aI01
aI01
aI01
aI01
aI01
aI00
aI01
aI00
aI01
aa(lp78
I01
aI00
aI01
aI00
aI00
aI00
aI00
aI00
aI00
aI00
aI00
aI00
aI00
aI00
aI00
aI01
aI00
aI01
aa(lp79
I01
aI00
aI01
aI01
aI00
aI01
aI01
aI01
aI01
aI00
aI01
aI01
aI00
aI00
aI00
aI01
aI00
aI01
aa(lp80
I01
aI00
aI01
aI00
aI00
aI00
aI00
aI00
aI00
aI00
aI00
aI00
aI00
aI01
aI00
aI00
aI00
aI01
aa(lp81
I01
aI00
aI01
aI01
aI01
aI01
aI00
aI00
aI01
aI01
aI00
aI01
aI00
aI01
aI01
aI01
aI00
aI01
aa(lp82
I01
aI00
aI00
aI00
aI00
aI00
aI00
aI00
aI00
aI00
aI00
aI00
aI00
aI00
aI00
aI00
aI00
aI01
aa(lp83
I01
aI00
aI00
aI00
aI00
aI00
aI00
aI00
aI00
aI00
aI00
aI00
aI00
aI00
aI00
aI00
aI00
aI01
aa(lp84
I01
aI00
aI01
aI01
aI01
aI00
aI01
aI00
aI01
aI01
aI00
aI00
aI01
aI01
aI01
aI01
aI00
aI01
aa(lp85
I01
aI00
aI00
aI00
aI01
aI00
aI00
aI00
aI00
aI00
aI00
aI00
aI00
aI00
aI00
aI01
aI00
aI01
aa(lp86
I01
aI00
aI01
aI00
aI00
aI00
aI01
aI01
aI00
aI01
aI01
aI01
aI01
aI00
aI01
aI01
aI00
aI01
aa(lp87
I01
aI00
aI01
aI00
aI00
aI00
aI00
aI00
aI00
aI00
aI00
aI00
aI00
aI00
aI00
aI01
aI00
aI01
aa(lp88
I01
aI00
aI01
aI00
aI01
aI01
aI01
aI01
aI01
aI01
aI01
aI01
aI00
aI01
aI01
aI01
aI00
aI01
aa(lp89
I01
aI00
aI01
aI00
aI01
aI00
aI00
aI00
aI00
aI00
aI00
aI00
aI00
aI00
aI00
aI00
aI00
aI01
aa(lp90
I01
aI00
aI01
aI00
aI01
aI01
aI00
aI01
aI01
aI01
aI01
aI01
aI00
aI01
aI01
aI01
aI00
aI01
aa(lp91
I01
aI00
aI01
aI00
aI01
aI00
aI00
aI00
aI00
aI00
aI01
aI00
aI00
aI00
aI00
aI00
aI00
aI01
aa(lp92
I01
aI00
aI01
aI00
aI01
aI01
aI01
aI01
aI01
aI01
aI01
aI01
aI01
aI01
aI01
aI00
aI01
aI01
aa(lp93
I01
aI00
aI01
aI00
aI00
aI00
aI00
aI01
aI00
aI00
aI01
aI00
aI01
aI00
aI00
aI00
aI00
aI01
aa(lp94
I01
aI00
aI01
aI00
aI01
aI00
aI00
aI01
aI00
aI00
aI01
aI00
aI00
aI00
aI01
aI00
aI00
aI01
aa(lp95
I01
aI00
aI00
aI00
aI01
aI00
aI00
aI00
aI00
aI00
aI00
aI00
aI01
aI00
aI01
aI01
aI01
aI01
aa(lp96
I01
aI00
aI01
aI00
aI01
aI00
aI00
aI01
aI00
aI00
aI01
aI00
aI00
aI00
aI00
aI00
aI00
aI01
aa(lp97
I01
aI00
aI01
aI00
aI01
aI00
aI00
aI01
aI01
aI01
aI01
aI00
aI01
aI01
aI01
aI01
aI01
aI01
aa(lp98
I01
aI00
aI01
aI00
aI01
aI00
aI00
aI01
aI00
aI00
aI00
aI00
aI00
aI00
aI00
aI00
aI00
aI01
aa(lp99
I01
aI01
aI01
aI01
aI01
aI01
aI01
aI01
aI01
aI01
aI01
aI01
aI01
aI01
aI01
aI01
aI01
aI01
aasg51
I18
sbsS'totalFood'
p100
I60
sS'layoutText'
p101
(lp102
S'%%%%%%%%%%%%%%%%%%%%%%%%%%%%%%%%%%'
p103
aS'%..        .              %  % %4%'
p104
aS'%%%% %%%%%%%%% %  %%%%%.%    % %2%'
p105
aS'%.. .         o%  %.%.% % % %% % %'
p106
aS'%%%%%% %%%%%  %%  %.  % % %    % %'
p107
aS'%  .  .%.%.% .   .% %   . %% % % %'
p108
aS'%    ..%   % % %    % % %.%. .   %'
p109
aS'%%%% %%% % % %  .   % % %%%%% %% %'
p110
aS'%.%. . %.% %   %  % %.% %.%    %.%'
p111
aS'%.%    %.% %.% %  %   % %.% . .%.%'
p112
aS'% %% %%%%% % %   .  % % % %%% %%%%'
p113
aS'%   . .%.% % %    % % %   %..    %'
p114
aS'% % % %% .   % %.   . %.%.%.  .  %'
p115
aS'% %    % % %  .%  %%  %%%%% %%%%%%'
p116
aS'% % %% % % %.%.%  %o         . ..%'
p117
aS'%1% %    %.%%%%%  % %%%%%%%%% %%%%'
p118
aS'%3% %  %              .        ..%'
p119
aS'%%%%%%%%%%%%%%%%%%%%%%%%%%%%%%%%%%'
p120
asbsS'blueTeamName'
p121
S'Blue'
p122
sS'actions'
p123
(lp124
(I1
S'South'
p125
tp126
a(I2
S'North'
p127
tp128
a(I3
g125
tp129
a(I0
g127
tp130
a(I1
g125
tp131
a(I2
g127
tp132
a(I3
g125
tp133
a(I0
g127
tp134
a(I1
g125
tp135
a(I2
g127
tp136
a(I3
g125
tp137
a(I0
g127
tp138
a(I1
g125
tp139
a(I2
g127
tp140
a(I3
g125
tp141
a(I0
g127
tp142
a(I1
S'West'
p143
tp144
a(I2
g127
tp145
a(I3
g125
tp146
a(I0
S'East'
p147
tp148
a(I1
g143
tp149
a(I2
g147
tp150
a(I3
g143
tp151
a(I0
g147
tp152
a(I1
g127
tp153
a(I2
g147
tp154
a(I3
g143
tp155
a(I0
g147
tp156
a(I1
g127
tp157
a(I2
g147
tp158
a(I3
g127
tp159
a(I0
g147
tp160
a(I1
g143
tp161
a(I2
g147
tp162
a(I3
g127
tp163
a(I0
g125
tp164
a(I1
g143
tp165
a(I2
g125
tp166
a(I3
g125
tp167
a(I0
g125
tp168
a(I1
g143
tp169
a(I2
g125
tp170
a(I3
g127
tp171
a(I0
g147
tp172
a(I1
g127
tp173
a(I2
g147
tp174
a(I3
g143
tp175
a(I0
g125
tp176
a(I1
g127
tp177
a(I2
g125
tp178
a(I3
g143
tp179
a(I0
g125
tp180
a(I1
g143
tp181
a(I2
g125
tp182
a(I3
g143
tp183
a(I0
g147
tp184
a(I1
g143
tp185
a(I2
g147
tp186
a(I3
g127
tp187
a(I0
g147
tp188
a(I1
g127
tp189
a(I2
g147
tp190
a(I3
g127
tp191
a(I0
g125
tp192
a(I1
g143
tp193
a(I2
g125
tp194
a(I3
g143
tp195
a(I0
g147
tp196
a(I1
g143
tp197
a(I2
g147
tp198
a(I3
g143
tp199
a(I0
g147
tp200
a(I1
g143
tp201
a(I2
g147
tp202
a(I3
g125
tp203
a(I0
g147
tp204
a(I1
g143
tp205
a(I2
g147
tp206
a(I3
g125
tp207
a(I0
g147
tp208
a(I1
g143
tp209
a(I2
g147
tp210
a(I3
g125
tp211
a(I0
g147
tp212
a(I1
g143
tp213
a(I2
g147
tp214
a(I3
g143
tp215
a(I0
g147
tp216
a(I1
g143
tp217
a(I2
g147
tp218
a(I3
g143
tp219
a(I0
g147
tp220
a(I1
g143
tp221
a(I2
g147
tp222
a(I3
g143
tp223
a(I0
g147
tp224
a(I1
g143
tp225
a(I2
g147
tp226
a(I3
g143
tp227
a(I0
g147
tp228
a(I1
g143
tp229
a(I2
g147
tp230
a(I3
g127
tp231
a(I0
g147
tp232
a(I1
g143
tp233
a(I2
g147
tp234
a(I3
g143
tp235
a(I0
g147
tp236
a(I1
g143
tp237
a(I2
g147
tp238
a(I3
g143
tp239
a(I0
g127
tp240
a(I1
g143
tp241
a(I2
g127
tp242
a(I3
g125
tp243
a(I0
g127
tp244
a(I1
g143
tp245
a(I2
g127
tp246
a(I3
g127
tp247
a(I0
g147
tp248
a(I1
g147
tp249
a(I2
g125
tp250
a(I3
g125
tp251
a(I0
g127
tp252
a(I1
g147
tp253
a(I2
g127
tp254
a(I3
g125
tp255
a(I0
g127
tp256
a(I1
g147
tp257
a(I2
g125
tp258
a(I3
g125
tp259
a(I0
g143
tp260
a(I1
g125
tp261
a(I2
g125
tp262
a(I3
g125
tp263
a(I0
g143
tp264
a(I1
g125
tp265
a(I2
g147
tp266
a(I3
g125
tp267
a(I0
g143
tp268
a(I1
g143
tp269
a(I2
g147
tp270
a(I3
g125
tp271
a(I0
g143
tp272
a(I1
g125
tp273
a(I2
g147
tp274
a(I3
g125
tp275
a(I0
g147
tp276
a(I1
g125
tp277
a(I2
g147
tp278
a(I3
g125
tp279
a(I0
g127
tp280
a(I1
g143
tp281
a(I2
g147
tp282
a(I3
g143
tp283
a(I0
g127
tp284
a(I1
g125
tp285
a(I2
g147
tp286
a(I3
g143
tp287
a(I0
g143
tp288
a(I1
g125
tp289
a(I2
g147
tp290
a(I3
g127
tp291
a(I0
g125
tp292
a(I1
g125
tp293
a(I2
g147
tp294
a(I3
g127
tp295
a(I0
g127
tp296
a(I1
g125
tp297
a(I2
g147
tp298
a(I3
S'Stop'
p299
tp300
a(I0
g143
tp301
a(I1
g125
tp302
a(I2
g147
tp303
a(I3
g299
tp304
a(I0
g147
tp305
a(I1
g125
tp306
a(I2
g127
tp307
a(I3
g299
tp308
a(I0
g143
tp309
a(I1
g125
tp310
a(I2
g127
tp311
a(I3
g125
tp312
a(I0
g147
tp313
a(I1
g125
tp314
a(I2
g143
tp315
a(I3
g125
tp316
a(I0
g147
tp317
a(I1
g125
tp318
a(I2
g143
tp319
a(I3
g127
tp320
a(I0
g143
tp321
a(I1
g127
tp322
a(I2
g127
tp323
a(I3
g125
tp324
a(I0
g147
tp325
a(I1
g147
tp326
a(I2
g127
tp327
a(I3
g127
tp328
a(I0
g143
tp329
a(I1
g147
tp330
a(I2
g127
tp331
a(I3
g125
tp332
a(I0
g125
tp333
a(I1
g125
tp334
a(I2
g147
tp335
a(I3
g147
tp336
a(I0
g143
tp337
a(I1
g127
tp338
a(I2
g147
tp339
a(I3
g147
tp340
a(I0
g147
tp341
a(I1
g127
tp342
a(I2
g127
tp343
a(I3
g147
tp344
a(I0
g147
tp345
a(I1
g127
tp346
a(I2
g127
tp347
a(I3
g143
tp348
a(I0
g127
tp349
a(I1
g147
tp350
a(I2
g147
tp351
a(I3
g127
tp352
a(I0
g127
tp353
a(I1
g147
tp354
a(I2
g143
tp355
a(I3
g127
tp356
a(I0
g127
tp357
a(I1
g125
tp358
a(I2
g143
tp359
a(I3
g143
tp360
a(I0
g127
tp361
a(I1
g127
tp362
a(I2
g147
tp363
a(I3
g143
tp364
a(I0
g127
tp365
a(I1
g127
tp366
a(I2
g127
tp367
a(I3
g127
tp368
a(I0
g127
tp369
a(I1
g127
tp370
a(I2
g127
tp371
a(I3
g127
tp372
a(I0
g143
tp373
a(I1
g127
tp374
a(I2
g127
tp375
a(I3
g127
tp376
a(I0
g147
tp377
a(I1
g127
tp378
a(I2
g147
tp379
a(I3
g127
tp380
a(I0
g143
tp381
a(I1
g143
tp382
a(I2
g147
tp383
a(I3
g147
tp384
a(I0
g147
tp385
a(I1
g143
tp386
a(I2
g143
tp387
a(I3
g143
tp388
a(I0
g143
tp389
a(I1
g125
tp390
a(I2
g147
tp391
a(I3
g147
tp392
a(I0
g143
tp393
a(I1
g143
tp394
a(I2
g143
tp395
a(I3
g147
tp396
a(I0
g147
tp397
a(I1
g143
tp398
a(I2
g147
tp399
a(I3
g127
tp400
a(I0
g147
tp401
a(I1
g125
tp402
a(I2
g143
tp403
a(I3
g125
tp404
a(I0
g125
tp405
a(I1
g125
tp406
a(I2
g147
tp407
a(I3
g143
tp408
a(I0
g147
tp409
a(I1
g125
tp410
a(I2
g147
tp411
a(I3
g147
tp412
a(I0
g127
tp413
a(I1
g125
tp414
a(I2
g125
tp415
a(I3
g127
tp416
a(I0
g127
tp417
a(I1
g143
tp418
a(I2
g125
tp419
a(I3
g127
tp420
a(I0
g127
tp421
a(I1
g143
tp422
a(I2
g125
tp423
a(I3
g147
tp424
a(I0
g127
tp425
a(I1
g143
tp426
a(I2
g127
tp427
a(I3
g147
tp428
a(I0
g147
tp429
a(I1
g143
tp430
a(I2
g127
tp431
a(I3
g125
tp432
a(I0
g147
tp433
a(I1
g127
tp434
a(I2
g127
tp435
a(I3
g147
tp436
a(I0
g147
tp437
a(I1
g125
tp438
a(I2
g143
tp439
a(I3
g147
tp440
a(I0
g147
tp441
a(I1
g147
tp442
a(I2
g143
tp443
a(I3
g147
tp444
a(I0
g125
tp445
a(I1
g147
tp446
a(I2
g143
tp447
a(I3
g147
tp448
a(I0
g125
tp449
a(I1
g147
tp450
a(I2
g143
tp451
a(I3
g127
tp452
a(I0
g147
tp453
a(I1
g147
tp454
a(I2
g143
tp455
a(I3
g127
tp456
a(I0
g125
tp457
a(I1
g125
tp458
a(I2
g147
tp459
a(I3
g127
tp460
a(I0
g125
tp461
a(I1
g147
tp462
a(I2
g147
tp463
a(I3
g147
tp464
a(I0
g147
tp465
a(I1
g147
tp466
a(I2
g125
tp467
a(I3
g147
tp468
a(I0
g147
tp469
a(I1
g127
tp470
a(I2
g125
tp471
a(I3
g125
tp472
a(I0
g127
tp473
a(I1
g127
tp474
a(I2
g125
tp475
a(I3
g125
tp476
a(I0
g127
tp477
a(I1
g147
tp478
a(I2
g125
tp479
a(I3
g147
tp480
a(I0
g127
tp481
a(I1
g147
tp482
a(I2
g125
tp483
a(I3
g125
tp484
a(I0
g147
tp485
a(I1
g125
tp486
a(I2
g147
tp487
a(I3
g125
tp488
a(I0
g147
tp489
a(I1
g147
tp490
a(I2
g125
tp491
a(I3
g147
tp492
a(I0
g147
tp493
a(I1
g125
tp494
a(I2
g143
tp495
a(I3
g125
tp496
a(I0
g147
tp497
a(I1
g125
tp498
a(I2
g127
tp499
a(I3
g125
tp500
a(I0
g127
tp501
a(I1
g125
tp502
a(I2
g147
tp503
a(I3
g125
tp504
a(I0
g127
tp505
a(I1
g143
tp506
a(I2
g147
tp507
a(I3
g125
tp508
a(I0
g127
tp509
a(I1
g125
tp510
a(I2
g143
tp511
a(I3
g125
tp512
a(I0
g127
tp513
a(I1
g143
tp514
a(I2
g125
tp515
a(I3
g125
tp516
a(I0
g147
tp517
a(I1
g143
tp518
a(I2
g147
tp519
a(I3
g147
tp520
a(I0
g147
tp521
a(I1
g143
tp522
a(I2
g127
tp523
a(I3
g127
tp524
a(I0
g127
tp525
a(I1
g143
tp526
a(I2
g125
tp527
a(I3
g125
tp528
a(I0
g147
tp529
a(I1
g143
tp530
a(I2
g127
tp531
a(I3
g127
tp532
a(I0
g147
tp533
a(I1
g143
tp534
a(I2
g125
tp535
a(I3
g125
tp536
a(I0
g147
tp537
a(I1
g127
tp538
a(I2
g127
tp539
a(I3
g127
tp540
a(I0
g147
tp541
a(I1
g127
tp542
a(I2
g125
tp543
a(I3
g125
tp544
a(I0
g147
tp545
a(I1
g127
tp546
a(I2
g127
tp547
a(I3
g127
tp548
a(I0
g127
tp549
a(I1
g127
tp550
a(I2
g125
tp551
a(I3
g125
tp552
a(I0
g127
tp553
a(I1
g127
tp554
a(I2
g127
tp555
a(I3
g127
tp556
a(I0
g127
tp557
a(I1
g127
tp558
a(I2
g125
tp559
a(I3
g125
tp560
a(I0
g127
tp561
a(I1
g127
tp562
a(I2
g127
tp563
a(I3
g127
tp564
a(I0
g125
tp565
a(I1
g127
tp566
a(I2
g125
tp567
a(I3
g125
tp568
a(I0
g147
tp569
a(I1
g127
tp570
a(I2
g127
tp571
a(I3
g127
tp572
a(I0
g147
tp573
a(I1
g127
tp574
a(I2
g125
tp575
a(I3
g125
tp576
a(I0
g127
tp577
a(I1
g127
tp578
a(I2
g127
tp579
a(I3
g127
tp580
a(I0
g125
tp581
a(I1
g125
tp582
a(I2
g125
tp583
a(I3
g125
tp584
a(I0
g125
tp585
a(I1
g143
tp586
a(I2
g127
tp587
a(I3
g127
tp588
a(I0
g147
tp589
a(I1
g143
tp590
a(I2
g125
tp591
a(I3
g125
tp592
a(I0
g147
tp593
a(I1
g127
tp594
a(I2
g127
tp595
a(I3
g127
tp596
a(I0
g147
tp597
a(I1
g125
tp598
a(I2
g125
tp599
a(I3
g125
tp600
a(I0
g143
tp601
a(I1
g125
tp602
a(I2
g127
tp603
a(I3
g127
tp604
a(I0
g143
tp605
a(I1
g125
tp606
a(I2
g125
tp607
a(I3
g125
tp608
a(I0
g143
tp609
a(I1
g125
tp610
a(I2
g127
tp611
a(I3
g127
tp612
a(I0
g125
tp613
a(I1
g127
tp614
a(I2
g125
tp615
a(I3
g125
tp616
a(I0
g125
tp617
a(I1
g127
tp618
a(I2
g127
tp619
a(I3
g127
tp620
a(I0
g125
tp621
a(I1
g127
tp622
a(I2
g125
tp623
a(I3
g125
tp624
a(I0
g125
tp625
a(I1
g147
tp626
a(I2
g127
tp627
a(I3
g127
tp628
a(I0
g143
tp629
a(I1
g147
tp630
a(I2
g125
tp631
a(I3
g125
tp632
a(I0
g143
tp633
a(I1
g125
tp634
a(I2
g127
tp635
a(I3
g127
tp636
a(I0
g127
tp637
a(I1
g125
tp638
a(I2
g125
tp639
a(I3
g125
tp640
a(I0
g127
tp641
a(I1
g125
tp642
a(I2
g127
tp643
a(I3
g127
tp644
a(I0
g143
tp645
a(I1
g125
tp646
a(I2
g125
tp647
a(I3
g125
tp648
a(I0
g143
tp649
a(I1
g125
tp650
a(I2
g127
tp651
a(I3
g127
tp652
a(I0
g143
tp653
a(I1
g125
tp654
a(I2
g125
tp655
a(I3
g125
tp656
a(I0
g143
tp657
a(I1
g143
tp658
a(I2
g127
tp659
a(I3
g127
tp660
a(I0
g143
tp661
a(I1
g143
tp662
a(I2
g125
tp663
a(I3
g125
tp664
a(I0
g147
tp665
a(I1
g125
tp666
a(I2
g127
tp667
a(I3
g127
tp668
a(I0
g143
tp669
a(I1
g125
tp670
a(I2
g125
tp671
a(I3
g125
tp672
a(I0
g147
tp673
a(I1
g125
tp674
a(I2
g127
tp675
a(I3
g127
tp676
a(I0
g147
tp677
a(I1
g143
tp678
a(I2
g125
tp679
a(I3
g125
tp680
a(I0
g147
tp681
a(I1
g143
tp682
a(I2
g127
tp683
a(I3
g127
tp684
a(I0
g143
tp685
a(I1
g127
tp686
a(I2
g125
tp687
a(I3
g125
tp688
a(I0
g147
tp689
a(I1
g127
tp690
a(I2
g127
tp691
a(I3
g127
tp692
a(I0
g143
tp693
a(I1
g143
tp694
a(I2
g125
tp695
a(I3
g125
tp696
a(I0
g147
tp697
a(I1
g127
tp698
a(I2
g127
tp699
a(I3
g127
tp700
a(I0
g143
tp701
a(I1
g127
tp702
a(I2
g125
tp703
a(I3
g125
tp704
a(I0
g147
tp705
a(I1
g143
tp706
a(I2
g127
tp707
a(I3
g127
tp708
a(I0
g143
tp709
a(I1
g147
tp710
a(I2
g125
tp711
a(I3
g125
tp712
a(I0
g125
tp713
a(I1
g147
tp714
a(I2
g127
tp715
a(I3
g127
tp716
a(I0
g127
tp717
a(I1
g143
tp718
a(I2
g125
tp719
a(I3
g125
tp720
a(I0
g125
tp721
a(I1
g143
tp722
a(I2
g127
tp723
a(I3
g127
tp724
a(I0
g127
tp725
a(I1
g127
tp726
a(I2
g125
tp727
a(I3
g125
tp728
a(I0
g125
tp729
a(I1
g127
tp730
a(I2
g127
tp731
a(I3
g127
tp732
a(I0
g127
tp733
a(I1
g127
tp734
a(I2
g125
tp735
a(I3
g125
tp736
a(I0
g125
tp737
a(I1
g143
tp738
a(I2
g127
tp739
a(I3
g127
tp740
a(I0
g127
tp741
a(I1
g147
tp742
a(I2
g125
tp743
a(I3
g125
tp744
a(I0
g143
tp745
a(I1
g147
tp746
a(I2
g127
tp747
a(I3
g127
tp748
a(I0
g143
tp749
a(I1
g143
tp750
a(I2
g125
tp751
a(I3
g125
tp752
a(I0
g127
tp753
a(I1
g127
tp754
a(I2
g127
tp755
a(I3
g127
tp756
a(I0
g127
tp757
a(I1
g127
tp758
a(I2
g125
tp759
a(I3
g125
tp760
a(I0
g143
tp761
a(I1
g147
tp762
a(I2
g127
tp763
a(I3
g127
tp764
a(I0
g143
tp765
a(I1
g147
tp766
a(I2
g125
tp767
a(I3
g125
tp768
a(I0
g127
tp769
a(I1
g127
tp770
a(I2
g127
tp771
a(I3
g127
tp772
a(I0
g127
tp773
a(I1
g127
tp774
a(I2
g125
tp775
a(I3
g125
tp776
a(I0
g143
tp777
a(I1
g127
tp778
a(I2
g127
tp779
a(I3
g127
tp780
a(I0
g143
tp781
a(I1
g143
tp782
a(I2
g125
tp783
a(I3
g125
tp784
a(I0
g143
tp785
a(I1
g143
tp786
a(I2
g127
tp787
a(I3
g127
tp788
a(I0
g143
tp789
a(I1
g127
tp790
a(I2
g125
tp791
a(I3
g125
tp792
a(I0
g143
tp793
a(I1
g127
tp794
a(I2
g127
tp795
a(I3
g127
tp796
a(I0
g143
tp797
a(I1
g147
tp798
a(I2
g125
tp799
a(I3
g125
tp800
a(I0
g143
tp801
a(I1
g147
tp802
a(I2
g127
tp803
a(I3
g127
tp804
a(I0
g143
tp805
a(I1
g147
tp806
a(I2
g125
tp807
a(I3
g125
tp808
a(I0
g127
tp809
a(I1
g147
tp810
a(I2
g127
tp811
a(I3
g127
tp812
a(I0
g127
tp813
a(I1
g147
tp814
a(I2
g125
tp815
a(I3
g125
tp816
a(I0
g147
tp817
a(I1
g147
tp818
a(I2
g127
tp819
a(I3
g127
tp820
a(I0
g147
tp821
a(I1
g147
tp822
a(I2
g125
tp823
a(I3
g125
tp824
a(I0
g147
tp825
a(I1
g147
tp826
a(I2
g127
tp827
a(I3
g127
tp828
a(I0
g147
tp829
a(I1
g147
tp830
a(I2
g125
tp831
a(I3
g125
tp832
a(I0
g147
tp833
a(I1
g147
tp834
a(I2
g127
tp835
a(I3
g127
tp836
a(I0
g147
tp837
a(I1
g147
tp838
a(I2
g125
tp839
a(I3
g125
tp840
a(I0
g147
tp841
a(I1
g147
tp842
a(I2
g127
tp843
a(I3
g127
tp844
a(I0
g147
tp845
a(I1
g147
tp846
a(I2
g125
tp847
a(I3
g125
tp848
a(I0
g147
tp849
a(I1
g143
tp850
a(I2
g127
tp851
a(I3
g127
tp852
a(I0
g147
tp853
a(I1
g147
tp854
a(I2
g125
tp855
a(I3
g125
tp856
a(I0
g147
tp857
a(I1
g125
tp858
a(I2
g127
tp859
a(I3
g127
tp860
a(I0
g143
tp861
a(I1
g125
tp862
a(I2
g125
tp863
a(I3
g125
tp864
a(I0
g147
tp865
a(I1
g125
tp866
a(I2
g127
tp867
a(I3
g127
tp868
a(I0
g147
tp869
a(I1
g125
tp870
a(I2
g125
tp871
a(I3
g125
tp872
a(I0
g147
tp873
a(I1
g125
tp874
a(I2
g127
tp875
a(I3
g127
tp876
a(I0
g147
tp877
a(I1
g127
tp878
a(I2
g125
tp879
a(I3
g125
tp880
a(I0
g147
tp881
a(I1
g143
tp882
a(I2
g127
tp883
a(I3
g127
tp884
a(I0
g147
tp885
a(I1
g143
tp886
a(I2
g125
tp887
a(I3
g125
tp888
a(I0
g147
tp889
a(I1
g143
tp890
a(I2
g127
tp891
a(I3
g127
tp892
a(I0
g147
tp893
a(I1
g143
tp894
a(I2
g125
tp895
a(I3
g125
tp896
a(I0
g147
tp897
a(I1
g127
tp898
a(I2
g127
tp899
a(I3
g127
tp900
a(I0
g125
tp901
a(I1
g127
tp902
a(I2
g125
tp903
a(I3
g125
tp904
a(I0
g127
tp905
a(I1
g143
tp906
a(I2
g127
tp907
a(I3
g127
tp908
a(I0
g125
tp909
a(I1
g143
tp910
a(I2
g125
tp911
a(I3
g125
tp912
a(I0
g127
tp913
a(I1
g143
tp914
a(I2
g127
tp915
a(I3
g127
tp916
a(I0
g125
tp917
a(I1
g143
tp918
a(I2
g125
tp919
a(I3
g125
tp920
a(I0
g127
tp921
a(I1
g143
tp922
a(I2
g127
tp923
a(I3
g127
tp924
a(I0
g125
tp925
a(I1
g143
tp926
a(I2
g125
tp927
a(I3
g125
tp928
a(I0
g127
tp929
a(I1
g143
tp930
a(I2
g127
tp931
a(I3
g127
tp932
a(I0
g125
tp933
a(I1
g143
tp934
a(I2
g125
tp935
a(I3
g125
tp936
a(I0
g127
tp937
a(I1
g143
tp938
a(I2
g127
tp939
a(I3
g127
tp940
a(I0
g125
tp941
a(I1
g143
tp942
a(I2
g125
tp943
a(I3
g125
tp944
a(I0
g127
tp945
a(I1
g143
tp946
a(I2
g127
tp947
a(I3
g127
tp948
a(I0
g143
tp949
a(I1
g143
tp950
a(I2
g125
tp951
a(I3
g125
tp952
a(I0
g143
tp953
a(I1
g147
tp954
a(I2
g127
tp955
a(I3
g127
tp956
a(I0
g143
tp957
a(I1
g147
tp958
a(I2
g125
tp959
a(I3
g125
tp960
a(I0
g143
tp961
a(I1
g147
tp962
a(I2
g127
tp963
a(I3
g127
tp964
a(I0
g143
tp965
a(I1
g127
tp966
a(I2
g125
tp967
a(I3
g125
tp968
a(I0
g143
tp969
a(I1
g127
tp970
a(I2
g127
tp971
a(I3
g127
tp972
a(I0
g143
tp973
a(I1
g143
tp974
a(I2
g125
tp975
a(I3
g125
tp976
a(I0
g147
tp977
a(I1
g143
tp978
a(I2
g127
tp979
a(I3
g127
tp980
a(I0
g147
tp981
a(I1
g143
tp982
a(I2
g125
tp983
a(I3
g125
tp984
a(I0
g147
tp985
a(I1
g147
tp986
a(I2
g127
tp987
a(I3
g127
tp988
a(I0
g147
tp989
a(I1
g147
tp990
a(I2
g125
tp991
a(I3
g125
tp992
a(I0
g147
tp993
a(I1
g147
tp994
a(I2
g127
tp995
a(I3
g127
tp996
a(I0
g147
tp997
a(I1
g125
tp998
a(I2
g125
tp999
a(I3
g125
tp1000
a(I0
g147
tp1001
a(I1
g125
tp1002
a(I2
g127
tp1003
a(I3
g127
tp1004
a(I0
g147
tp1005
a(I1
g147
tp1006
a(I2
g125
tp1007
a(I3
g125
tp1008
a(I0
g147
tp1009
a(I1
g147
tp1010
a(I2
g127
tp1011
a(I3
g127
tp1012
a(I0
g125
tp1013
a(I1
g125
tp1014
a(I2
g125
tp1015
a(I3
g125
tp1016
a(I0
g125
tp1017
a(I1
g125
tp1018
a(I2
g127
tp1019
a(I3
g127
tp1020
a(I0
g125
tp1021
a(I1
g143
tp1022
a(I2
g125
tp1023
a(I3
g125
tp1024
a(I0
g125
tp1025
a(I1
g143
tp1026
a(I2
g127
tp1027
a(I3
g127
tp1028
a(I0
g125
tp1029
a(I1
g143
tp1030
a(I2
g125
tp1031
a(I3
g125
tp1032
a(I0
g127
tp1033
a(I1
g147
tp1034
a(I2
g127
tp1035
a(I3
g127
tp1036
a(I0
g143
tp1037
a(I1
g147
tp1038
a(I2
g125
tp1039
a(I3
g125
tp1040
a(I0
g143
tp1041
a(I1
g147
tp1042
a(I2
g127
tp1043
a(I3
g127
tp1044
a(I0
g127
tp1045
a(I1
g127
tp1046
a(I2
g125
tp1047
a(I3
g125
tp1048
a(I0
g127
tp1049
a(I1
g127
tp1050
a(I2
g127
tp1051
a(I3
g127
tp1052
a(I0
g127
tp1053
a(I1
g147
tp1054
a(I2
g125
tp1055
a(I3
g125
tp1056
a(I0
g127
tp1057
a(I1
g147
tp1058
a(I2
g127
tp1059
a(I3
g127
tp1060
a(I0
g143
tp1061
a(I1
g147
tp1062
a(I2
g125
tp1063
a(I3
g125
tp1064
a(I0
g143
tp1065
a(I1
g147
tp1066
a(I2
g127
tp1067
a(I3
g127
tp1068
a(I0
g143
tp1069
a(I1
g147
tp1070
a(I2
g125
tp1071
a(I3
g125
tp1072
a(I0
g143
tp1073
a(I1
g147
tp1074
a(I2
g127
tp1075
a(I3
g127
tp1076
a(I0
g143
tp1077
a(I1
g125
tp1078
a(I2
g125
tp1079
a(I3
g125
tp1080
a(I0
g143
tp1081
a(I1
g125
tp1082
a(I2
g127
tp1083
a(I3
g127
tp1084
a(I0
g143
tp1085
a(I1
g125
tp1086
a(I2
g125
tp1087
a(I3
g125
tp1088
a(I0
g143
tp1089
a(I1
g125
tp1090
a(I2
g127
tp1091
a(I3
g127
tp1092
a(I0
g143
tp1093
a(I1
g125
tp1094
a(I2
g125
tp1095
a(I3
g125
tp1096
a(I0
g143
tp1097
a(I1
g147
tp1098
a(I2
g127
tp1099
a(I3
g127
tp1100
a(I0
g143
tp1101
a(I1
g147
tp1102
a(I2
g125
tp1103
a(I3
g125
tp1104
a(I0
g143
tp1105
a(I1
g125
tp1106
a(I2
g127
tp1107
a(I3
g127
tp1108
a(I0
g143
tp1109
a(I1
g125
tp1110
a(I2
g125
tp1111
a(I3
g125
tp1112
a(I0
g147
tp1113
a(I1
g125
tp1114
a(I2
g127
tp1115
a(I3
g127
tp1116
a(I0
g147
tp1117
a(I1
g147
tp1118
a(I2
g125
tp1119
a(I3
g125
tp1120
a(I0
g147
tp1121
a(I1
g147
tp1122
a(I2
g127
tp1123
a(I3
g127
tp1124
a(I0
g143
tp1125
a(I1
g125
tp1126
a(I2
g125
tp1127
a(I3
g125
tp1128
a(I0
g147
tp1129
a(I1
g147
tp1130
asS'length'
p1131
I1200
sS'agents'
p1132
(lp1133
(igame
Agent
p1134
(dp1135
S'index'
p1136
I0
sba(igame
Agent
p1137
(dp1138
g1136
I0
sba(igame
Agent
p1139
(dp1140
g1136
I0
sba(igame
Agent
p1141
(dp1142
g1136
I0
sbasS'redTeamName'
p1143
S'Red'
p1144
s.