(dp1
S'layout'
p2
(ilayout
Layout
p3
(dp4
S'capsules'
p5
(lp6
(I19
I7
tp7
a(I29
I8
tp8
a(I4
I9
tp9
a(I14
I10
tp10
asS'numGhosts'
p11
I4
sS'food'
p12
(igame
Grid
p13
(dp14
S'CELLS_PER_INT'
p15
I30
sS'width'
p16
I34
sS'data'
p17
(lp18
(lp19
I00
aI00
aI00
aI00
aI00
aI00
aI00
aI00
aI00
aI00
aI00
aI00
aI00
aI00
aI00
aI00
aI00
aI00
aa(lp20
I00
aI00
aI00
aI00
aI00
aI00
aI00
aI00
aI00
aI00
aI00
aI00
aI00
aI00
aI00
aI00
aI00
aI00
aa(lp21
I00
aI00
aI00
aI00
aI00
aI00
aI00
aI00
aI00
aI00
aI00
aI00
aI00
aI00
aI00
aI00
aI00
aI00
aa(lp22
I00
aI00
aI00
aI00
aI00
aI00
aI00
aI00
aI00
aI00
aI00
aI00
aI00
aI00
aI00
aI00
aI00
aI00
aa(lp23
I00
aI00
aI00
aI00
aI00
aI00
aI00
aI00
aI00
aI00
aI00
aI00
aI01
aI00
aI00
aI00
aI01
aI00
aa(lp24
I00
aI00
aI00
aI00
aI00
aI00
aI00
aI00
aI00
aI00
aI00
aI00
aI00
aI00
aI00
aI00
aI00
aI00
aa(lp25
I00
aI00
aI00
aI00
aI00
aI00
aI00
aI00
aI00
aI01
aI00
aI01
aI01
aI00
aI00
aI01
aI01
aI00
aa(lp26
I00
aI00
aI00
aI00
aI00
aI00
aI00
aI00
aI00
aI00
aI00
aI00
aI00
aI00
aI00
aI00
aI00
aI00
aa(lp27
I00
aI01
aI00
aI00
aI00
aI00
aI00
aI00
aI00
aI01
aI01
aI00
aI00
aI00
aI00
aI00
aI01
aI00
aa(lp28
I00
aI00
aI00
aI00
aI00
aI00
aI01
aI00
aI00
aI00
aI00
aI00
aI01
aI00
aI00
aI00
aI00
aI00
aa(lp29
I00
aI00
aI00
aI01
aI00
aI01
aI00
aI00
aI00
aI00
aI01
aI00
aI00
aI00
aI00
aI00
aI01
aI00
aa(lp30
I00
aI01
aI00
aI01
aI00
aI00
aI00
aI00
aI00
aI00
aI00
aI00
aI00
aI00
aI00
aI00
aI00
aI00
aa(lp31
I00
aI01
aI00
aI00
aI00
aI01
aI00
aI00
aI00
aI00
aI00
aI00
aI01
aI00
aI00
aI00
aI00
aI00
aa(lp32
I00
aI00
aI00
aI01
aI00
aI00
aI00
aI00
aI00
aI01
aI01
aI00
aI01
aI00
aI00
aI00
aI00
aI00
aa(lp33
I00
aI01
aI00
aI00
aI00
aI01
aI00
aI00
aI01
aI00
aI00
aI00
aI01
aI00
aI00
aI00
aI00
aI00
aa(lp34
I00
aI00
aI00
aI00
aI00
aI00
aI00
aI00
aI00
aI00
aI00
aI00
aI00
aI00
aI00
aI00
aI00
aI00
aa(lp35
I00
aI00
aI00
aI00
aI00
aI00
aI00
aI00
aI00
aI00
aI00
aI00
aI00
aI00
aI00
aI00
aI00
aI00
aa(lp36
I00
aI00
aI00
aI00
aI00
aI00
aI00
aI00
aI00
aI00
aI00
aI00
aI00
aI00
aI00
aI00
aI00
aI00
aa(lp37
I00
aI00
aI00
aI00
aI00
aI00
aI00
aI00
aI00
aI00
aI00
aI00
aI00
aI00
aI00
aI00
aI00
aI00
aa(lp38
I00
aI00
aI00
aI00
aI00
aI01
aI00
aI00
aI00
aI01
aI00
aI00
aI01
aI00
aI00
aI00
aI01
aI00
aa(lp39
I00
aI00
aI00
aI00
aI00
aI01
aI00
aI01
aI01
aI00
aI00
aI00
aI00
aI00
aI01
aI00
aI00
aI00
aa(lp40
I00
aI00
aI00
aI00
aI00
aI01
aI00
aI00
aI00
aI00
aI00
aI00
aI01
aI00
aI00
aI00
aI01
aI00
aa(lp41
I00
aI00
aI00
aI00
aI00
aI00
aI00
aI00
aI00
aI00
aI00
aI00
aI00
aI00
aI01
aI00
aI01
aI00
aa(lp42
I00
aI01
aI00
aI00
aI00
aI00
aI00
aI01
aI00
aI00
aI00
aI00
aI01
aI00
aI01
aI00
aI00
aI00
aa(lp43
I00
aI00
aI00
aI00
aI00
aI01
aI00
aI00
aI00
aI00
aI00
aI01
aI00
aI00
aI00
aI00
aI00
aI00
aa(lp44
I00
aI01
aI00
aI00
aI00
aI00
aI00
aI01
aI01
aI00
aI00
aI00
aI00
aI00
aI00
aI00
aI01
aI00
aa(lp45
I00
aI00
aI00
aI00
aI00
aI00
aI00
aI00
aI00
aI00
aI00
aI00
aI00
aI00
aI00
aI00
aI00
aI00
aa(lp46
I00
aI01
aI01
aI00
aI00
aI01
aI01
aI00
aI01
aI00
aI00
aI00
aI00
aI00
aI00
aI00
aI00
aI00
aa(lp47
I00
aI00
aI00
aI00
aI00
aI00
aI00
aI00
aI00
aI00
aI00
aI00
aI00
aI00
aI00
aI00
aI00
aI00
aa(lp48
I00
aI01
aI00
aI00
aI00
aI01
aI00
aI00
aI00
aI00
aI00
aI00
aI00
aI00
aI00
aI00
aI00
aI00
aa(lp49
I00
aI00
aI00
aI00
aI00
aI00
aI00
aI00
aI00
aI00
aI00
aI00
aI00
aI00
aI00
aI00
aI00
aI00
aa(lp50
I00
aI00
aI00
aI00
aI00
aI00
aI00
aI00
aI00
aI00
aI00
aI00
aI00
aI00
aI00
aI00
aI00
aI00
aa(lp51
I00
aI00
aI00
aI00
aI00
aI00
aI00
aI00
aI00
aI00
aI00
aI00
aI00
aI00
aI00
aI00
aI00
aI00
aa(lp52
I00
aI00
aI00
aI00
aI00
aI00
aI00
aI00
aI00
aI00
aI00
aI00
aI00
aI00
aI00
aI00
aI00
aI00
aasS'height'
p53
I18
sbsS'agentPositions'
p54
(lp55
(I00
(I1
I2
tp56
tp57
a(I00
(I32
I15
tp58
tp59
a(I00
(I1
I1
tp60
tp61
a(I00
(I32
I16
tp62
tp63
asg53
I18
sg16
I34
sS'walls'
p64
(igame
Grid
p65
(dp66
g15
I30
sg16
I34
sg17
(lp67
(lp68
I01
aI01
aI01
aI01
aI01
aI01
aI01
aI01
aI01
aI01
aI01
aI01
aI01
aI01
aI01
aI01
aI01
aI01
aa(lp69
I01
aI00
aI00
aI00
aI00
aI00
aI00
aI00
aI00
aI00
aI00
aI00
aI00
aI00
aI00
aI00
aI00
aI01
aa(lp70
I01
aI01
aI01
aI01
aI01
aI01
aI01
aI01
aI01
aI01
aI01
aI01
aI01
aI01
aI01
aI01
aI00
aI01
aa(lp71
I01
aI00
aI00
aI01
aI00
aI00
aI00
aI00
aI01
aI00
aI00
aI00
aI00
aI00
aI00
aI00
aI00
aI01
aa(lp72
I01
aI00
aI00
aI01
aI00
aI01
aI00
aI00
aI00
aI00
aI00
aI01
aI00
aI01
aI00
aI01
aI00
aI01
aa(lp73
I01
aI00
aI00
aI00
aI00
aI01
aI01
aI01
aI01
aI01
aI01
aI01
aI01
aI01
aI00
aI01
aI01
aI01
aa(lp74
I01
aI00
aI00
aI00
aI00
aI00
aI00
aI00
aI00
aI00
aI00
aI00
aI00
aI00
aI00
aI00
aI00
aI01
aa(lp75
I01
aI00
aI01
aI01
aI01
aI01
aI01
aI00
aI01
aI01
aI01
aI01
aI01
aI00
aI01
aI01
aI01
aI01
aa(lp76
I01
aI00
aI00
aI00
aI00
aI00
aI00
aI00
aI00
aI00
aI00
aI01
aI00
aI00
aI00
aI00
aI00
aI01
aa(lp77
I01
aI01
aI01
aI01
aI01
aI01
aI00
aI01
aI01
aI01
aI01
aI01
aI00
aI01
aI00
aI01
aI00
aI01
aa(lp78
I01
aI00
aI00
aI00
aI01
aI00
aI00
aI00
aI00
aI01
aI00
aI01
aI00
aI00
aI00
aI01
aI00
aI01
aa(lp79
I01
aI00
aI01
aI00
aI01
aI01
aI00
aI01
aI00
aI01
aI00
aI00
aI00
aI01
aI00
aI01
aI00
aI01
aa(lp80
I01
aI00
aI01
aI01
aI01
aI00
aI00
aI01
aI00
aI01
aI00
aI01
aI00
aI01
aI00
aI00
aI00
aI01
aa(lp81
I01
aI00
aI01
aI00
aI01
aI01
aI00
aI01
aI00
aI00
aI00
aI00
aI00
aI01
aI00
aI01
aI01
aI01
aa(lp82
I01
aI00
aI00
aI00
aI00
aI00
aI00
aI01
aI00
aI01
aI00
aI01
aI00
aI00
aI00
aI00
aI00
aI01
aa(lp83
I01
aI01
aI01
aI00
aI01
aI01
aI01
aI01
aI01
aI01
aI00
aI01
aI01
aI00
aI01
aI01
aI00
aI01
aa(lp84
I01
aI00
aI00
aI00
aI00
aI00
aI00
aI01
aI00
aI00
aI00
aI01
aI00
aI00
aI00
aI01
aI00
aI01
aa(lp85
I01
aI00
aI01
aI00
aI00
aI00
aI01
aI00
aI00
aI00
aI01
aI00
aI00
aI00
aI00
aI00
aI00
aI01
aa(lp86
I01
aI00
aI01
aI01
aI00
aI01
aI01
aI00
aI01
aI01
aI01
aI01
aI01
aI01
aI00
aI01
aI01
aI01
aa(lp87
I01
aI00
aI00
aI00
aI00
aI00
aI01
aI00
aI01
aI00
aI01
aI00
aI00
aI00
aI00
aI00
aI00
aI01
aa(lp88
I01
aI01
aI01
aI00
aI01
aI00
aI00
aI00
aI00
aI00
aI01
aI00
aI01
aI01
aI00
aI01
aI00
aI01
aa(lp89
I01
aI00
aI00
aI00
aI01
aI00
aI01
aI00
aI01
aI00
aI01
aI00
aI00
aI01
aI01
aI01
aI00
aI01
aa(lp90
I01
aI00
aI01
aI00
aI01
aI00
aI00
aI00
aI01
aI00
aI01
aI00
aI01
aI01
aI00
aI01
aI00
aI01
aa(lp91
I01
aI00
aI01
aI00
aI00
aI00
aI01
aI00
aI01
aI00
aI00
aI00
aI00
aI01
aI00
aI00
aI00
aI01
aa(lp92
I01
aI00
aI01
aI00
aI01
aI00
aI01
aI01
aI01
aI01
aI01
aI00
aI01
aI01
aI01
aI01
aI01
aI01
aa(lp93
I01
aI00
aI00
aI00
aI00
aI00
aI01
aI00
aI00
aI00
aI00
aI00
aI00
aI00
aI00
aI00
aI00
aI01
aa(lp94
I01
aI01
aI01
aI01
aI00
aI01
aI01
aI01
aI01
aI01
aI00
aI01
aI01
aI01
aI01
aI01
aI00
aI01
aa(lp95
I01
aI00
aI00
aI00
aI00
aI00
aI00
aI00
aI00
aI00
aI00
aI00
aI00
aI00
aI00
aI00
aI00
aI01
aa(lp96
I01
aI01
aI01
aI00
aI01
aI01
aI01
aI01
aI01
aI01
aI01
aI01
aI01
aI00
aI00
aI00
aI00
aI01
aa(lp97
I01
aI00
aI01
aI00
aI01
aI00
aI01
aI00
aI00
aI00
aI00
aI00
aI01
aI00
aI01
aI00
aI00
aI01
aa(lp98
I01
aI00
aI00
aI00
aI00
aI00
aI00
aI00
aI00
aI01
aI00
aI00
aI00
aI00
aI01
aI00
aI00
aI01
aa(lp99
I01
aI00
aI01
aI01
aI01
aI01
aI01
aI01
aI01
aI01
aI01
aI01
aI01
aI01
aI01
aI01
aI01
aI01
aa(lp100
I01
aI00
aI00
aI00
aI00
aI00
aI00
aI00
aI00
aI00
aI00
aI00
aI00
aI00
aI00
aI00
aI00
aI01
aa(lp101
I01
aI01
aI01
aI01
aI01
aI01
aI01
aI01
aI01
aI01
aI01
aI01
aI01
aI01
aI01
aI01
aI01
aI01
aasg53
I18
sbsS'totalFood'
p102
I60
sS'layoutText'
p103
(lp104
S'%%%%%%%%%%%%%%%%%%%%%%%%%%%%%%%%%%'
p105
aS'%   .%.%. .  %    %. .. %.     %4%'
p106
aS'% % %%.% %%% % %% % %%% % %    %2%'
p107
aS'% %    %       %    .%..% %  %%% %'
p108
aS'% % %%   % %%%    % %%%%% %    % %'
p109
aS'% % .%.% .  ...%  %.%.%.% % %% % %'
p110
aS'% % %%.%%%% % %%% %     . % %  % %'
p111
aS'% %  % %.%.  .o  %%%%%% %   %  % %'
p112
aS'% % o%.%.%%%%.%%  %.    % % % %% %'
p113
aS'% %% % % %    .%  %%.%%%%.%.%o % %'
p114
aS'% %  %   % %%%%%%  o.  .%.% %  % %'
p115
aS'% %  % % .     % %%% % %%%%.%% % %'
p116
aS'% % %% % %.%.%.%  %...  . %.%. % %'
p117
aS'% %    % %%%%% %    %%% %   %% % %'
p118
aS'% %%%  % %..%.    %       %    % %'
p119
aS'%1%    % % %%% % %% % %%% %.%% % %'
p120
aS'%3%     .% .. .%    %  . .%.%.   %'
p121
aS'%%%%%%%%%%%%%%%%%%%%%%%%%%%%%%%%%%'
p122
asbsS'blueTeamName'
p123
S'Blue'
p124
sS'actions'
p125
(lp126
(I1
S'South'
p127
tp128
a(I2
S'North'
p129
tp130
a(I3
g127
tp131
a(I0
g129
tp132
a(I1
g127
tp133
a(I2
g129
tp134
a(I3
g127
tp135
a(I0
g129
tp136
a(I1
g127
tp137
a(I2
g129
tp138
a(I3
g127
tp139
a(I0
g129
tp140
a(I1
g127
tp141
a(I2
g129
tp142
a(I3
g127
tp143
a(I0
g129
tp144
a(I1
g127
tp145
a(I2
g129
tp146
a(I3
g127
tp147
a(I0
g129
tp148
a(I1
g127
tp149
a(I2
g129
tp150
a(I3
g127
tp151
a(I0
g129
tp152
a(I1
g127
tp153
a(I2
g129
tp154
a(I3
g127
tp155
a(I0
g129
tp156
a(I1
g127
tp157
a(I2
g129
tp158
a(I3
g127
tp159
a(I0
g129
tp160
a(I1
g127
tp161
a(I2
g129
tp162
a(I3
g127
tp163
a(I0
g129
tp164
a(I1
g127
tp165
a(I2
g129
tp166
a(I3
g127
tp167
a(I0
g129
tp168
a(I1
g127
tp169
a(I2
g129
tp170
a(I3
g127
tp171
a(I0
g129
tp172
a(I1
g127
tp173
a(I2
g129
tp174
a(I3
g127
tp175
a(I0
g129
tp176
a(I1
g127
tp177
a(I2
g129
tp178
a(I3
g127
tp179
a(I0
g129
tp180
a(I1
g127
tp181
a(I2
g129
tp182
a(I3
g127
tp183
a(I0
g129
tp184
a(I1
S'West'
p185
tp186
a(I2
g129
tp187
a(I3
g127
tp188
a(I0
S'East'
p189
tp190
a(I1
g185
tp191
a(I2
g189
tp192
a(I3
g185
tp193
a(I0
g189
tp194
a(I1
g129
tp195
a(I2
g189
tp196
a(I3
g185
tp197
a(I0
g127
tp198
a(I1
g129
tp199
a(I2
g127
tp200
a(I3
g129
tp201
a(I0
g127
tp202
a(I1
g185
tp203
a(I2
g127
tp204
a(I3
g129
tp205
a(I0
g189
tp206
a(I1
g185
tp207
a(I2
g189
tp208
a(I3
g185
tp209
a(I0
g189
tp210
a(I1
g185
tp211
a(I2
g189
tp212
a(I3
g185
tp213
a(I0
g189
tp214
a(I1
g129
tp215
a(I2
g189
tp216
a(I3
g185
tp217
a(I0
g127
tp218
a(I1
g185
tp219
a(I2
g127
tp220
a(I3
g129
tp221
a(I0
g189
tp222
a(I1
g185
tp223
a(I2
g189
tp224
a(I3
g185
tp225
a(I0
g189
tp226
a(I1
g129
tp227
a(I2
g189
tp228
a(I3
g185
tp229
a(I0
g127
tp230
a(I1
g185
tp231
a(I2
g127
tp232
a(I3
g129
tp233
a(I0
g189
tp234
a(I1
g185
tp235
a(I2
g189
tp236
a(I3
g185
tp237
a(I0
g189
tp238
a(I1
g185
tp239
a(I2
g189
tp240
a(I3
g185
tp241
a(I0
g189
tp242
a(I1
g185
tp243
a(I2
g189
tp244
a(I3
g185
tp245
a(I0
g189
tp246
a(I1
g185
tp247
a(I2
g189
tp248
a(I3
g185
tp249
a(I0
g189
tp250
a(I1
g185
tp251
a(I2
g189
tp252
a(I3
g185
tp253
a(I0
g189
tp254
a(I1
g127
tp255
a(I2
g127
tp256
a(I3
g185
tp257
a(I0
g129
tp258
a(I1
g185
tp259
a(I2
g127
tp260
a(I3
g127
tp261
a(I0
g189
tp262
a(I1
g185
tp263
a(I2
g189
tp264
a(I3
g185
tp265
a(I0
g189
tp266
a(I1
g185
tp267
a(I2
g189
tp268
a(I3
g185
tp269
a(I0
g189
tp270
a(I1
g127
tp271
a(I2
g189
tp272
a(I3
g185
tp273
a(I0
g129
tp274
a(I1
g185
tp275
a(I2
g127
tp276
a(I3
g127
tp277
a(I0
g189
tp278
a(I1
g185
tp279
a(I2
g127
tp280
a(I3
g185
tp281
a(I0
g189
tp282
a(I1
g129
tp283
a(I2
g189
tp284
a(I3
g185
tp285
a(I0
g127
tp286
a(I1
g129
tp287
a(I2
g127
tp288
a(I3
g185
tp289
a(I0
g127
tp290
a(I1
g129
tp291
a(I2
g189
tp292
a(I3
g189
tp293
a(I0
g127
tp294
a(I1
g185
tp295
a(I2
g189
tp296
a(I3
g127
tp297
a(I0
g189
tp298
a(I1
g185
tp299
a(I2
g189
tp300
a(I3
g127
tp301
a(I0
g189
tp302
a(I1
g127
tp303
a(I2
g127
tp304
a(I3
g185
tp305
a(I0
g189
tp306
a(I1
g129
tp307
a(I2
g127
tp308
a(I3
g185
tp309
a(I0
g189
tp310
a(I1
g185
tp311
a(I2
g185
tp312
a(I3
g185
tp313
a(I0
g127
tp314
a(I1
g185
tp315
a(I2
g127
tp316
a(I3
g185
tp317
a(I0
g127
tp318
a(I1
g185
tp319
a(I2
g185
tp320
a(I3
g189
tp321
a(I0
g185
tp322
a(I1
g185
tp323
a(I2
g185
tp324
a(I3
g185
tp325
a(I0
g185
tp326
a(I1
g129
tp327
a(I2
g185
tp328
a(I3
g189
tp329
a(I0
g185
tp330
a(I1
g129
tp331
a(I2
g127
tp332
a(I3
g185
tp333
a(I0
g127
tp334
a(I1
g129
tp335
a(I2
g185
tp336
a(I3
g189
tp337
a(I0
g127
tp338
a(I1
g129
tp339
a(I2
g185
tp340
a(I3
g185
tp341
a(I0
g127
tp342
a(I1
g127
tp343
a(I2
g129
tp344
a(I3
g189
tp345
a(I0
g127
tp346
a(I1
g127
tp347
a(I2
g129
tp348
a(I3
g189
tp349
a(I0
g185
tp350
a(I1
g127
tp351
a(I2
g129
tp352
a(I3
g185
tp353
a(I0
g127
tp354
a(I1
g127
tp355
a(I2
g185
tp356
a(I3
g185
tp357
a(I0
g185
tp358
a(I1
g189
tp359
a(I2
g185
tp360
a(I3
g189
tp361
a(I0
g185
tp362
a(I1
g189
tp363
a(I2
g185
tp364
a(I3
g185
tp365
a(I0
g185
tp366
a(I1
g129
tp367
a(I2
g185
tp368
a(I3
g189
tp369
a(I0
g127
tp370
a(I1
g129
tp371
a(I2
g129
tp372
a(I3
g185
tp373
a(I0
g185
tp374
a(I1
g189
tp375
a(I2
g129
tp376
a(I3
g189
tp377
a(I0
g185
tp378
a(I1
g189
tp379
a(I2
g189
tp380
a(I3
g185
tp381
a(I0
g127
tp382
a(I1
g189
tp383
a(I2
g189
tp384
a(I3
g189
tp385
a(I0
g127
tp386
a(I1
g129
tp387
a(I2
g189
tp388
a(I3
g185
tp389
a(I0
g185
tp390
a(I1
g129
tp391
a(I2
g129
tp392
a(I3
g189
tp393
a(I0
g185
tp394
a(I1
g129
tp395
a(I2
g129
tp396
a(I3
g185
tp397
a(I0
g185
tp398
a(I1
g129
tp399
a(I2
g129
tp400
a(I3
g189
tp401
a(I0
g185
tp402
a(I1
g185
tp403
a(I2
g129
tp404
a(I3
g127
tp405
a(I0
g129
tp406
a(I1
g185
tp407
a(I2
g185
tp408
a(I3
g127
tp409
a(I0
g129
tp410
a(I1
g185
tp411
a(I2
g185
tp412
a(I3
g127
tp413
a(I0
g189
tp414
a(I1
g185
tp415
a(I2
g185
tp416
a(I3
g127
tp417
a(I0
g185
tp418
a(I1
g185
tp419
a(I2
g185
tp420
a(I3
g127
tp421
a(I0
g127
tp422
a(I1
g129
tp423
a(I2
g185
tp424
a(I3
g127
tp425
a(I0
g127
tp426
a(I1
g129
tp427
a(I2
g129
tp428
a(I3
g127
tp429
a(I0
g189
tp430
a(I1
g129
tp431
a(I2
g129
tp432
a(I3
g127
tp433
a(I0
g189
tp434
a(I1
g129
tp435
a(I2
g129
tp436
a(I3
g127
tp437
a(I0
g189
tp438
a(I1
g189
tp439
a(I2
g129
tp440
a(I3
g127
tp441
a(I0
g189
tp442
a(I1
g189
tp443
a(I2
g189
tp444
a(I3
g127
tp445
a(I0
g129
tp446
a(I1
g189
tp447
a(I2
g189
tp448
a(I3
g127
tp449
a(I0
g129
tp450
a(I1
g189
tp451
a(I2
g189
tp452
a(I3
g127
tp453
a(I0
g129
tp454
a(I1
g127
tp455
a(I2
g189
tp456
a(I3
g127
tp457
a(I0
g129
tp458
a(I1
g127
tp459
a(I2
g127
tp460
a(I3
g127
tp461
a(I0
g129
tp462
a(I1
g189
tp463
a(I2
g127
tp464
a(I3
g185
tp465
a(I0
g185
tp466
a(I1
g189
tp467
a(I2
g189
tp468
a(I3
g185
tp469
a(I0
g185
tp470
a(I1
g127
tp471
a(I2
g189
tp472
a(I3
g129
tp473
a(I0
g185
tp474
a(I1
g189
tp475
a(I2
g127
tp476
a(I3
g129
tp477
a(I0
g185
tp478
a(I1
g189
tp479
a(I2
g189
tp480
a(I3
g185
tp481
a(I0
g129
tp482
a(I1
g129
tp483
a(I2
g189
tp484
a(I3
g185
tp485
a(I0
g129
tp486
a(I1
g189
tp487
a(I2
g129
tp488
a(I3
g185
tp489
a(I0
g189
tp490
a(I1
g189
tp491
a(I2
g127
tp492
a(I3
g129
tp493
a(I0
g189
tp494
a(I1
g185
tp495
a(I2
g185
tp496
a(I3
g185
tp497
a(I0
g189
tp498
a(I1
g185
tp499
a(I2
g189
tp500
a(I3
g185
tp501
a(I0
g129
tp502
a(I1
g189
tp503
a(I2
g127
tp504
a(I3
g129
tp505
a(I0
g129
tp506
a(I1
g185
tp507
a(I2
g129
tp508
a(I3
g185
tp509
a(I0
g129
tp510
a(I1
g189
tp511
a(I2
g129
tp512
a(I3
g185
tp513
a(I0
g129
tp514
a(I1
g189
tp515
a(I2
g127
tp516
a(I3
g185
tp517
a(I0
g189
tp518
a(I1
g185
tp519
a(I2
g185
tp520
a(I3
g185
tp521
a(I0
g185
tp522
a(I1
g185
tp523
a(I2
g189
tp524
a(I3
g185
tp525
a(I0
g185
tp526
a(I1
g189
tp527
a(I2
g129
tp528
a(I3
g129
tp529
a(I0
g189
tp530
a(I1
g189
tp531
a(I2
g127
tp532
a(I3
g129
tp533
a(I0
g189
tp534
a(I1
g185
tp535
a(I2
g185
tp536
a(I3
g185
tp537
a(I0
g185
tp538
a(I1
g185
tp539
a(I2
g189
tp540
a(I3
g185
tp541
a(I0
g185
tp542
a(I1
g189
tp543
a(I2
g127
tp544
a(I3
g185
tp545
a(I0
g189
tp546
a(I1
g185
tp547
a(I2
g129
tp548
a(I3
g129
tp549
a(I0
g189
tp550
a(I1
g189
tp551
a(I2
g185
tp552
a(I3
g185
tp553
a(I0
g129
tp554
a(I1
g185
tp555
a(I2
g189
tp556
a(I3
g189
tp557
a(I0
g189
tp558
a(I1
g189
tp559
a(I2
g127
tp560
a(I3
g185
tp561
a(I0
g185
tp562
a(I1
g185
tp563
a(I2
g129
tp564
a(I3
g189
tp565
a(I0
g189
tp566
a(I1
g189
tp567
a(I2
g129
tp568
a(I3
g185
tp569
a(I0
g189
tp570
a(I1
g127
tp571
a(I2
g127
tp572
a(I3
g189
tp573
a(I0
g129
tp574
a(I1
g129
tp575
a(I2
g185
tp576
a(I3
g185
tp577
a(I0
g127
tp578
a(I1
g127
tp579
a(I2
g185
tp580
a(I3
g189
tp581
a(I0
g185
tp582
a(I1
g129
tp583
a(I2
g129
tp584
a(I3
g185
tp585
a(I0
g185
tp586
a(I1
g185
tp587
a(I2
g127
tp588
a(I3
g189
tp589
a(I0
g189
tp590
a(I1
g189
tp591
a(I2
g127
tp592
a(I3
g185
tp593
a(I0
g189
tp594
a(I1
g189
tp595
a(I2
g185
tp596
a(I3
g189
tp597
a(I0
g127
tp598
a(I1
g185
tp599
a(I2
g189
tp600
a(I3
g185
tp601
a(I0
g129
tp602
a(I1
g189
tp603
a(I2
g129
tp604
a(I3
g189
tp605
a(I0
g185
tp606
a(I1
g185
tp607
a(I2
g129
tp608
a(I3
g185
tp609
a(I0
g185
tp610
a(I1
g185
tp611
a(I2
g127
tp612
a(I3
g189
tp613
a(I0
g189
tp614
a(I1
g189
tp615
a(I2
g189
tp616
a(I3
g185
tp617
a(I0
g189
tp618
a(I1
g127
tp619
a(I2
g185
tp620
a(I3
g189
tp621
a(I0
g127
tp622
a(I1
g127
tp623
a(I2
g129
tp624
a(I3
g185
tp625
a(I0
g129
tp626
a(I1
g127
tp627
a(I2
g185
tp628
a(I3
g189
tp629
a(I0
g129
tp630
a(I1
g129
tp631
a(I2
g189
tp632
a(I3
g185
tp633
a(I0
g189
tp634
a(I1
g129
tp635
a(I2
g129
tp636
a(I3
g129
tp637
a(I0
g189
tp638
a(I1
g129
tp639
a(I2
g129
tp640
a(I3
g129
tp641
a(I0
g189
tp642
a(I1
g189
tp643
a(I2
g189
tp644
a(I3
g185
tp645
a(I0
g129
tp646
a(I1
g189
tp647
a(I2
g189
tp648
a(I3
g185
tp649
a(I0
g129
tp650
a(I1
g129
tp651
a(I2
g189
tp652
a(I3
g185
tp653
a(I0
g189
tp654
a(I1
g127
tp655
a(I2
g127
tp656
a(I3
g129
tp657
a(I0
g189
tp658
a(I1
g129
tp659
a(I2
g127
tp660
a(I3
g129
tp661
a(I0
g189
tp662
a(I1
g129
tp663
a(I2
g185
tp664
a(I3
g189
tp665
a(I0
g189
tp666
a(I1
g189
tp667
a(I2
g127
tp668
a(I3
g129
tp669
a(I0
g127
tp670
a(I1
g189
tp671
a(I2
g127
tp672
a(I3
g189
tp673
a(I0
g127
tp674
a(I1
g189
tp675
a(I2
g189
tp676
a(I3
g189
tp677
a(I0
g185
tp678
a(I1
g189
tp679
a(I2
g127
tp680
a(I3
g189
tp681
a(I0
g189
tp682
a(I1
g127
tp683
a(I2
S'Stop'
p684
tp685
a(I3
g129
tp686
a(I0
g185
tp687
a(I1
g127
tp688
a(I2
g129
tp689
a(I3
g189
tp690
a(I0
g684
tp691
a(I1
g185
tp692
a(I2
g185
tp693
a(I3
g185
tp694
a(I0
g129
tp695
a(I1
g189
tp696
a(I2
g129
tp697
a(I3
g127
tp698
a(I0
g129
tp699
a(I1
g129
tp700
a(I2
g185
tp701
a(I3
g185
tp702
a(I0
g129
tp703
a(I1
g129
tp704
a(I2
g185
tp705
a(I3
g185
tp706
a(I0
g129
tp707
a(I1
g185
tp708
a(I2
g127
tp709
a(I3
g185
tp710
a(I0
g129
tp711
a(I1
g185
tp712
a(I2
g185
tp713
a(I3
g127
tp714
a(I0
g129
tp715
a(I1
g185
tp716
a(I2
g127
tp717
a(I3
g185
tp718
a(I0
g129
tp719
a(I1
g185
tp720
a(I2
g127
tp721
a(I3
g127
tp722
a(I0
g129
tp723
a(I1
g127
tp724
a(I2
g185
tp725
a(I3
g127
tp726
a(I0
g129
tp727
a(I1
g127
tp728
a(I2
g185
tp729
a(I3
g185
tp730
a(I0
g129
tp731
a(I1
g185
tp732
a(I2
g185
tp733
a(I3
g185
tp734
a(I0
g129
tp735
a(I1
g185
tp736
a(I2
g684
tp737
a(I3
g185
tp738
a(I0
g129
tp739
a(I1
g185
tp740
a(I2
g129
tp741
a(I3
g189
tp742
a(I0
g129
tp743
a(I1
g127
tp744
a(I2
g129
tp745
a(I3
g129
tp746
a(I0
g129
tp747
a(I1
g185
tp748
a(I2
g129
tp749
a(I3
g129
tp750
a(I0
g189
tp751
a(I1
g185
tp752
a(I2
g129
tp753
a(I3
g185
tp754
a(I0
g189
tp755
a(I1
g127
tp756
a(I2
g129
tp757
a(I3
g185
tp758
a(I0
g127
tp759
a(I1
g185
tp760
a(I2
g129
tp761
a(I3
g185
tp762
a(I0
g127
tp763
a(I1
g185
tp764
a(I2
g129
tp765
a(I3
g129
tp766
a(I0
g189
tp767
a(I1
g185
tp768
a(I2
g129
tp769
a(I3
g185
tp770
a(I0
g189
tp771
a(I1
g185
tp772
a(I2
g129
tp773
a(I3
g185
tp774
a(I0
g189
tp775
a(I1
g185
tp776
a(I2
g129
tp777
a(I3
g127
tp778
a(I0
g127
tp779
a(I1
g189
tp780
a(I2
g129
tp781
a(I3
g127
tp782
a(I0
g127
tp783
a(I1
g185
tp784
a(I2
g129
tp785
a(I3
g127
tp786
a(I0
g127
tp787
a(I1
g185
tp788
a(I2
g129
tp789
a(I3
g127
tp790
a(I0
g127
tp791
a(I1
g189
tp792
a(I2
g129
tp793
a(I3
g127
tp794
a(I0
g127
tp795
a(I1
g185
tp796
a(I2
g129
tp797
a(I3
g127
tp798
a(I0
g127
tp799
a(I1
g129
tp800
a(I2
g189
tp801
a(I3
g127
tp802
a(I0
g127
tp803
a(I1
g185
tp804
a(I2
g189
tp805
a(I3
g127
tp806
a(I0
g127
tp807
a(I1
g185
tp808
a(I2
g127
tp809
a(I3
g127
tp810
a(I0
g127
tp811
a(I1
g129
tp812
a(I2
g127
tp813
a(I3
g185
tp814
a(I0
g127
tp815
a(I1
g129
tp816
a(I2
g189
tp817
a(I3
g185
tp818
a(I0
g185
tp819
a(I1
g127
tp820
a(I2
g189
tp821
a(I3
g185
tp822
a(I0
g185
tp823
a(I1
g127
tp824
a(I2
g189
tp825
a(I3
g129
tp826
a(I0
g185
tp827
a(I1
g189
tp828
a(I2
g127
tp829
a(I3
g129
tp830
a(I0
g129
tp831
a(I1
g189
tp832
a(I2
g189
tp833
a(I3
g189
tp834
a(I0
g129
tp835
a(I1
g129
tp836
a(I2
g189
tp837
a(I3
g129
tp838
a(I0
g189
tp839
a(I1
g189
tp840
a(I2
g129
tp841
a(I3
g129
tp842
a(I0
g129
tp843
a(I1
g189
tp844
a(I2
g189
tp845
a(I3
g129
tp846
a(I0
g185
tp847
a(I1
g185
tp848
a(I2
g129
tp849
a(I3
g127
tp850
a(I0
g127
tp851
a(I1
g185
tp852
a(I2
g129
tp853
a(I3
g129
tp854
a(I0
g189
tp855
a(I1
g127
tp856
a(I2
g129
tp857
a(I3
g127
tp858
a(I0
g185
tp859
a(I1
g185
tp860
a(I2
g129
tp861
a(I3
g129
tp862
a(I0
g129
tp863
a(I1
g185
tp864
a(I2
g129
tp865
a(I3
g127
tp866
a(I0
g127
tp867
a(I1
g129
tp868
a(I2
g129
tp869
a(I3
g129
tp870
a(I0
g189
tp871
a(I1
g129
tp872
a(I2
g129
tp873
a(I3
g127
tp874
a(I0
g185
tp875
a(I1
g129
tp876
a(I2
g129
tp877
a(I3
g129
tp878
a(I0
g129
tp879
a(I1
g127
tp880
a(I2
g129
tp881
a(I3
g127
tp882
a(I0
g127
tp883
a(I1
g127
tp884
a(I2
g129
tp885
a(I3
g129
tp886
a(I0
g189
tp887
a(I1
g127
tp888
a(I2
g129
tp889
a(I3
g127
tp890
a(I0
g185
tp891
a(I1
g189
tp892
a(I2
g129
tp893
a(I3
g129
tp894
a(I0
g129
tp895
a(I1
g189
tp896
a(I2
g129
tp897
a(I3
g127
tp898
a(I0
g127
tp899
a(I1
g127
tp900
a(I2
g129
tp901
a(I3
g129
tp902
a(I0
g189
tp903
a(I1
g189
tp904
a(I2
g129
tp905
a(I3
g127
tp906
a(I0
g185
tp907
a(I1
g189
tp908
a(I2
g189
tp909
a(I3
g129
tp910
a(I0
g129
tp911
a(I1
g189
tp912
a(I2
g189
tp913
a(I3
g127
tp914
a(I0
g127
tp915
a(I1
g189
tp916
a(I2
g127
tp917
a(I3
g129
tp918
a(I0
g189
tp919
a(I1
g189
tp920
a(I2
g127
tp921
a(I3
g127
tp922
a(I0
g185
tp923
a(I1
g127
tp924
a(I2
g127
tp925
a(I3
g129
tp926
a(I0
g129
tp927
a(I1
g127
tp928
a(I2
g127
tp929
a(I3
g127
tp930
a(I0
g127
tp931
a(I1
g127
tp932
a(I2
g127
tp933
a(I3
g127
tp934
a(I0
g127
tp935
a(I1
g127
tp936
a(I2
g127
tp937
a(I3
g185
tp938
a(I0
g127
tp939
a(I1
g189
tp940
a(I2
g127
tp941
a(I3
g189
tp942
a(I0
g129
tp943
a(I1
g185
tp944
a(I2
g189
tp945
a(I3
g185
tp946
a(I0
g127
tp947
a(I1
g185
tp948
a(I2
g127
tp949
a(I3
g127
tp950
a(I0
g189
tp951
a(I1
g185
tp952
a(I2
g127
tp953
a(I3
g127
tp954
a(I0
g189
tp955
a(I1
g185
tp956
a(I2
g185
tp957
a(I3
g127
tp958
a(I0
g127
tp959
a(I1
g127
tp960
a(I2
g127
tp961
a(I3
g189
tp962
a(I0
g189
tp963
a(I1
g127
tp964
a(I2
g127
tp965
a(I3
g189
tp966
a(I0
g127
tp967
a(I1
g127
tp968
a(I2
g127
tp969
a(I3
g127
tp970
a(I0
g127
tp971
a(I1
g129
tp972
a(I2
g189
tp973
a(I3
g127
tp974
a(I0
g189
tp975
a(I1
g189
tp976
a(I2
g189
tp977
a(I3
g185
tp978
a(I0
g185
tp979
a(I1
g189
tp980
a(I2
g127
tp981
a(I3
g185
tp982
a(I0
g129
tp983
a(I1
g189
tp984
a(I2
g127
tp985
a(I3
g127
tp986
a(I0
g185
tp987
a(I1
g189
tp988
a(I2
g127
tp989
a(I3
g129
tp990
a(I0
g129
tp991
a(I1
g127
tp992
a(I2
g185
tp993
a(I3
g189
tp994
a(I0
g189
tp995
a(I1
g127
tp996
a(I2
g129
tp997
a(I3
g127
tp998
a(I0
g129
tp999
a(I1
g127
tp1000
a(I2
g189
tp1001
a(I3
g127
tp1002
a(I0
g129
tp1003
a(I1
g127
tp1004
a(I2
g127
tp1005
a(I3
g127
tp1006
a(I0
g129
tp1007
a(I1
g127
tp1008
a(I2
g189
tp1009
a(I3
g127
tp1010
a(I0
g129
tp1011
a(I1
g185
tp1012
a(I2
g189
tp1013
a(I3
g127
tp1014
a(I0
g189
tp1015
a(I1
g185
tp1016
a(I2
g189
tp1017
a(I3
g127
tp1018
a(I0
g189
tp1019
a(I1
g185
tp1020
a(I2
g129
tp1021
a(I3
g127
tp1022
a(I0
g127
tp1023
a(I1
g185
tp1024
a(I2
g129
tp1025
a(I3
g127
tp1026
a(I0
g189
tp1027
a(I1
g129
tp1028
a(I2
g129
tp1029
a(I3
g127
tp1030
a(I0
g189
tp1031
a(I1
g129
tp1032
a(I2
g129
tp1033
a(I3
g127
tp1034
a(I0
g189
tp1035
a(I1
g189
tp1036
a(I2
g129
tp1037
a(I3
g127
tp1038
a(I0
g189
tp1039
a(I1
g185
tp1040
a(I2
g189
tp1041
a(I3
g127
tp1042
a(I0
g189
tp1043
a(I1
g127
tp1044
a(I2
g189
tp1045
a(I3
g127
tp1046
a(I0
g189
tp1047
a(I1
g127
tp1048
a(I2
g189
tp1049
a(I3
g127
tp1050
a(I0
g127
tp1051
a(I1
g189
tp1052
a(I2
g189
tp1053
a(I3
g127
tp1054
a(I0
g127
tp1055
a(I1
g189
tp1056
a(I2
g189
tp1057
a(I3
g185
tp1058
a(I0
g127
tp1059
a(I1
g185
tp1060
a(I2
g189
tp1061
a(I3
g185
tp1062
a(I0
g127
tp1063
a(I1
g185
tp1064
a(I2
g127
tp1065
a(I3
g129
tp1066
a(I0
g127
tp1067
a(I1
g129
tp1068
a(I2
g127
tp1069
a(I3
g129
tp1070
a(I0
g185
tp1071
a(I1
g129
tp1072
a(I2
g127
tp1073
a(I3
g185
tp1074
a(I0
g185
tp1075
a(I1
g189
tp1076
a(I2
g127
tp1077
a(I3
g185
tp1078
a(I0
g185
tp1079
a(I1
g185
tp1080
a(I2
g127
tp1081
a(I3
g185
tp1082
a(I0
g185
tp1083
a(I1
g127
tp1084
a(I2
g185
tp1085
a(I3
g129
tp1086
a(I0
g129
tp1087
a(I1
g127
tp1088
a(I2
g189
tp1089
a(I3
g185
tp1090
a(I0
g127
tp1091
a(I1
g127
tp1092
a(I2
g129
tp1093
a(I3
g185
tp1094
a(I0
g189
tp1095
a(I1
g127
tp1096
a(I2
g129
tp1097
a(I3
g129
tp1098
a(I0
g189
tp1099
a(I1
g127
tp1100
a(I2
g189
tp1101
a(I3
g185
tp1102
a(I0
g189
tp1103
a(I1
g127
tp1104
a(I2
g189
tp1105
a(I3
g185
tp1106
a(I0
g189
tp1107
a(I1
g127
tp1108
a(I2
g129
tp1109
a(I3
g185
tp1110
a(I0
g129
tp1111
a(I1
g127
tp1112
a(I2
g189
tp1113
a(I3
g185
tp1114
a(I0
g129
tp1115
a(I1
g127
tp1116
a(I2
g127
tp1117
a(I3
g185
tp1118
a(I0
g189
tp1119
a(I1
g127
tp1120
a(I2
g185
tp1121
a(I3
g185
tp1122
a(I0
g189
tp1123
a(I1
g127
tp1124
a(I2
g185
tp1125
a(I3
g127
tp1126
a(I0
g127
tp1127
a(I1
g127
tp1128
a(I2
g185
tp1129
a(I3
g185
tp1130
a(I0
g127
tp1131
a(I1
g127
tp1132
a(I2
g185
tp1133
a(I3
g189
tp1134
a(I0
g189
tp1135
a(I1
g127
tp1136
a(I2
g189
tp1137
a(I3
g127
tp1138
a(I0
g185
tp1139
a(I1
g127
tp1140
a(I2
g189
tp1141
a(I3
g129
tp1142
a(I0
g189
tp1143
a(I1
g185
tp1144
a(I2
g185
tp1145
a(I3
g185
tp1146
a(I0
g189
tp1147
a(I1
g185
tp1148
a(I2
g185
tp1149
a(I3
g189
tp1150
a(I0
g185
tp1151
a(I1
g129
tp1152
a(I2
g189
tp1153
a(I3
g127
tp1154
a(I0
g185
tp1155
a(I1
g129
tp1156
a(I2
g189
tp1157
a(I3
g129
tp1158
a(I0
g189
tp1159
a(I1
g185
tp1160
a(I2
g185
tp1161
a(I3
g185
tp1162
a(I0
g189
tp1163
a(I1
g185
tp1164
a(I2
g185
tp1165
a(I3
g189
tp1166
a(I0
g185
tp1167
a(I1
g185
tp1168
a(I2
g189
tp1169
a(I3
g127
tp1170
a(I0
g185
tp1171
a(I1
g129
tp1172
a(I2
g189
tp1173
a(I3
g129
tp1174
a(I0
g189
tp1175
a(I1
g185
tp1176
a(I2
g185
tp1177
a(I3
g185
tp1178
a(I0
g189
tp1179
a(I1
g185
tp1180
a(I2
g129
tp1181
a(I3
g189
tp1182
a(I0
g185
tp1183
a(I1
g127
tp1184
a(I2
g127
tp1185
a(I3
g127
tp1186
a(I0
g185
tp1187
a(I1
g185
tp1188
a(I2
g189
tp1189
a(I3
g129
tp1190
a(I0
g189
tp1191
a(I1
g185
tp1192
a(I2
g185
tp1193
a(I3
g127
tp1194
a(I0
g185
tp1195
a(I1
g185
tp1196
a(I2
g189
tp1197
a(I3
g129
tp1198
a(I0
g189
tp1199
a(I1
g185
tp1200
a(I2
g185
tp1201
a(I3
g127
tp1202
a(I0
g185
tp1203
a(I1
g185
tp1204
a(I2
g189
tp1205
a(I3
g129
tp1206
a(I0
g189
tp1207
a(I1
g185
tp1208
a(I2
g185
tp1209
a(I3
g127
tp1210
a(I0
g185
tp1211
a(I1
g129
tp1212
a(I2
g189
tp1213
a(I3
g129
tp1214
a(I0
g189
tp1215
a(I1
g185
tp1216
a(I2
g189
tp1217
a(I3
g127
tp1218
a(I0
g185
tp1219
a(I1
g185
tp1220
a(I2
g127
tp1221
a(I3
g129
tp1222
a(I0
g129
tp1223
a(I1
g185
tp1224
a(I2
g129
tp1225
a(I3
g185
tp1226
a(I0
g129
tp1227
a(I1
g189
tp1228
a(I2
g185
tp1229
a(I3
g185
tp1230
a(I0
g129
tp1231
a(I1
g189
tp1232
a(I2
g185
tp1233
a(I3
g189
tp1234
a(I0
g189
tp1235
a(I1
g185
tp1236
a(I2
g127
tp1237
a(I3
g185
tp1238
a(I0
g129
tp1239
a(I1
g185
tp1240
a(I2
g129
tp1241
a(I3
g185
tp1242
a(I0
g129
tp1243
a(I1
g127
tp1244
a(I2
g189
tp1245
a(I3
g127
tp1246
a(I0
g129
tp1247
a(I1
g189
tp1248
a(I2
g189
tp1249
a(I3
g127
tp1250
a(I0
g129
tp1251
a(I1
g129
tp1252
a(I2
g127
tp1253
a(I3
g127
tp1254
a(I0
g129
tp1255
a(I1
g185
tp1256
a(I2
g129
tp1257
a(I3
g127
tp1258
a(I0
g129
tp1259
a(I1
g129
tp1260
a(I2
g129
tp1261
a(I3
g127
tp1262
a(I0
g129
tp1263
a(I1
g189
tp1264
a(I2
g129
tp1265
a(I3
g127
tp1266
a(I0
g129
tp1267
a(I1
g127
tp1268
a(I2
g129
tp1269
a(I3
g127
tp1270
a(I0
g129
tp1271
a(I1
g185
tp1272
a(I2
g127
tp1273
a(I3
g127
tp1274
a(I0
g129
tp1275
a(I1
g127
tp1276
a(I2
g127
tp1277
a(I3
g127
tp1278
a(I0
g129
tp1279
a(I1
g189
tp1280
a(I2
g127
tp1281
a(I3
g127
tp1282
a(I0
g129
tp1283
a(I1
g129
tp1284
a(I2
g127
tp1285
a(I3
g127
tp1286
a(I0
g129
tp1287
a(I1
g185
tp1288
a(I2
g129
tp1289
a(I3
g127
tp1290
a(I0
g129
tp1291
a(I1
g129
tp1292
a(I2
g129
tp1293
a(I3
g127
tp1294
a(I0
g189
tp1295
a(I1
g189
tp1296
a(I2
g129
tp1297
a(I3
g127
tp1298
a(I0
g189
tp1299
a(I1
g127
tp1300
a(I2
g129
tp1301
a(I3
g127
tp1302
a(I0
g127
tp1303
a(I1
g185
tp1304
a(I2
g127
tp1305
a(I3
g127
tp1306
a(I0
g127
tp1307
a(I1
g127
tp1308
a(I2
g127
tp1309
a(I3
g185
tp1310
a(I0
g189
tp1311
a(I1
g189
tp1312
a(I2
g127
tp1313
a(I3
g185
tp1314
a(I0
g189
tp1315
a(I1
g129
tp1316
a(I2
g185
tp1317
a(I3
g129
tp1318
a(I0
g189
tp1319
a(I1
g185
tp1320
a(I2
g189
tp1321
a(I3
g129
tp1322
a(I0
g127
tp1323
a(I1
g129
tp1324
a(I2
g129
tp1325
a(I3
g185
tp1326
a(I0
g127
tp1327
a(I1
g189
tp1328
a(I2
g129
tp1329
a(I3
g185
tp1330
a(I0
g129
tp1331
asS'length'
p1332
I1200
sS'agents'
p1333
(lp1334
(igame
Agent
p1335
(dp1336
S'index'
p1337
I0
sba(igame
Agent
p1338
(dp1339
g1337
I0
sba(igame
Agent
p1340
(dp1341
g1337
I0
sba(igame
Agent
p1342
(dp1343
g1337
I0
sbasS'redTeamName'
p1344
S'Red'
p1345
s.