(dp1
S'layout'
p2
(ilayout
Layout
p3
(dp4
S'capsules'
p5
(lp6
(I19
I7
tp7
a(I29
I8
tp8
a(I4
I9
tp9
a(I14
I10
tp10
asS'numGhosts'
p11
I4
sS'food'
p12
(igame
Grid
p13
(dp14
S'CELLS_PER_INT'
p15
I30
sS'width'
p16
I34
sS'data'
p17
(lp18
(lp19
I00
aI00
aI00
aI00
aI00
aI00
aI00
aI00
aI00
aI00
aI00
aI00
aI00
aI00
aI00
aI00
aI00
aI00
aa(lp20
I00
aI00
aI00
aI00
aI00
aI00
aI00
aI00
aI00
aI00
aI00
aI00
aI00
aI00
aI00
aI00
aI00
aI00
aa(lp21
I00
aI00
aI00
aI00
aI00
aI00
aI00
aI00
aI00
aI00
aI00
aI00
aI00
aI00
aI00
aI00
aI00
aI00
aa(lp22
I00
aI00
aI00
aI00
aI00
aI00
aI00
aI00
aI00
aI00
aI00
aI00
aI00
aI00
aI00
aI00
aI00
aI00
aa(lp23
I00
aI00
aI00
aI00
aI00
aI00
aI00
aI00
aI00
aI00
aI00
aI00
aI01
aI00
aI00
aI00
aI01
aI00
aa(lp24
I00
aI00
aI00
aI00
aI00
aI00
aI00
aI00
aI00
aI00
aI00
aI00
aI00
aI00
aI00
aI00
aI00
aI00
aa(lp25
I00
aI00
aI00
aI00
aI00
aI00
aI00
aI00
aI00
aI01
aI00
aI01
aI01
aI00
aI00
aI01
aI01
aI00
aa(lp26
I00
aI00
aI00
aI00
aI00
aI00
aI00
aI00
aI00
aI00
aI00
aI00
aI00
aI00
aI00
aI00
aI00
aI00
aa(lp27
I00
aI01
aI00
aI00
aI00
aI00
aI00
aI00
aI00
aI01
aI01
aI00
aI00
aI00
aI00
aI00
aI01
aI00
aa(lp28
I00
aI00
aI00
aI00
aI00
aI00
aI01
aI00
aI00
aI00
aI00
aI00
aI01
aI00
aI00
aI00
aI00
aI00
aa(lp29
I00
aI00
aI00
aI01
aI00
aI01
aI00
aI00
aI00
aI00
aI01
aI00
aI00
aI00
aI00
aI00
aI01
aI00
aa(lp30
I00
aI01
aI00
aI01
aI00
aI00
aI00
aI00
aI00
aI00
aI00
aI00
aI00
aI00
aI00
aI00
aI00
aI00
aa(lp31
I00
aI01
aI00
aI00
aI00
aI01
aI00
aI00
aI00
aI00
aI00
aI00
aI01
aI00
aI00
aI00
aI00
aI00
aa(lp32
I00
aI00
aI00
aI01
aI00
aI00
aI00
aI00
aI00
aI01
aI01
aI00
aI01
aI00
aI00
aI00
aI00
aI00
aa(lp33
I00
aI01
aI00
aI00
aI00
aI01
aI00
aI00
aI01
aI00
aI00
aI00
aI01
aI00
aI00
aI00
aI00
aI00
aa(lp34
I00
aI00
aI00
aI00
aI00
aI00
aI00
aI00
aI00
aI00
aI00
aI00
aI00
aI00
aI00
aI00
aI00
aI00
aa(lp35
I00
aI00
aI00
aI00
aI00
aI00
aI00
aI00
aI00
aI00
aI00
aI00
aI00
aI00
aI00
aI00
aI00
aI00
aa(lp36
I00
aI00
aI00
aI00
aI00
aI00
aI00
aI00
aI00
aI00
aI00
aI00
aI00
aI00
aI00
aI00
aI00
aI00
aa(lp37
I00
aI00
aI00
aI00
aI00
aI00
aI00
aI00
aI00
aI00
aI00
aI00
aI00
aI00
aI00
aI00
aI00
aI00
aa(lp38
I00
aI00
aI00
aI00
aI00
aI01
aI00
aI00
aI00
aI01
aI00
aI00
aI01
aI00
aI00
aI00
aI01
aI00
aa(lp39
I00
aI00
aI00
aI00
aI00
aI01
aI00
aI01
aI01
aI00
aI00
aI00
aI00
aI00
aI01
aI00
aI00
aI00
aa(lp40
I00
aI00
aI00
aI00
aI00
aI01
aI00
aI00
aI00
aI00
aI00
aI00
aI01
aI00
aI00
aI00
aI01
aI00
aa(lp41
I00
aI00
aI00
aI00
aI00
aI00
aI00
aI00
aI00
aI00
aI00
aI00
aI00
aI00
aI01
aI00
aI01
aI00
aa(lp42
I00
aI01
aI00
aI00
aI00
aI00
aI00
aI01
aI00
aI00
aI00
aI00
aI01
aI00
aI01
aI00
aI00
aI00
aa(lp43
I00
aI00
aI00
aI00
aI00
aI01
aI00
aI00
aI00
aI00
aI00
aI01
aI00
aI00
aI00
aI00
aI00
aI00
aa(lp44
I00
aI01
aI00
aI00
aI00
aI00
aI00
aI01
aI01
aI00
aI00
aI00
aI00
aI00
aI00
aI00
aI01
aI00
aa(lp45
I00
aI00
aI00
aI00
aI00
aI00
aI00
aI00
aI00
aI00
aI00
aI00
aI00
aI00
aI00
aI00
aI00
aI00
aa(lp46
I00
aI01
aI01
aI00
aI00
aI01
aI01
aI00
aI01
aI00
aI00
aI00
aI00
aI00
aI00
aI00
aI00
aI00
aa(lp47
I00
aI00
aI00
aI00
aI00
aI00
aI00
aI00
aI00
aI00
aI00
aI00
aI00
aI00
aI00
aI00
aI00
aI00
aa(lp48
I00
aI01
aI00
aI00
aI00
aI01
aI00
aI00
aI00
aI00
aI00
aI00
aI00
aI00
aI00
aI00
aI00
aI00
aa(lp49
I00
aI00
aI00
aI00
aI00
aI00
aI00
aI00
aI00
aI00
aI00
aI00
aI00
aI00
aI00
aI00
aI00
aI00
aa(lp50
I00
aI00
aI00
aI00
aI00
aI00
aI00
aI00
aI00
aI00
aI00
aI00
aI00
aI00
aI00
aI00
aI00
aI00
aa(lp51
I00
aI00
aI00
aI00
aI00
aI00
aI00
aI00
aI00
aI00
aI00
aI00
aI00
aI00
aI00
aI00
aI00
aI00
aa(lp52
I00
aI00
aI00
aI00
aI00
aI00
aI00
aI00
aI00
aI00
aI00
aI00
aI00
aI00
aI00
aI00
aI00
aI00
aasS'height'
p53
I18
sbsS'agentPositions'
p54
(lp55
(I00
(I1
I2
tp56
tp57
a(I00
(I32
I15
tp58
tp59
a(I00
(I1
I1
tp60
tp61
a(I00
(I32
I16
tp62
tp63
asg53
I18
sg16
I34
sS'walls'
p64
(igame
Grid
p65
(dp66
g15
I30
sg16
I34
sg17
(lp67
(lp68
I01
aI01
aI01
aI01
aI01
aI01
aI01
aI01
aI01
aI01
aI01
aI01
aI01
aI01
aI01
aI01
aI01
aI01
aa(lp69
I01
aI00
aI00
aI00
aI00
aI00
aI00
aI00
aI00
aI00
aI00
aI00
aI00
aI00
aI00
aI00
aI00
aI01
aa(lp70
I01
aI01
aI01
aI01
aI01
aI01
aI01
aI01
aI01
aI01
aI01
aI01
aI01
aI01
aI01
aI01
aI00
aI01
aa(lp71
I01
aI00
aI00
aI01
aI00
aI00
aI00
aI00
aI01
aI00
aI00
aI00
aI00
aI00
aI00
aI00
aI00
aI01
aa(lp72
I01
aI00
aI00
aI01
aI00
aI01
aI00
aI00
aI00
aI00
aI00
aI01
aI00
aI01
aI00
aI01
aI00
aI01
aa(lp73
I01
aI00
aI00
aI00
aI00
aI01
aI01
aI01
aI01
aI01
aI01
aI01
aI01
aI01
aI00
aI01
aI01
aI01
aa(lp74
I01
aI00
aI00
aI00
aI00
aI00
aI00
aI00
aI00
aI00
aI00
aI00
aI00
aI00
aI00
aI00
aI00
aI01
aa(lp75
I01
aI00
aI01
aI01
aI01
aI01
aI01
aI00
aI01
aI01
aI01
aI01
aI01
aI00
aI01
aI01
aI01
aI01
aa(lp76
I01
aI00
aI00
aI00
aI00
aI00
aI00
aI00
aI00
aI00
aI00
aI01
aI00
aI00
aI00
aI00
aI00
aI01
aa(lp77
I01
aI01
aI01
aI01
aI01
aI01
aI00
aI01
aI01
aI01
aI01
aI01
aI00
aI01
aI00
aI01
aI00
aI01
aa(lp78
I01
aI00
aI00
aI00
aI01
aI00
aI00
aI00
aI00
aI01
aI00
aI01
aI00
aI00
aI00
aI01
aI00
aI01
aa(lp79
I01
aI00
aI01
aI00
aI01
aI01
aI00
aI01
aI00
aI01
aI00
aI00
aI00
aI01
aI00
aI01
aI00
aI01
aa(lp80
I01
aI00
aI01
aI01
aI01
aI00
aI00
aI01
aI00
aI01
aI00
aI01
aI00
aI01
aI00
aI00
aI00
aI01
aa(lp81
I01
aI00
aI01
aI00
aI01
aI01
aI00
aI01
aI00
aI00
aI00
aI00
aI00
aI01
aI00
aI01
aI01
aI01
aa(lp82
I01
aI00
aI00
aI00
aI00
aI00
aI00
aI01
aI00
aI01
aI00
aI01
aI00
aI00
aI00
aI00
aI00
aI01
aa(lp83
I01
aI01
aI01
aI00
aI01
aI01
aI01
aI01
aI01
aI01
aI00
aI01
aI01
aI00
aI01
aI01
aI00
aI01
aa(lp84
I01
aI00
aI00
aI00
aI00
aI00
aI00
aI01
aI00
aI00
aI00
aI01
aI00
aI00
aI00
aI01
aI00
aI01
aa(lp85
I01
aI00
aI01
aI00
aI00
aI00
aI01
aI00
aI00
aI00
aI01
aI00
aI00
aI00
aI00
aI00
aI00
aI01
aa(lp86
I01
aI00
aI01
aI01
aI00
aI01
aI01
aI00
aI01
aI01
aI01
aI01
aI01
aI01
aI00
aI01
aI01
aI01
aa(lp87
I01
aI00
aI00
aI00
aI00
aI00
aI01
aI00
aI01
aI00
aI01
aI00
aI00
aI00
aI00
aI00
aI00
aI01
aa(lp88
I01
aI01
aI01
aI00
aI01
aI00
aI00
aI00
aI00
aI00
aI01
aI00
aI01
aI01
aI00
aI01
aI00
aI01
aa(lp89
I01
aI00
aI00
aI00
aI01
aI00
aI01
aI00
aI01
aI00
aI01
aI00
aI00
aI01
aI01
aI01
aI00
aI01
aa(lp90
I01
aI00
aI01
aI00
aI01
aI00
aI00
aI00
aI01
aI00
aI01
aI00
aI01
aI01
aI00
aI01
aI00
aI01
aa(lp91
I01
aI00
aI01
aI00
aI00
aI00
aI01
aI00
aI01
aI00
aI00
aI00
aI00
aI01
aI00
aI00
aI00
aI01
aa(lp92
I01
aI00
aI01
aI00
aI01
aI00
aI01
aI01
aI01
aI01
aI01
aI00
aI01
aI01
aI01
aI01
aI01
aI01
aa(lp93
I01
aI00
aI00
aI00
aI00
aI00
aI01
aI00
aI00
aI00
aI00
aI00
aI00
aI00
aI00
aI00
aI00
aI01
aa(lp94
I01
aI01
aI01
aI01
aI00
aI01
aI01
aI01
aI01
aI01
aI00
aI01
aI01
aI01
aI01
aI01
aI00
aI01
aa(lp95
I01
aI00
aI00
aI00
aI00
aI00
aI00
aI00
aI00
aI00
aI00
aI00
aI00
aI00
aI00
aI00
aI00
aI01
aa(lp96
I01
aI01
aI01
aI00
aI01
aI01
aI01
aI01
aI01
aI01
aI01
aI01
aI01
aI00
aI00
aI00
aI00
aI01
aa(lp97
I01
aI00
aI01
aI00
aI01
aI00
aI01
aI00
aI00
aI00
aI00
aI00
aI01
aI00
aI01
aI00
aI00
aI01
aa(lp98
I01
aI00
aI00
aI00
aI00
aI00
aI00
aI00
aI00
aI01
aI00
aI00
aI00
aI00
aI01
aI00
aI00
aI01
aa(lp99
I01
aI00
aI01
aI01
aI01
aI01
aI01
aI01
aI01
aI01
aI01
aI01
aI01
aI01
aI01
aI01
aI01
aI01
aa(lp100
I01
aI00
aI00
aI00
aI00
aI00
aI00
aI00
aI00
aI00
aI00
aI00
aI00
aI00
aI00
aI00
aI00
aI01
aa(lp101
I01
aI01
aI01
aI01
aI01
aI01
aI01
aI01
aI01
aI01
aI01
aI01
aI01
aI01
aI01
aI01
aI01
aI01
aasg53
I18
sbsS'totalFood'
p102
I60
sS'layoutText'
p103
(lp104
S'%%%%%%%%%%%%%%%%%%%%%%%%%%%%%%%%%%'
p105
aS'%   .%.%. .  %    %. .. %.     %4%'
p106
aS'% % %%.% %%% % %% % %%% % %    %2%'
p107
aS'% %    %       %    .%..% %  %%% %'
p108
aS'% % %%   % %%%    % %%%%% %    % %'
p109
aS'% % .%.% .  ...%  %.%.%.% % %% % %'
p110
aS'% % %%.%%%% % %%% %     . % %  % %'
p111
aS'% %  % %.%.  .o  %%%%%% %   %  % %'
p112
aS'% % o%.%.%%%%.%%  %.    % % % %% %'
p113
aS'% %% % % %    .%  %%.%%%%.%.%o % %'
p114
aS'% %  %   % %%%%%%  o.  .%.% %  % %'
p115
aS'% %  % % .     % %%% % %%%%.%% % %'
p116
aS'% % %% % %.%.%.%  %...  . %.%. % %'
p117
aS'% %    % %%%%% %    %%% %   %% % %'
p118
aS'% %%%  % %..%.    %       %    % %'
p119
aS'%1%    % % %%% % %% % %%% %.%% % %'
p120
aS'%3%     .% .. .%    %  . .%.%.   %'
p121
aS'%%%%%%%%%%%%%%%%%%%%%%%%%%%%%%%%%%'
p122
asbsS'blueTeamName'
p123
S'Blue'
p124
sS'actions'
p125
(lp126
(I1
S'South'
p127
tp128
a(I2
S'North'
p129
tp130
a(I3
g127
tp131
a(I0
g129
tp132
a(I1
g127
tp133
a(I2
g129
tp134
a(I3
g127
tp135
a(I0
g129
tp136
a(I1
g127
tp137
a(I2
g129
tp138
a(I3
g127
tp139
a(I0
g129
tp140
a(I1
g127
tp141
a(I2
g129
tp142
a(I3
g127
tp143
a(I0
g129
tp144
a(I1
g127
tp145
a(I2
g129
tp146
a(I3
g127
tp147
a(I0
g129
tp148
a(I1
g127
tp149
a(I2
g129
tp150
a(I3
g127
tp151
a(I0
g129
tp152
a(I1
g127
tp153
a(I2
g129
tp154
a(I3
g127
tp155
a(I0
g129
tp156
a(I1
g127
tp157
a(I2
g129
tp158
a(I3
g127
tp159
a(I0
g129
tp160
a(I1
g127
tp161
a(I2
g129
tp162
a(I3
g127
tp163
a(I0
g129
tp164
a(I1
g127
tp165
a(I2
g129
tp166
a(I3
g127
tp167
a(I0
g129
tp168
a(I1
g127
tp169
a(I2
g129
tp170
a(I3
g127
tp171
a(I0
g129
tp172
a(I1
g127
tp173
a(I2
g129
tp174
a(I3
g127
tp175
a(I0
g129
tp176
a(I1
g127
tp177
a(I2
g129
tp178
a(I3
g127
tp179
a(I0
g129
tp180
a(I1
g127
tp181
a(I2
g129
tp182
a(I3
g127
tp183
a(I0
g129
tp184
a(I1
S'West'
p185
tp186
a(I2
g129
tp187
a(I3
g127
tp188
a(I0
S'East'
p189
tp190
a(I1
g185
tp191
a(I2
g189
tp192
a(I3
g185
tp193
a(I0
g189
tp194
a(I1
g129
tp195
a(I2
g189
tp196
a(I3
g185
tp197
a(I0
g127
tp198
a(I1
g129
tp199
a(I2
g127
tp200
a(I3
g129
tp201
a(I0
g127
tp202
a(I1
g185
tp203
a(I2
g127
tp204
a(I3
g129
tp205
a(I0
g189
tp206
a(I1
g185
tp207
a(I2
g189
tp208
a(I3
g185
tp209
a(I0
g189
tp210
a(I1
g185
tp211
a(I2
g189
tp212
a(I3
g185
tp213
a(I0
g189
tp214
a(I1
g129
tp215
a(I2
g189
tp216
a(I3
g185
tp217
a(I0
g127
tp218
a(I1
g185
tp219
a(I2
g127
tp220
a(I3
g129
tp221
a(I0
g189
tp222
a(I1
g185
tp223
a(I2
g127
tp224
a(I3
g185
tp225
a(I0
g189
tp226
a(I1
g129
tp227
a(I2
g127
tp228
a(I3
g185
tp229
a(I0
g127
tp230
a(I1
g185
tp231
a(I2
g127
tp232
a(I3
g129
tp233
a(I0
g189
tp234
a(I1
g185
tp235
a(I2
g127
tp236
a(I3
g185
tp237
a(I0
g189
tp238
a(I1
g185
tp239
a(I2
g127
tp240
a(I3
g185
tp241
a(I0
g189
tp242
a(I1
g185
tp243
a(I2
g127
tp244
a(I3
g185
tp245
a(I0
g189
tp246
a(I1
g185
tp247
a(I2
g189
tp248
a(I3
g185
tp249
a(I0
g189
tp250
a(I1
g185
tp251
a(I2
g189
tp252
a(I3
g185
tp253
a(I0
g189
tp254
a(I1
g127
tp255
a(I2
g127
tp256
a(I3
g185
tp257
a(I0
g129
tp258
a(I1
g185
tp259
a(I2
g189
tp260
a(I3
g127
tp261
a(I0
g189
tp262
a(I1
g185
tp263
a(I2
g189
tp264
a(I3
g185
tp265
a(I0
g189
tp266
a(I1
g185
tp267
a(I2
g189
tp268
a(I3
g185
tp269
a(I0
g129
tp270
a(I1
g127
tp271
a(I2
g189
tp272
a(I3
g185
tp273
a(I0
g189
tp274
a(I1
g185
tp275
a(I2
g189
tp276
a(I3
g189
tp277
a(I0
g127
tp278
a(I1
g185
tp279
a(I2
g189
tp280
a(I3
g189
tp281
a(I0
g127
tp282
a(I1
g185
tp283
a(I2
g127
tp284
a(I3
g189
tp285
a(I0
g129
tp286
a(I1
g189
tp287
a(I2
g127
tp288
a(I3
g129
tp289
a(I0
g129
tp290
a(I1
g127
tp291
a(I2
g127
tp292
a(I3
g189
tp293
a(I0
g127
tp294
a(I1
g127
tp295
a(I2
g127
tp296
a(I3
g129
tp297
a(I0
g129
tp298
a(I1
g185
tp299
a(I2
g127
tp300
a(I3
g129
tp301
a(I0
g127
tp302
a(I1
g185
tp303
a(I2
g185
tp304
a(I3
g185
tp305
a(I0
g129
tp306
a(I1
g185
tp307
a(I2
g185
tp308
a(I3
g185
tp309
a(I0
g185
tp310
a(I1
g185
tp311
a(I2
g185
tp312
a(I3
g185
tp313
a(I0
g189
tp314
a(I1
g189
tp315
a(I2
g185
tp316
a(I3
g129
tp317
a(I0
g185
tp318
a(I1
g127
tp319
a(I2
g189
tp320
a(I3
g185
tp321
a(I0
g189
tp322
a(I1
g127
tp323
a(I2
g189
tp324
a(I3
g129
tp325
a(I0
g185
tp326
a(I1
g127
tp327
a(I2
g189
tp328
a(I3
g129
tp329
a(I0
g189
tp330
a(I1
g127
tp331
a(I2
g189
tp332
a(I3
g185
tp333
a(I0
g127
tp334
a(I1
g127
tp335
a(I2
g129
tp336
a(I3
g185
tp337
a(I0
g129
tp338
a(I1
g127
tp339
a(I2
g129
tp340
a(I3
g185
tp341
a(I0
g127
tp342
a(I1
g127
tp343
a(I2
g129
tp344
a(I3
g129
tp345
a(I0
g129
tp346
a(I1
g127
tp347
a(I2
g129
tp348
a(I3
g129
tp349
a(I0
g127
tp350
a(I1
g127
tp351
a(I2
g129
tp352
a(I3
g185
tp353
a(I0
g129
tp354
a(I1
g127
tp355
a(I2
g185
tp356
a(I3
g189
tp357
a(I0
g185
tp358
a(I1
g127
tp359
a(I2
g185
tp360
a(I3
g127
tp361
a(I0
g189
tp362
a(I1
g127
tp363
a(I2
g185
tp364
a(I3
g127
tp365
a(I0
g127
tp366
a(I1
g127
tp367
a(I2
g185
tp368
a(I3
g129
tp369
a(I0
g129
tp370
a(I1
g127
tp371
a(I2
g129
tp372
a(I3
g127
tp373
a(I0
g127
tp374
a(I1
g185
tp375
a(I2
g129
tp376
a(I3
g127
tp377
a(I0
g127
tp378
a(I1
g185
tp379
a(I2
g189
tp380
a(I3
g129
tp381
a(I0
g185
tp382
a(I1
g129
tp383
a(I2
g189
tp384
a(I3
g185
tp385
a(I0
g189
tp386
a(I1
g129
tp387
a(I2
g189
tp388
a(I3
g189
tp389
a(I0
g129
tp390
a(I1
g185
tp391
a(I2
g129
tp392
a(I3
g129
tp393
a(I0
g129
tp394
a(I1
g185
tp395
a(I2
g129
tp396
a(I3
g129
tp397
a(I0
g127
tp398
a(I1
g185
tp399
a(I2
g129
tp400
a(I3
g127
tp401
a(I0
g129
tp402
a(I1
g129
tp403
a(I2
g129
tp404
a(I3
g129
tp405
a(I0
g127
tp406
a(I1
g129
tp407
a(I2
g129
tp408
a(I3
g189
tp409
a(I0
g129
tp410
a(I1
g129
tp411
a(I2
g129
tp412
a(I3
g129
tp413
a(I0
g127
tp414
a(I1
g129
tp415
a(I2
g129
tp416
a(I3
g189
tp417
a(I0
g129
tp418
a(I1
g129
tp419
a(I2
g129
tp420
a(I3
g189
tp421
a(I0
g129
tp422
a(I1
g129
tp423
a(I2
g129
tp424
a(I3
g189
tp425
a(I0
g127
tp426
a(I1
g129
tp427
a(I2
g129
tp428
a(I3
g129
tp429
a(I0
g129
tp430
a(I1
g185
tp431
a(I2
g129
tp432
a(I3
g185
tp433
a(I0
g129
tp434
a(I1
g185
tp435
a(I2
g129
tp436
a(I3
g127
tp437
a(I0
g129
tp438
a(I1
g129
tp439
a(I2
g129
tp440
a(I3
g185
tp441
a(I0
g129
tp442
a(I1
g185
tp443
a(I2
g129
tp444
a(I3
g185
tp445
a(I0
g129
tp446
a(I1
g185
tp447
a(I2
g129
tp448
a(I3
g127
tp449
a(I0
g129
tp450
a(I1
g185
tp451
a(I2
g129
tp452
a(I3
g185
tp453
a(I0
g129
tp454
a(I1
g185
tp455
a(I2
g129
tp456
a(I3
g185
tp457
a(I0
g129
tp458
a(I1
g185
tp459
a(I2
g129
tp460
a(I3
g185
tp461
a(I0
g129
tp462
a(I1
g185
tp463
a(I2
g189
tp464
a(I3
g185
tp465
a(I0
g129
tp466
a(I1
g129
tp467
a(I2
g189
tp468
a(I3
g185
tp469
a(I0
g129
tp470
a(I1
g129
tp471
a(I2
g127
tp472
a(I3
g185
tp473
a(I0
g129
tp474
a(I1
g129
tp475
a(I2
g127
tp476
a(I3
g129
tp477
a(I0
g129
tp478
a(I1
g185
tp479
a(I2
g189
tp480
a(I3
g185
tp481
a(I0
g129
tp482
a(I1
g185
tp483
a(I2
g189
tp484
a(I3
g185
tp485
a(I0
g189
tp486
a(I1
g185
tp487
a(I2
g189
tp488
a(I3
g127
tp489
a(I0
g189
tp490
a(I1
g127
tp491
a(I2
g127
tp492
a(I3
g127
tp493
a(I0
g127
tp494
a(I1
g185
tp495
a(I2
g127
tp496
a(I3
g127
tp497
a(I0
g127
tp498
a(I1
g185
tp499
a(I2
g127
tp500
a(I3
g127
tp501
a(I0
g189
tp502
a(I1
g127
tp503
a(I2
g127
tp504
a(I3
g129
tp505
a(I0
g189
tp506
a(I1
g185
tp507
a(I2
g127
tp508
a(I3
g127
tp509
a(I0
g189
tp510
a(I1
g185
tp511
a(I2
g127
tp512
a(I3
g127
tp513
a(I0
g127
tp514
a(I1
g185
tp515
a(I2
g127
tp516
a(I3
g127
tp517
a(I0
g189
tp518
a(I1
g127
tp519
a(I2
g189
tp520
a(I3
g127
tp521
a(I0
g189
tp522
a(I1
g127
tp523
a(I2
g189
tp524
a(I3
g127
tp525
a(I0
g127
tp526
a(I1
g185
tp527
a(I2
g127
tp528
a(I3
g127
tp529
a(I0
g189
tp530
a(I1
g189
tp531
a(I2
g189
tp532
a(I3
g127
tp533
a(I0
g189
tp534
a(I1
g185
tp535
a(I2
g189
tp536
a(I3
g127
tp537
a(I0
g189
tp538
a(I1
g189
tp539
a(I2
g129
tp540
a(I3
g127
tp541
a(I0
g127
tp542
a(I1
g189
tp543
a(I2
g129
tp544
a(I3
g127
tp545
a(I0
g127
tp546
a(I1
g189
tp547
a(I2
g189
tp548
a(I3
g127
tp549
a(I0
g189
tp550
a(I1
g127
tp551
a(I2
g189
tp552
a(I3
g127
tp553
a(I0
g189
tp554
a(I1
g129
tp555
a(I2
g189
tp556
a(I3
g127
tp557
a(I0
g189
tp558
a(I1
g127
tp559
a(I2
g129
tp560
a(I3
g127
tp561
a(I0
g189
tp562
a(I1
g127
tp563
a(I2
g129
tp564
a(I3
g127
tp565
a(I0
g189
tp566
a(I1
g127
tp567
a(I2
g189
tp568
a(I3
g185
tp569
a(I0
g127
tp570
a(I1
g127
tp571
a(I2
g189
tp572
a(I3
g185
tp573
a(I0
g189
tp574
a(I1
g127
tp575
a(I2
g189
tp576
a(I3
g129
tp577
a(I0
g127
tp578
a(I1
g127
tp579
a(I2
g127
tp580
a(I3
g129
tp581
a(I0
g129
tp582
a(I1
g127
tp583
a(I2
g129
tp584
a(I3
g185
tp585
a(I0
g127
tp586
a(I1
g127
tp587
a(I2
g127
tp588
a(I3
g185
tp589
a(I0
g129
tp590
a(I1
g127
tp591
a(I2
g127
tp592
a(I3
g185
tp593
a(I0
g127
tp594
a(I1
g127
tp595
a(I2
g129
tp596
a(I3
g129
tp597
a(I0
g129
tp598
a(I1
g127
tp599
a(I2
g127
tp600
a(I3
g185
tp601
a(I0
g127
tp602
a(I1
g127
tp603
a(I2
g129
tp604
a(I3
g185
tp605
a(I0
g129
tp606
a(I1
g127
tp607
a(I2
g127
tp608
a(I3
g129
tp609
a(I0
g127
tp610
a(I1
g127
tp611
a(I2
g129
tp612
a(I3
g185
tp613
a(I0
g185
tp614
a(I1
g185
tp615
a(I2
g127
tp616
a(I3
g185
tp617
a(I0
g189
tp618
a(I1
g185
tp619
a(I2
g129
tp620
a(I3
g185
tp621
a(I0
g129
tp622
a(I1
g129
tp623
a(I2
g127
tp624
a(I3
g185
tp625
a(I0
g127
tp626
a(I1
g129
tp627
a(I2
g129
tp628
a(I3
g185
tp629
a(I0
g129
tp630
a(I1
g185
tp631
a(I2
g127
tp632
a(I3
g129
tp633
a(I0
g127
tp634
a(I1
g185
tp635
a(I2
g129
tp636
a(I3
g129
tp637
a(I0
g185
tp638
a(I1
g185
tp639
a(I2
g127
tp640
a(I3
g185
tp641
a(I0
g189
tp642
a(I1
g129
tp643
a(I2
g129
tp644
a(I3
g185
tp645
a(I0
g185
tp646
a(I1
g185
tp647
a(I2
g127
tp648
a(I3
g185
tp649
a(I0
g129
tp650
a(I1
g185
tp651
a(I2
g129
tp652
a(I3
g129
tp653
asS'length'
p654
I1200
sS'agents'
p655
(lp656
(igame
Agent
p657
(dp658
S'index'
p659
I0
sba(igame
Agent
p660
(dp661
g659
I0
sba(igame
Agent
p662
(dp663
g659
I0
sba(igame
Agent
p664
(dp665
g659
I0
sbasS'redTeamName'
p666
S'Red'
p667
s.