(dp1
S'layout'
p2
(ilayout
Layout
p3
(dp4
S'capsules'
p5
(lp6
(I19
I7
tp7
a(I29
I8
tp8
a(I4
I9
tp9
a(I14
I10
tp10
asS'numGhosts'
p11
I4
sS'food'
p12
(igame
Grid
p13
(dp14
S'CELLS_PER_INT'
p15
I30
sS'width'
p16
I34
sS'data'
p17
(lp18
(lp19
I00
aI00
aI00
aI00
aI00
aI00
aI00
aI00
aI00
aI00
aI00
aI00
aI00
aI00
aI00
aI00
aI00
aI00
aa(lp20
I00
aI00
aI00
aI00
aI00
aI00
aI00
aI00
aI00
aI00
aI00
aI00
aI00
aI00
aI00
aI00
aI00
aI00
aa(lp21
I00
aI00
aI00
aI00
aI00
aI00
aI00
aI00
aI00
aI00
aI00
aI00
aI00
aI00
aI00
aI00
aI00
aI00
aa(lp22
I00
aI00
aI00
aI00
aI00
aI00
aI00
aI00
aI00
aI00
aI00
aI00
aI00
aI00
aI00
aI00
aI00
aI00
aa(lp23
I00
aI00
aI00
aI00
aI00
aI00
aI00
aI00
aI00
aI00
aI00
aI00
aI01
aI00
aI00
aI00
aI01
aI00
aa(lp24
I00
aI00
aI00
aI00
aI00
aI00
aI00
aI00
aI00
aI00
aI00
aI00
aI00
aI00
aI00
aI00
aI00
aI00
aa(lp25
I00
aI00
aI00
aI00
aI00
aI00
aI00
aI00
aI00
aI01
aI00
aI01
aI01
aI00
aI00
aI01
aI01
aI00
aa(lp26
I00
aI00
aI00
aI00
aI00
aI00
aI00
aI00
aI00
aI00
aI00
aI00
aI00
aI00
aI00
aI00
aI00
aI00
aa(lp27
I00
aI01
aI00
aI00
aI00
aI00
aI00
aI00
aI00
aI01
aI01
aI00
aI00
aI00
aI00
aI00
aI01
aI00
aa(lp28
I00
aI00
aI00
aI00
aI00
aI00
aI01
aI00
aI00
aI00
aI00
aI00
aI01
aI00
aI00
aI00
aI00
aI00
aa(lp29
I00
aI00
aI00
aI01
aI00
aI01
aI00
aI00
aI00
aI00
aI01
aI00
aI00
aI00
aI00
aI00
aI01
aI00
aa(lp30
I00
aI01
aI00
aI01
aI00
aI00
aI00
aI00
aI00
aI00
aI00
aI00
aI00
aI00
aI00
aI00
aI00
aI00
aa(lp31
I00
aI01
aI00
aI00
aI00
aI01
aI00
aI00
aI00
aI00
aI00
aI00
aI01
aI00
aI00
aI00
aI00
aI00
aa(lp32
I00
aI00
aI00
aI01
aI00
aI00
aI00
aI00
aI00
aI01
aI01
aI00
aI01
aI00
aI00
aI00
aI00
aI00
aa(lp33
I00
aI01
aI00
aI00
aI00
aI01
aI00
aI00
aI01
aI00
aI00
aI00
aI01
aI00
aI00
aI00
aI00
aI00
aa(lp34
I00
aI00
aI00
aI00
aI00
aI00
aI00
aI00
aI00
aI00
aI00
aI00
aI00
aI00
aI00
aI00
aI00
aI00
aa(lp35
I00
aI00
aI00
aI00
aI00
aI00
aI00
aI00
aI00
aI00
aI00
aI00
aI00
aI00
aI00
aI00
aI00
aI00
aa(lp36
I00
aI00
aI00
aI00
aI00
aI00
aI00
aI00
aI00
aI00
aI00
aI00
aI00
aI00
aI00
aI00
aI00
aI00
aa(lp37
I00
aI00
aI00
aI00
aI00
aI00
aI00
aI00
aI00
aI00
aI00
aI00
aI00
aI00
aI00
aI00
aI00
aI00
aa(lp38
I00
aI00
aI00
aI00
aI00
aI01
aI00
aI00
aI00
aI01
aI00
aI00
aI01
aI00
aI00
aI00
aI01
aI00
aa(lp39
I00
aI00
aI00
aI00
aI00
aI01
aI00
aI01
aI01
aI00
aI00
aI00
aI00
aI00
aI01
aI00
aI00
aI00
aa(lp40
I00
aI00
aI00
aI00
aI00
aI01
aI00
aI00
aI00
aI00
aI00
aI00
aI01
aI00
aI00
aI00
aI01
aI00
aa(lp41
I00
aI00
aI00
aI00
aI00
aI00
aI00
aI00
aI00
aI00
aI00
aI00
aI00
aI00
aI01
aI00
aI01
aI00
aa(lp42
I00
aI01
aI00
aI00
aI00
aI00
aI00
aI01
aI00
aI00
aI00
aI00
aI01
aI00
aI01
aI00
aI00
aI00
aa(lp43
I00
aI00
aI00
aI00
aI00
aI01
aI00
aI00
aI00
aI00
aI00
aI01
aI00
aI00
aI00
aI00
aI00
aI00
aa(lp44
I00
aI01
aI00
aI00
aI00
aI00
aI00
aI01
aI01
aI00
aI00
aI00
aI00
aI00
aI00
aI00
aI01
aI00
aa(lp45
I00
aI00
aI00
aI00
aI00
aI00
aI00
aI00
aI00
aI00
aI00
aI00
aI00
aI00
aI00
aI00
aI00
aI00
aa(lp46
I00
aI01
aI01
aI00
aI00
aI01
aI01
aI00
aI01
aI00
aI00
aI00
aI00
aI00
aI00
aI00
aI00
aI00
aa(lp47
I00
aI00
aI00
aI00
aI00
aI00
aI00
aI00
aI00
aI00
aI00
aI00
aI00
aI00
aI00
aI00
aI00
aI00
aa(lp48
I00
aI01
aI00
aI00
aI00
aI01
aI00
aI00
aI00
aI00
aI00
aI00
aI00
aI00
aI00
aI00
aI00
aI00
aa(lp49
I00
aI00
aI00
aI00
aI00
aI00
aI00
aI00
aI00
aI00
aI00
aI00
aI00
aI00
aI00
aI00
aI00
aI00
aa(lp50
I00
aI00
aI00
aI00
aI00
aI00
aI00
aI00
aI00
aI00
aI00
aI00
aI00
aI00
aI00
aI00
aI00
aI00
aa(lp51
I00
aI00
aI00
aI00
aI00
aI00
aI00
aI00
aI00
aI00
aI00
aI00
aI00
aI00
aI00
aI00
aI00
aI00
aa(lp52
I00
aI00
aI00
aI00
aI00
aI00
aI00
aI00
aI00
aI00
aI00
aI00
aI00
aI00
aI00
aI00
aI00
aI00
aasS'height'
p53
I18
sbsS'agentPositions'
p54
(lp55
(I00
(I1
I2
tp56
tp57
a(I00
(I32
I15
tp58
tp59
a(I00
(I1
I1
tp60
tp61
a(I00
(I32
I16
tp62
tp63
asg53
I18
sg16
I34
sS'walls'
p64
(igame
Grid
p65
(dp66
g15
I30
sg16
I34
sg17
(lp67
(lp68
I01
aI01
aI01
aI01
aI01
aI01
aI01
aI01
aI01
aI01
aI01
aI01
aI01
aI01
aI01
aI01
aI01
aI01
aa(lp69
I01
aI00
aI00
aI00
aI00
aI00
aI00
aI00
aI00
aI00
aI00
aI00
aI00
aI00
aI00
aI00
aI00
aI01
aa(lp70
I01
aI01
aI01
aI01
aI01
aI01
aI01
aI01
aI01
aI01
aI01
aI01
aI01
aI01
aI01
aI01
aI00
aI01
aa(lp71
I01
aI00
aI00
aI01
aI00
aI00
aI00
aI00
aI01
aI00
aI00
aI00
aI00
aI00
aI00
aI00
aI00
aI01
aa(lp72
I01
aI00
aI00
aI01
aI00
aI01
aI00
aI00
aI00
aI00
aI00
aI01
aI00
aI01
aI00
aI01
aI00
aI01
aa(lp73
I01
aI00
aI00
aI00
aI00
aI01
aI01
aI01
aI01
aI01
aI01
aI01
aI01
aI01
aI00
aI01
aI01
aI01
aa(lp74
I01
aI00
aI00
aI00
aI00
aI00
aI00
aI00
aI00
aI00
aI00
aI00
aI00
aI00
aI00
aI00
aI00
aI01
aa(lp75
I01
aI00
aI01
aI01
aI01
aI01
aI01
aI00
aI01
aI01
aI01
aI01
aI01
aI00
aI01
aI01
aI01
aI01
aa(lp76
I01
aI00
aI00
aI00
aI00
aI00
aI00
aI00
aI00
aI00
aI00
aI01
aI00
aI00
aI00
aI00
aI00
aI01
aa(lp77
I01
aI01
aI01
aI01
aI01
aI01
aI00
aI01
aI01
aI01
aI01
aI01
aI00
aI01
aI00
aI01
aI00
aI01
aa(lp78
I01
aI00
aI00
aI00
aI01
aI00
aI00
aI00
aI00
aI01
aI00
aI01
aI00
aI00
aI00
aI01
aI00
aI01
aa(lp79
I01
aI00
aI01
aI00
aI01
aI01
aI00
aI01
aI00
aI01
aI00
aI00
aI00
aI01
aI00
aI01
aI00
aI01
aa(lp80
I01
aI00
aI01
aI01
aI01
aI00
aI00
aI01
aI00
aI01
aI00
aI01
aI00
aI01
aI00
aI00
aI00
aI01
aa(lp81
I01
aI00
aI01
aI00
aI01
aI01
aI00
aI01
aI00
aI00
aI00
aI00
aI00
aI01
aI00
aI01
aI01
aI01
aa(lp82
I01
aI00
aI00
aI00
aI00
aI00
aI00
aI01
aI00
aI01
aI00
aI01
aI00
aI00
aI00
aI00
aI00
aI01
aa(lp83
I01
aI01
aI01
aI00
aI01
aI01
aI01
aI01
aI01
aI01
aI00
aI01
aI01
aI00
aI01
aI01
aI00
aI01
aa(lp84
I01
aI00
aI00
aI00
aI00
aI00
aI00
aI01
aI00
aI00
aI00
aI01
aI00
aI00
aI00
aI01
aI00
aI01
aa(lp85
I01
aI00
aI01
aI00
aI00
aI00
aI01
aI00
aI00
aI00
aI01
aI00
aI00
aI00
aI00
aI00
aI00
aI01
aa(lp86
I01
aI00
aI01
aI01
aI00
aI01
aI01
aI00
aI01
aI01
aI01
aI01
aI01
aI01
aI00
aI01
aI01
aI01
aa(lp87
I01
aI00
aI00
aI00
aI00
aI00
aI01
aI00
aI01
aI00
aI01
aI00
aI00
aI00
aI00
aI00
aI00
aI01
aa(lp88
I01
aI01
aI01
aI00
aI01
aI00
aI00
aI00
aI00
aI00
aI01
aI00
aI01
aI01
aI00
aI01
aI00
aI01
aa(lp89
I01
aI00
aI00
aI00
aI01
aI00
aI01
aI00
aI01
aI00
aI01
aI00
aI00
aI01
aI01
aI01
aI00
aI01
aa(lp90
I01
aI00
aI01
aI00
aI01
aI00
aI00
aI00
aI01
aI00
aI01
aI00
aI01
aI01
aI00
aI01
aI00
aI01
aa(lp91
I01
aI00
aI01
aI00
aI00
aI00
aI01
aI00
aI01
aI00
aI00
aI00
aI00
aI01
aI00
aI00
aI00
aI01
aa(lp92
I01
aI00
aI01
aI00
aI01
aI00
aI01
aI01
aI01
aI01
aI01
aI00
aI01
aI01
aI01
aI01
aI01
aI01
aa(lp93
I01
aI00
aI00
aI00
aI00
aI00
aI01
aI00
aI00
aI00
aI00
aI00
aI00
aI00
aI00
aI00
aI00
aI01
aa(lp94
I01
aI01
aI01
aI01
aI00
aI01
aI01
aI01
aI01
aI01
aI00
aI01
aI01
aI01
aI01
aI01
aI00
aI01
aa(lp95
I01
aI00
aI00
aI00
aI00
aI00
aI00
aI00
aI00
aI00
aI00
aI00
aI00
aI00
aI00
aI00
aI00
aI01
aa(lp96
I01
aI01
aI01
aI00
aI01
aI01
aI01
aI01
aI01
aI01
aI01
aI01
aI01
aI00
aI00
aI00
aI00
aI01
aa(lp97
I01
aI00
aI01
aI00
aI01
aI00
aI01
aI00
aI00
aI00
aI00
aI00
aI01
aI00
aI01
aI00
aI00
aI01
aa(lp98
I01
aI00
aI00
aI00
aI00
aI00
aI00
aI00
aI00
aI01
aI00
aI00
aI00
aI00
aI01
aI00
aI00
aI01
aa(lp99
I01
aI00
aI01
aI01
aI01
aI01
aI01
aI01
aI01
aI01
aI01
aI01
aI01
aI01
aI01
aI01
aI01
aI01
aa(lp100
I01
aI00
aI00
aI00
aI00
aI00
aI00
aI00
aI00
aI00
aI00
aI00
aI00
aI00
aI00
aI00
aI00
aI01
aa(lp101
I01
aI01
aI01
aI01
aI01
aI01
aI01
aI01
aI01
aI01
aI01
aI01
aI01
aI01
aI01
aI01
aI01
aI01
aasg53
I18
sbsS'totalFood'
p102
I60
sS'layoutText'
p103
(lp104
S'%%%%%%%%%%%%%%%%%%%%%%%%%%%%%%%%%%'
p105
aS'%   .%.%. .  %    %. .. %.     %4%'
p106
aS'% % %%.% %%% % %% % %%% % %    %2%'
p107
aS'% %    %       %    .%..% %  %%% %'
p108
aS'% % %%   % %%%    % %%%%% %    % %'
p109
aS'% % .%.% .  ...%  %.%.%.% % %% % %'
p110
aS'% % %%.%%%% % %%% %     . % %  % %'
p111
aS'% %  % %.%.  .o  %%%%%% %   %  % %'
p112
aS'% % o%.%.%%%%.%%  %.    % % % %% %'
p113
aS'% %% % % %    .%  %%.%%%%.%.%o % %'
p114
aS'% %  %   % %%%%%%  o.  .%.% %  % %'
p115
aS'% %  % % .     % %%% % %%%%.%% % %'
p116
aS'% % %% % %.%.%.%  %...  . %.%. % %'
p117
aS'% %    % %%%%% %    %%% %   %% % %'
p118
aS'% %%%  % %..%.    %       %    % %'
p119
aS'%1%    % % %%% % %% % %%% %.%% % %'
p120
aS'%3%     .% .. .%    %  . .%.%.   %'
p121
aS'%%%%%%%%%%%%%%%%%%%%%%%%%%%%%%%%%%'
p122
asbsS'blueTeamName'
p123
S'Blue'
p124
sS'actions'
p125
(lp126
(I1
S'South'
p127
tp128
a(I2
S'North'
p129
tp130
a(I3
g127
tp131
a(I0
g129
tp132
a(I1
g127
tp133
a(I2
g129
tp134
a(I3
g127
tp135
a(I0
g129
tp136
a(I1
g127
tp137
a(I2
g129
tp138
a(I3
g127
tp139
a(I0
g129
tp140
a(I1
g127
tp141
a(I2
g129
tp142
a(I3
g127
tp143
a(I0
g129
tp144
a(I1
g127
tp145
a(I2
g129
tp146
a(I3
g127
tp147
a(I0
g129
tp148
a(I1
g127
tp149
a(I2
g129
tp150
a(I3
g127
tp151
a(I0
g129
tp152
a(I1
g127
tp153
a(I2
g129
tp154
a(I3
g127
tp155
a(I0
g129
tp156
a(I1
g127
tp157
a(I2
g129
tp158
a(I3
g127
tp159
a(I0
g129
tp160
a(I1
g127
tp161
a(I2
g129
tp162
a(I3
g127
tp163
a(I0
g129
tp164
a(I1
g127
tp165
a(I2
g129
tp166
a(I3
g127
tp167
a(I0
g129
tp168
a(I1
g127
tp169
a(I2
g129
tp170
a(I3
g127
tp171
a(I0
g129
tp172
a(I1
g127
tp173
a(I2
g129
tp174
a(I3
g127
tp175
a(I0
g129
tp176
a(I1
g127
tp177
a(I2
g129
tp178
a(I3
g127
tp179
a(I0
g129
tp180
a(I1
g127
tp181
a(I2
g129
tp182
a(I3
g127
tp183
a(I0
g129
tp184
a(I1
S'West'
p185
tp186
a(I2
g129
tp187
a(I3
g127
tp188
a(I0
S'East'
p189
tp190
a(I1
g185
tp191
a(I2
g189
tp192
a(I3
g185
tp193
a(I0
g189
tp194
a(I1
g129
tp195
a(I2
g189
tp196
a(I3
g185
tp197
a(I0
g127
tp198
a(I1
g129
tp199
a(I2
g127
tp200
a(I3
g129
tp201
a(I0
g127
tp202
a(I1
g185
tp203
a(I2
g127
tp204
a(I3
g129
tp205
a(I0
g189
tp206
a(I1
g185
tp207
a(I2
g189
tp208
a(I3
g185
tp209
a(I0
g189
tp210
a(I1
g185
tp211
a(I2
g189
tp212
a(I3
g185
tp213
a(I0
g189
tp214
a(I1
g129
tp215
a(I2
g189
tp216
a(I3
g185
tp217
a(I0
g127
tp218
a(I1
g185
tp219
a(I2
g127
tp220
a(I3
g129
tp221
a(I0
g189
tp222
a(I1
g185
tp223
a(I2
g189
tp224
a(I3
g185
tp225
a(I0
g189
tp226
a(I1
g127
tp227
a(I2
g189
tp228
a(I3
g185
tp229
a(I0
g127
tp230
a(I1
g185
tp231
a(I2
g127
tp232
a(I3
g129
tp233
a(I0
g189
tp234
a(I1
g185
tp235
a(I2
g189
tp236
a(I3
g185
tp237
a(I0
g189
tp238
a(I1
g185
tp239
a(I2
g189
tp240
a(I3
g185
tp241
a(I0
g189
tp242
a(I1
g185
tp243
a(I2
g189
tp244
a(I3
g185
tp245
a(I0
g189
tp246
a(I1
g185
tp247
a(I2
g189
tp248
a(I3
g129
tp249
a(I0
g189
tp250
a(I1
g185
tp251
a(I2
g189
tp252
a(I3
g129
tp253
a(I0
g189
tp254
a(I1
g129
tp255
a(I2
g189
tp256
a(I3
g127
tp257
a(I0
g129
tp258
a(I1
g185
tp259
a(I2
g129
tp260
a(I3
g127
tp261
a(I0
g189
tp262
a(I1
g185
tp263
a(I2
g189
tp264
a(I3
g129
tp265
a(I0
g189
tp266
a(I1
g185
tp267
a(I2
g189
tp268
a(I3
g127
tp269
a(I0
g185
tp270
a(I1
g127
tp271
a(I2
g185
tp272
a(I3
g185
tp273
a(I0
g185
tp274
a(I1
g185
tp275
a(I2
g189
tp276
a(I3
g185
tp277
a(I0
g189
tp278
a(I1
g185
tp279
a(I2
g185
tp280
a(I3
g129
tp281
a(I0
g185
tp282
a(I1
g127
tp283
a(I2
g189
tp284
a(I3
g129
tp285
a(I0
g189
tp286
a(I1
g127
tp287
a(I2
g185
tp288
a(I3
g129
tp289
a(I0
g185
tp290
a(I1
g185
tp291
a(I2
g189
tp292
a(I3
g129
tp293
a(I0
g189
tp294
a(I1
g185
tp295
a(I2
g185
tp296
a(I3
g189
tp297
a(I0
g185
tp298
a(I1
g185
tp299
a(I2
g189
tp300
a(I3
g189
tp301
a(I0
g127
tp302
a(I1
g185
tp303
a(I2
g185
tp304
a(I3
g185
tp305
a(I0
g185
tp306
a(I1
g129
tp307
a(I2
g185
tp308
a(I3
g189
tp309
a(I0
g127
tp310
a(I1
g129
tp311
a(I2
g127
tp312
a(I3
g189
tp313
a(I0
g127
tp314
a(I1
g189
tp315
a(I2
g185
tp316
a(I3
g129
tp317
a(I0
g189
tp318
a(I1
g185
tp319
a(I2
g127
tp320
a(I3
g129
tp321
a(I0
g189
tp322
a(I1
g127
tp323
a(I2
g127
tp324
a(I3
g185
tp325
a(I0
g189
tp326
a(I1
g127
tp327
a(I2
g189
tp328
a(I3
g185
tp329
a(I0
g127
tp330
a(I1
g189
tp331
a(I2
g189
tp332
a(I3
g189
tp333
a(I0
g189
tp334
a(I1
g189
tp335
a(I2
g189
tp336
a(I3
g185
tp337
a(I0
g127
tp338
a(I1
g189
tp339
a(I2
g127
tp340
a(I3
g189
tp341
a(I0
g185
tp342
a(I1
g189
tp343
a(I2
g129
tp344
a(I3
g185
tp345
a(I0
g129
tp346
a(I1
g129
tp347
a(I2
g185
tp348
a(I3
g189
tp349
a(I0
g129
tp350
a(I1
g129
tp351
a(I2
g185
tp352
a(I3
g185
tp353
a(I0
g185
tp354
a(I1
g189
tp355
a(I2
g189
tp356
a(I3
g185
tp357
a(I0
g189
tp358
a(I1
g189
tp359
a(I2
g189
tp360
a(I3
g189
tp361
a(I0
g127
tp362
a(I1
g189
tp363
a(I2
g127
tp364
a(I3
g189
tp365
a(I0
g189
tp366
a(I1
g185
tp367
a(I2
g189
tp368
a(I3
g185
tp369
a(I0
g127
tp370
a(I1
g185
tp371
a(I2
g127
tp372
a(I3
g185
tp373
a(I0
g185
tp374
a(I1
g185
tp375
a(I2
g127
tp376
a(I3
g185
tp377
a(I0
g189
tp378
a(I1
g185
tp379
a(I2
g189
tp380
a(I3
g189
tp381
a(I0
g127
tp382
a(I1
g189
tp383
a(I2
g189
tp384
a(I3
g189
tp385
a(I0
g189
tp386
a(I1
g129
tp387
a(I2
g189
tp388
a(I3
g189
tp389
a(I0
g189
tp390
a(I1
g129
tp391
a(I2
g129
tp392
a(I3
g189
tp393
a(I0
g189
tp394
a(I1
g129
tp395
a(I2
g129
tp396
a(I3
g127
tp397
a(I0
g127
tp398
a(I1
g185
tp399
a(I2
g189
tp400
a(I3
g127
tp401
a(I0
g127
tp402
a(I1
g185
tp403
a(I2
g185
tp404
a(I3
g185
tp405
a(I0
g185
tp406
a(I1
g185
tp407
a(I2
g185
tp408
a(I3
g185
tp409
a(I0
g189
tp410
a(I1
g185
tp411
a(I2
g189
tp412
a(I3
g185
tp413
a(I0
g189
tp414
a(I1
g127
tp415
a(I2
g189
tp416
a(I3
g127
tp417
a(I0
g189
tp418
a(I1
g129
tp419
a(I2
g189
tp420
a(I3
g127
tp421
a(I0
g189
tp422
a(I1
g185
tp423
a(I2
g189
tp424
a(I3
g127
tp425
a(I0
g189
tp426
a(I1
g185
tp427
a(I2
g129
tp428
a(I3
g127
tp429
a(I0
g185
tp430
a(I1
g129
tp431
a(I2
g129
tp432
a(I3
g127
tp433
a(I0
g185
tp434
a(I1
g129
tp435
a(I2
g189
tp436
a(I3
g127
tp437
a(I0
g129
tp438
a(I1
g129
tp439
a(I2
g189
tp440
a(I3
g127
tp441
a(I0
g129
tp442
a(I1
g127
tp443
a(I2
g127
tp444
a(I3
g127
tp445
a(I0
g189
tp446
a(I1
g127
tp447
a(I2
g127
tp448
a(I3
g127
tp449
a(I0
g185
tp450
a(I1
g127
tp451
a(I2
g127
tp452
a(I3
g127
tp453
a(I0
g185
tp454
a(I1
g189
tp455
a(I2
g127
tp456
a(I3
g127
tp457
a(I0
g185
tp458
a(I1
g189
tp459
a(I2
g129
tp460
a(I3
g127
tp461
a(I0
g185
tp462
a(I1
g189
tp463
a(I2
g129
tp464
a(I3
g127
tp465
a(I0
g185
tp466
a(I1
g189
tp467
a(I2
g129
tp468
a(I3
g127
tp469
a(I0
g185
tp470
a(I1
g189
tp471
a(I2
g189
tp472
a(I3
g127
tp473
a(I0
g129
tp474
a(I1
g189
tp475
a(I2
g189
tp476
a(I3
g185
tp477
a(I0
g185
tp478
a(I1
g127
tp479
a(I2
g127
tp480
a(I3
g185
tp481
a(I0
g189
tp482
a(I1
g127
tp483
a(I2
g127
tp484
a(I3
g129
tp485
a(I0
g127
tp486
a(I1
g127
tp487
a(I2
g127
tp488
a(I3
g129
tp489
a(I0
g189
tp490
a(I1
g189
tp491
a(I2
g127
tp492
a(I3
g185
tp493
a(I0
g189
tp494
a(I1
g189
tp495
a(I2
g127
tp496
a(I3
g185
tp497
a(I0
g189
tp498
a(I1
g189
tp499
a(I2
g129
tp500
a(I3
g185
tp501
a(I0
g129
tp502
a(I1
g185
tp503
a(I2
g127
tp504
a(I3
g129
tp505
a(I0
g127
tp506
a(I1
g185
tp507
a(I2
g129
tp508
a(I3
g129
tp509
a(I0
g127
tp510
a(I1
g185
tp511
a(I2
g129
tp512
a(I3
g129
tp513
a(I0
g127
tp514
a(I1
g129
tp515
a(I2
g129
tp516
a(I3
g129
tp517
a(I0
g185
tp518
a(I1
g129
tp519
a(I2
g129
tp520
a(I3
g129
tp521
a(I0
g127
tp522
a(I1
g129
tp523
a(I2
g129
tp524
a(I3
g129
tp525
a(I0
g185
tp526
a(I1
g185
tp527
a(I2
g185
tp528
a(I3
g129
tp529
a(I0
g185
tp530
a(I1
g185
tp531
a(I2
g185
tp532
a(I3
g185
tp533
a(I0
g185
tp534
a(I1
g127
tp535
a(I2
g129
tp536
a(I3
g185
tp537
a(I0
g127
tp538
a(I1
g129
tp539
a(I2
g185
tp540
a(I3
g129
tp541
a(I0
g185
tp542
a(I1
g185
tp543
a(I2
g185
tp544
a(I3
g185
tp545
a(I0
g185
tp546
a(I1
g185
tp547
a(I2
g127
tp548
a(I3
g185
tp549
a(I0
g129
tp550
a(I1
g129
tp551
a(I2
g127
tp552
a(I3
g127
tp553
a(I0
g129
tp554
a(I1
g129
tp555
a(I2
g185
tp556
a(I3
g127
tp557
a(I0
g129
tp558
a(I1
g189
tp559
a(I2
g185
tp560
a(I3
g185
tp561
a(I0
g185
tp562
a(I1
g189
tp563
a(I2
g185
tp564
a(I3
g185
tp565
a(I0
g185
tp566
a(I1
g189
tp567
a(I2
g127
tp568
a(I3
g185
tp569
a(I0
g185
tp570
a(I1
g129
tp571
a(I2
g127
tp572
a(I3
g127
tp573
a(I0
g185
tp574
a(I1
g129
tp575
a(I2
g185
tp576
a(I3
g127
tp577
a(I0
g129
tp578
a(I1
g129
tp579
a(I2
g185
tp580
a(I3
g185
tp581
a(I0
g129
tp582
a(I1
g129
tp583
a(I2
g185
tp584
a(I3
g185
tp585
a(I0
g189
tp586
a(I1
g189
tp587
a(I2
g129
tp588
a(I3
g185
tp589
a(I0
g189
tp590
a(I1
g185
tp591
a(I2
g185
tp592
a(I3
g189
tp593
a(I0
g189
tp594
a(I1
g127
tp595
a(I2
g129
tp596
a(I3
g189
tp597
a(I0
g129
tp598
a(I1
g127
tp599
a(I2
g189
tp600
a(I3
g185
tp601
a(I0
g129
tp602
a(I1
g127
tp603
a(I2
g185
tp604
a(I3
g189
tp605
a(I0
g129
tp606
a(I1
g127
tp607
a(I2
g189
tp608
a(I3
g185
tp609
a(I0
g129
tp610
a(I1
g127
tp611
a(I2
g185
tp612
a(I3
g189
tp613
a(I0
g189
tp614
a(I1
g127
tp615
a(I2
g129
tp616
a(I3
g189
tp617
a(I0
g129
tp618
a(I1
g127
tp619
a(I2
g127
tp620
a(I3
g129
tp621
a(I0
g189
tp622
a(I1
g127
tp623
a(I2
g189
tp624
a(I3
g127
tp625
a(I0
g189
tp626
a(I1
g127
tp627
a(I2
g185
tp628
a(I3
g129
tp629
a(I0
g189
tp630
a(I1
g127
tp631
a(I2
g189
tp632
a(I3
g127
tp633
a(I0
g129
tp634
a(I1
g127
tp635
a(I2
g185
tp636
a(I3
g129
tp637
a(I0
g189
tp638
a(I1
g127
tp639
a(I2
g189
tp640
a(I3
g127
tp641
a(I0
g189
tp642
a(I1
g127
tp643
a(I2
g185
tp644
a(I3
g129
tp645
a(I0
g129
tp646
a(I1
g127
tp647
a(I2
g189
tp648
a(I3
g127
tp649
a(I0
g129
tp650
a(I1
g127
tp651
a(I2
g185
tp652
a(I3
g129
tp653
a(I0
g189
tp654
a(I1
g127
tp655
a(I2
g189
tp656
a(I3
g127
tp657
a(I0
g189
tp658
a(I1
g185
tp659
a(I2
g185
tp660
a(I3
g129
tp661
a(I0
g189
tp662
a(I1
g185
tp663
a(I2
g189
tp664
a(I3
g127
tp665
a(I0
g189
tp666
a(I1
g129
tp667
a(I2
g185
tp668
a(I3
g129
tp669
a(I0
g127
tp670
a(I1
g129
tp671
a(I2
g189
tp672
a(I3
g127
tp673
a(I0
g127
tp674
a(I1
g185
tp675
a(I2
g185
tp676
a(I3
g129
tp677
a(I0
g185
tp678
a(I1
g185
tp679
a(I2
g189
tp680
a(I3
g127
tp681
a(I0
g189
tp682
a(I1
g185
tp683
a(I2
g185
tp684
a(I3
g129
tp685
a(I0
g129
tp686
a(I1
g129
tp687
a(I2
g189
tp688
a(I3
g127
tp689
a(I0
g129
tp690
a(I1
g185
tp691
a(I2
g185
tp692
a(I3
g129
tp693
a(I0
g185
tp694
a(I1
g185
tp695
a(I2
g189
tp696
a(I3
g127
tp697
a(I0
g185
tp698
a(I1
g129
tp699
a(I2
g185
tp700
a(I3
g129
tp701
a(I0
g185
tp702
a(I1
g185
tp703
a(I2
g189
tp704
a(I3
g127
tp705
a(I0
g185
tp706
a(I1
g185
tp707
a(I2
g185
tp708
a(I3
g127
tp709
a(I0
g127
tp710
a(I1
g185
tp711
a(I2
g129
tp712
a(I3
g127
tp713
a(I0
g127
tp714
a(I1
g185
tp715
a(I2
g127
tp716
a(I3
g129
tp717
a(I0
g189
tp718
a(I1
g185
tp719
a(I2
g189
tp720
a(I3
g127
tp721
a(I0
g185
tp722
a(I1
g129
tp723
a(I2
g185
tp724
a(I3
g129
tp725
a(I0
g185
tp726
a(I1
g129
tp727
a(I2
g189
tp728
a(I3
g129
tp729
a(I0
g185
tp730
a(I1
g127
tp731
a(I2
g127
tp732
a(I3
g185
tp733
a(I0
g185
tp734
a(I1
g129
tp735
a(I2
g127
tp736
a(I3
g185
tp737
a(I0
g189
tp738
a(I1
g185
tp739
a(I2
g129
tp740
a(I3
g185
tp741
a(I0
g189
tp742
a(I1
g185
tp743
a(I2
g185
tp744
a(I3
g189
tp745
a(I0
g189
tp746
a(I1
g189
tp747
a(I2
g189
tp748
a(I3
g185
tp749
a(I0
g127
tp750
a(I1
g185
tp751
a(I2
g185
tp752
a(I3
g189
tp753
a(I0
g127
tp754
a(I1
g185
tp755
a(I2
g129
tp756
a(I3
g189
tp757
a(I0
g127
tp758
a(I1
g189
tp759
a(I2
g189
tp760
a(I3
g185
tp761
a(I0
g189
tp762
a(I1
g185
tp763
a(I2
g185
tp764
a(I3
g189
tp765
a(I0
g189
tp766
a(I1
g129
tp767
a(I2
g129
tp768
a(I3
g189
tp769
a(I0
g129
tp770
a(I1
g185
tp771
a(I2
g185
tp772
a(I3
g129
tp773
a(I0
g127
tp774
a(I1
g129
tp775
a(I2
g189
tp776
a(I3
g129
tp777
a(I0
g189
tp778
a(I1
S'Stop'
p779
tp780
a(I2
g127
tp781
a(I3
g189
tp782
a(I0
g189
tp783
a(I1
g127
tp784
a(I2
g189
tp785
a(I3
g189
tp786
a(I0
g129
tp787
a(I1
g127
tp788
a(I2
g127
tp789
a(I3
g189
tp790
a(I0
g127
tp791
a(I1
g127
tp792
a(I2
g127
tp793
a(I3
g129
tp794
a(I0
g185
tp795
a(I1
g127
tp796
a(I2
g189
tp797
a(I3
g129
tp798
a(I0
g185
tp799
a(I1
g127
tp800
a(I2
g189
tp801
a(I3
g185
tp802
a(I0
g185
tp803
a(I1
g127
tp804
a(I2
g189
tp805
a(I3
g185
tp806
a(I0
g185
tp807
a(I1
g127
tp808
a(I2
g189
tp809
a(I3
g185
tp810
a(I0
g129
tp811
a(I1
g127
tp812
a(I2
g189
tp813
a(I3
g185
tp814
a(I0
g129
tp815
a(I1
g127
tp816
a(I2
g127
tp817
a(I3
g129
tp818
a(I0
g129
tp819
a(I1
g127
tp820
a(I2
g127
tp821
a(I3
g129
tp822
a(I0
g185
tp823
a(I1
g127
tp824
a(I2
g189
tp825
a(I3
g129
tp826
a(I0
g185
tp827
a(I1
g127
tp828
a(I2
g189
tp829
a(I3
g185
tp830
a(I0
g127
tp831
a(I1
g127
tp832
a(I2
g189
tp833
a(I3
g185
tp834
a(I0
g127
tp835
a(I1
g127
tp836
a(I2
g127
tp837
a(I3
g127
tp838
a(I0
g185
tp839
a(I1
g185
tp840
a(I2
g189
tp841
a(I3
g129
tp842
a(I0
g189
tp843
a(I1
g185
tp844
a(I2
g185
tp845
a(I3
g127
tp846
a(I0
g185
tp847
a(I1
g129
tp848
a(I2
g189
tp849
a(I3
g129
tp850
a(I0
g189
tp851
a(I1
g129
tp852
a(I2
g189
tp853
a(I3
g127
tp854
a(I0
g185
tp855
a(I1
g185
tp856
a(I2
g185
tp857
a(I3
g129
tp858
a(I0
g189
tp859
a(I1
g185
tp860
a(I2
g185
tp861
a(I3
g127
tp862
a(I0
g185
tp863
a(I1
g185
tp864
a(I2
g127
tp865
a(I3
g129
tp866
a(I0
g189
tp867
a(I1
g129
tp868
a(I2
g127
tp869
a(I3
g127
tp870
a(I0
g185
tp871
a(I1
g185
tp872
a(I2
g127
tp873
a(I3
g129
tp874
a(I0
g189
tp875
a(I1
g185
tp876
a(I2
g185
tp877
a(I3
g127
tp878
a(I0
g185
tp879
a(I1
g129
tp880
a(I2
g185
tp881
a(I3
g129
tp882
a(I0
g189
tp883
a(I1
g185
tp884
a(I2
g185
tp885
a(I3
g127
tp886
a(I0
g185
tp887
a(I1
g185
tp888
a(I2
g189
tp889
a(I3
g129
tp890
a(I0
g189
tp891
a(I1
g185
tp892
a(I2
g189
tp893
a(I3
g127
tp894
a(I0
g185
tp895
a(I1
g129
tp896
a(I2
g189
tp897
a(I3
g129
tp898
a(I0
g189
tp899
a(I1
g129
tp900
a(I2
g129
tp901
a(I3
g127
tp902
a(I0
g185
tp903
a(I1
g185
tp904
a(I2
g129
tp905
a(I3
g129
tp906
a(I0
g189
tp907
a(I1
g185
tp908
a(I2
g129
tp909
a(I3
g127
tp910
a(I0
g185
tp911
a(I1
g185
tp912
a(I2
g189
tp913
a(I3
g129
tp914
a(I0
g189
tp915
a(I1
g185
tp916
a(I2
g189
tp917
a(I3
g127
tp918
a(I0
g185
tp919
a(I1
g185
tp920
a(I2
g185
tp921
a(I3
g129
tp922
a(I0
g189
tp923
a(I1
g129
tp924
a(I2
g185
tp925
a(I3
g127
tp926
a(I0
g185
tp927
a(I1
g185
tp928
a(I2
g189
tp929
a(I3
g129
tp930
a(I0
g129
tp931
a(I1
g129
tp932
a(I2
g189
tp933
a(I3
g189
tp934
a(I0
g185
tp935
a(I1
g129
tp936
a(I2
g127
tp937
a(I3
g189
tp938
a(I0
g185
tp939
a(I1
g185
tp940
a(I2
g127
tp941
a(I3
g127
tp942
a(I0
g189
tp943
a(I1
g185
tp944
a(I2
g127
tp945
asS'length'
p946
I1200
sS'agents'
p947
(lp948
(igame
Agent
p949
(dp950
S'index'
p951
I0
sba(igame
Agent
p952
(dp953
g951
I0
sba(igame
Agent
p954
(dp955
g951
I0
sba(igame
Agent
p956
(dp957
g951
I0
sbasS'redTeamName'
p958
S'Red'
p959
s.